
bio_ssl.cc.o:
                 U BIO_callback_ctrl
                 U BIO_clear_retry_flags
                 U BIO_ctrl
0000000000000000 T BIO_f_ssl
                 U BIO_get_retry_flags
                 U BIO_get_retry_reason
                 U BIO_set_flags
                 U BIO_set_retry_read
                 U BIO_set_retry_reason
                 U BIO_set_retry_special
                 U BIO_set_retry_write
0000000000000000 T BIO_set_ssl
0000000000000000 a bio_ssl.cc
0000000000000000 b .bss
0000000000000000 n .comment
0000000000000000 d .data
0000000000000000 d .data.rel.ro.local._ZL10ssl_method
0000000000000000 N .debug_abbrev
0000000000000000 N .debug_aranges
0000000000000000 N .debug_info
0000000000000000 N .debug_line
0000000000000000 N .debug_ranges
0000000000000000 N .debug_str
0000000000000000 r .eh_frame
                 U ERR_put_error
0000000000000000 n .note.GNU-stack
0000000000000000 r .rodata
0000000000000000 r .rodata._ZN9__gnu_cxxL21__default_lock_policyE
0000000000000000 r .rodata._ZStL13allocator_arg
0000000000000000 r .rodata._ZStL19piecewise_construct
0000000000000000 r .rodata._ZStL6ignore
                 U SSL_free
                 U SSL_get_error
                 U SSL_get_rbio
                 U SSL_get_wbio
                 U SSL_pending
                 U SSL_read
                 U SSL_shutdown
                 U SSL_write
0000000000000000 t .text
0000000000000000 t .text.BIO_f_ssl
0000000000000000 t .text.BIO_set_ssl
0000000000000000 t .text._ZL17ssl_callback_ctrlP6bio_stiPFlS0_iPKcillE
0000000000000000 t .text._ZL7get_sslP6bio_st
0000000000000000 t .text._ZL7ssl_newP6bio_st
0000000000000000 t .text._ZL8ssl_ctrlP6bio_stilPv
0000000000000000 t .text._ZL8ssl_freeP6bio_st
0000000000000000 t .text._ZL8ssl_readP6bio_stPci
0000000000000000 t .text._ZL9ssl_writeP6bio_stPKci
0000000000000000 d _ZL10ssl_method
0000000000000000 t _ZL17ssl_callback_ctrlP6bio_stiPFlS0_iPKcillE
0000000000000000 t _ZL7get_sslP6bio_st
0000000000000000 t _ZL7ssl_newP6bio_st
0000000000000000 t _ZL8ssl_ctrlP6bio_stilPv
0000000000000000 t _ZL8ssl_freeP6bio_st
0000000000000000 t _ZL8ssl_readP6bio_stPci
0000000000000000 t _ZL9ssl_writeP6bio_stPKci
0000000000000000 r _ZN9__gnu_cxxL21__default_lock_policyE
0000000000000000 r _ZStL13allocator_arg
0000000000000000 r _ZStL19piecewise_construct
0000000000000000 r _ZStL6ignore

d1_both.cc.o:
                 U abort
                 U __assert_fail
                 U BIO_ctrl
                 U BIO_flush
                 U BIO_write
0000000000000000 b .bss
                 U CBB_add_bytes
                 U CBB_add_u16
                 U CBB_add_u24
                 U CBB_add_u24_length_prefixed
                 U CBB_add_u8
                 U CBB_cleanup
                 U CBB_finish
                 U CBB_init
                 U CBB_init_fixed
                 U CBB_zero
                 U CBS_data
                 U CBS_get_bytes
                 U CBS_get_u16
                 U CBS_get_u24
                 U CBS_get_u8
                 U CBS_init
                 U CBS_len
                 U CBS_skip
0000000000000000 n .comment
0000000000000000 a d1_both.cc
0000000000000000 d .data
0000000000000000 N .debug_abbrev
0000000000000000 N .debug_aranges
0000000000000000 N .debug_info
0000000000000000 N .debug_line
0000000000000000 N .debug_ranges
0000000000000000 N .debug_str
0000000000000000 r .eh_frame
                 U ERR_put_error
0000000000000000 n .group
0000000000000000 n .group
0000000000000000 n .group
0000000000000000 n .group
0000000000000000 n .group
0000000000000000 n .group
0000000000000000 n .group
0000000000000000 n .group
0000000000000000 n .group
0000000000000000 n .group
0000000000000000 n .group
0000000000000000 n .group
0000000000000000 n .group
0000000000000000 n .group
0000000000000000 n .group
0000000000000000 n .group
0000000000000000 n .group
0000000000000000 n .group
0000000000000000 n .group
0000000000000000 n .group
0000000000000000 n .group
0000000000000000 n .group
0000000000000000 n .group
0000000000000000 n .group
0000000000000000 n .group
0000000000000000 n .group
0000000000000000 n .group
0000000000000000 n .group
0000000000000000 n .group
0000000000000000 n .group
0000000000000000 n .group
0000000000000000 n .group
0000000000000000 n .group
0000000000000000 n .group
0000000000000000 n .group
0000000000000000 n .group
0000000000000000 n .group
0000000000000000 n .group
0000000000000000 n .group
0000000000000000 n .group
0000000000000000 n .group
0000000000000000 n .group
0000000000000000 n .group
0000000000000000 n .group
0000000000000000 n .group
0000000000000000 n .group
0000000000000000 n .group
0000000000000000 n .group
0000000000000000 n .group
0000000000000000 n .group
0000000000000000 n .group
0000000000000000 n .group
0000000000000000 n .group
0000000000000000 n .group
0000000000000000 n .group
0000000000000000 n .group
0000000000000000 n .group
0000000000000000 n .group
0000000000000000 n .group
0000000000000000 n .group
0000000000000000 n .group
0000000000000000 n .group
0000000000000000 n .group
0000000000000000 n .group
0000000000000000 n .group
0000000000000000 n .group
0000000000000000 n .group
0000000000000000 n .group
0000000000000000 n .group
0000000000000000 n .group
0000000000000000 n .group
0000000000000000 n .group
0000000000000000 n .group
0000000000000000 n .group
0000000000000000 n .group
0000000000000000 n .group
0000000000000000 n .group
0000000000000000 n .group
0000000000000000 n .group
0000000000000000 n .group
0000000000000000 n .group
0000000000000000 n .group
0000000000000000 n .group
0000000000000000 n .group
0000000000000000 n .group
0000000000000000 n .group
0000000000000000 n .group
0000000000000000 n .group
0000000000000000 n .group
0000000000000000 n .group
0000000000000000 n .group
0000000000000000 n .group
0000000000000000 n .group
0000000000000000 n .group
0000000000000000 n .group
0000000000000000 n .group
0000000000000000 n .group
0000000000000000 n .group
0000000000000000 n .group
0000000000000000 n .group
0000000000000000 n .group
0000000000000000 n .group
0000000000000000 n .group
                 U memcpy
                 U memset
0000000000000000 n .note.GNU-stack
                 U OPENSSL_free
                 U OPENSSL_malloc
0000000000000000 t OPENSSL_memcpy
0000000000000000 t OPENSSL_memset
0000000000000000 r .rodata
0000000000000000 r .rodata._ZN4bsslL11kDefaultMTUE
0000000000000000 r .rodata._ZN4bsslL11kMaxTicketsE
0000000000000000 r .rodata._ZN4bsslL21kMaxEarlyDataAcceptedE
0000000000000000 r .rodata._ZN4bsslL7kMinMTUE
0000000000000000 r .rodata._ZN9__gnu_cxxL21__default_lock_policyE
0000000000000000 r .rodata._ZStL13allocator_arg
0000000000000000 r .rodata._ZStL19piecewise_construct
0000000000000000 r .rodata._ZStL6ignore
0000000000000000 r .rodata._ZZN4bssl18dtls1_next_messageEP6ssl_stE19__PRETTY_FUNCTION__
0000000000000000 r .rodata._ZZN4bssl20dtls1_open_handshakeEP6ssl_stPmPhNS_4SpanIhEEE19__PRETTY_FUNCTION__
0000000000000000 r .rodata._ZZN4bssl35dtls_has_unprocessed_handshake_dataEPK6ssl_stE19__PRETTY_FUNCTION__
0000000000000000 r .rodata._ZZN4bsslL12add_outgoingEP6ssl_stbNS_5ArrayIhEEE19__PRETTY_FUNCTION__
0000000000000000 r .rodata._ZZN4bsslL16dtls1_update_mtuEP6ssl_stE19__PRETTY_FUNCTION__
0000000000000000 r .rodata._ZZN4bsslL16seal_next_packetEP6ssl_stPhPmmE19__PRETTY_FUNCTION__
0000000000000000 r .rodata._ZZN4bsslL17seal_next_messageEP6ssl_stPhPmmPKNS_21DTLS_OUTGOING_MESSAGEEE17kChangeCipherSpec
0000000000000000 r .rodata._ZZN4bsslL17seal_next_messageEP6ssl_stPhPmmPKNS_21DTLS_OUTGOING_MESSAGEEE19__PRETTY_FUNCTION__
0000000000000000 r .rodata._ZZN4bsslL22dtls1_hm_fragment_markEPNS_11hm_fragmentEmmE19__PRETTY_FUNCTION__
0000000000000000 r .rodata._ZZN4bsslL26dtls1_get_incoming_messageEP6ssl_stPhPKNS_12hm_header_stEE19__PRETTY_FUNCTION__
                 U SSL_get_options
0000000000000000 t .text
0000000000000000 t .text.OPENSSL_memcpy
0000000000000000 t .text.OPENSSL_memset
0000000000000000 t .text._ZN4bssl10MakeUniqueINS_11hm_fragmentEJEEESt10unique_ptrIT_NS_8internal7DeleterEEDpOT0_
0000000000000000 t .text._ZN4bssl11hm_fragmentC2Ev
0000000000000000 t .text._ZN4bssl11hm_fragmentD2Ev
0000000000000000 t .text._ZN4bssl13dtls1_min_mtuEv
0000000000000000 t .text._ZN4bssl13MakeConstSpanIKhEENS_4SpanIKT_EEPS3_m
0000000000000000 t .text._ZN4bssl17dtls1_add_messageEP6ssl_stNS_5ArrayIhEE
0000000000000000 t .text._ZN4bssl17dtls1_get_messageEPK6ssl_stPNS_10SSLMessageE
0000000000000000 t .text._ZN4bssl18dtls1_flush_flightEP6ssl_st
0000000000000000 t .text._ZN4bssl18dtls1_init_messageEPK6ssl_stP6cbb_stS4_h
0000000000000000 t .text._ZN4bssl18dtls1_next_messageEP6ssl_st
0000000000000000 t .text._ZN4bssl20dtls1_finish_messageEPK6ssl_stP6cbb_stPNS_5ArrayIhEE
0000000000000000 t .text._ZN4bssl20dtls1_open_handshakeEP6ssl_stPmPhNS_4SpanIhEE
0000000000000000 t .text._ZN4bssl20dtls1_parse_fragmentEP6cbs_stPNS_12hm_header_stES1_
0000000000000000 t .text._ZN4bssl21DTLS_OUTGOING_MESSAGE5ClearEv
0000000000000000 t .text._ZN4bssl28dtls1_add_change_cipher_specEP6ssl_st
0000000000000000 t .text._ZN4bssl28dtls_clear_outgoing_messagesEP6ssl_st
0000000000000000 t .text._ZN4bssl29dtls1_open_change_cipher_specEP6ssl_stPmPhNS_4SpanIhEE
0000000000000000 t .text._ZN4bssl34dtls1_retransmit_outgoing_messagesEP6ssl_st
0000000000000000 t .text._ZN4bssl35dtls_has_unprocessed_handshake_dataEPK6ssl_st
0000000000000000 t .text._ZN4bssl3NewINS_11hm_fragmentEJEEEPT_DpOT0_
0000000000000000 t .text._ZN4bssl4SpanIhEC1EPhm
0000000000000000 t .text._ZN4bssl4SpanIKhEC2EPS1_m
0000000000000000 t .text._ZN4bssl4SpanIKhEC2ILm1EEERAT__S1_
0000000000000000 t .text._ZN4bssl4SpanIKhEC2INS0_IhEEvS4_EERKT_
0000000000000000 t .text._ZN4bssl4SpanIKhEC2INS_5ArrayIhEEvS5_EERKT_
0000000000000000 t .text._ZN4bssl5ArrayIhE4dataEv
0000000000000000 t .text._ZN4bssl5ArrayIhE4InitEm
0000000000000000 t .text._ZN4bssl5ArrayIhE5ResetEPhm
0000000000000000 t .text._ZN4bssl5ArrayIhE5ResetEv
0000000000000000 t .text._ZN4bssl5ArrayIhE7ReleaseEPPhPm
0000000000000000 t .text._ZN4bssl5ArrayIhEaSEOS1_
0000000000000000 t .text._ZN4bssl5ArrayIhEC2EOS1_
0000000000000000 t .text._ZN4bssl5ArrayIhEC2Ev
0000000000000000 t .text._ZN4bssl5ArrayIhED2Ev
0000000000000000 t .text._ZN4bssl6DeleteINS_11hm_fragmentEEEvPT_
0000000000000000 t .text._ZN4bssl8internal11DeleterImplINS_11hm_fragmentEvE4FreeEPS2_
0000000000000000 t .text._ZN4bssl8internal14StackAllocatedI6cbb_stvXadL_Z8CBB_zeroEEXadL_Z11CBB_cleanupEEE3getEv
0000000000000000 t .text._ZN4bssl8internal14StackAllocatedI6cbb_stvXadL_Z8CBB_zeroEEXadL_Z11CBB_cleanupEEEC2Ev
0000000000000000 t .text._ZN4bssl8internal14StackAllocatedI6cbb_stvXadL_Z8CBB_zeroEEXadL_Z11CBB_cleanupEEED2Ev
0000000000000000 t .text._ZN4bssl8internal7DeleterclINS_11hm_fragmentEEEvPT_
0000000000000000 t .text._ZN4bssl8MakeSpanIhEENS_4SpanIT_EEPS2_m
0000000000000000 t .text._ZN4bsslL11send_flightEP6ssl_st
0000000000000000 t .text._ZN4bsslL12add_outgoingEP6ssl_stbNS_5ArrayIhEE
0000000000000000 t .text._ZN4bsslL16dtls1_update_mtuEP6ssl_st
0000000000000000 t .text._ZN4bsslL16seal_next_packetEP6ssl_stPhPmm
0000000000000000 t .text._ZN4bsslL17seal_next_messageEP6ssl_stPhPmmPKNS_21DTLS_OUTGOING_MESSAGEE
0000000000000000 t .text._ZN4bsslL21dtls1_hm_fragment_newEPKNS_12hm_header_stE
0000000000000000 t .text._ZN4bsslL22dtls1_hm_fragment_markEPNS_11hm_fragmentEmm
0000000000000000 t .text._ZN4bsslL26dtls1_get_incoming_messageEP6ssl_stPhPKNS_12hm_header_stE
0000000000000000 t .text._ZN4bsslL31ssl_size_t_greater_than_32_bitsEm
0000000000000000 t .text._ZN4bsslL33dtls1_is_current_message_completeEPK6ssl_st
0000000000000000 t .text._ZN4bsslL9bit_rangeEmm
0000000000000000 t .text._ZNK4bssl14SSLAEADContext14is_null_cipherEv
0000000000000000 t .text._ZNK4bssl4SpanIhE4dataEv
0000000000000000 t .text._ZNK4bssl4SpanIhE4sizeEv
0000000000000000 t .text._ZNK4bssl4SpanIhEixEm
0000000000000000 t .text._ZNK4bssl5ArrayIhE4dataEv
0000000000000000 t .text._ZNK4bssl5ArrayIhE4sizeEv
0000000000000000 t .text._ZNK6cbs_stcvN4bssl4SpanIKhEEEv
0000000000000000 t .text._ZNKSt10unique_ptrI6bio_stN4bssl8internal7DeleterEE3getEv
0000000000000000 t .text._ZNKSt10unique_ptrI6bio_stN4bssl8internal7DeleterEEcvbEv
0000000000000000 t .text._ZNKSt10unique_ptrIN4bssl11hm_fragmentENS0_8internal7DeleterEE3getEv
0000000000000000 t .text._ZNKSt10unique_ptrIN4bssl11hm_fragmentENS0_8internal7DeleterEEcvbEv
0000000000000000 t .text._ZNKSt10unique_ptrIN4bssl11hm_fragmentENS0_8internal7DeleterEEptEv
0000000000000000 t .text._ZNKSt10unique_ptrIN4bssl13SSL_HANDSHAKEENS0_8internal7DeleterEE3getEv
0000000000000000 t .text._ZNKSt10unique_ptrIN4bssl13SSL_HANDSHAKEENS0_8internal7DeleterEEcvbEv
0000000000000000 t .text._ZNKSt10unique_ptrIN4bssl13SSL_HANDSHAKEENS0_8internal7DeleterEEptEv
0000000000000000 t .text._ZNKSt10unique_ptrIN4bssl14SSLAEADContextENS0_8internal7DeleterEE3getEv
0000000000000000 t .text._ZNKSt10unique_ptrIN4bssl14SSLAEADContextENS0_8internal7DeleterEEptEv
0000000000000000 t .text._ZNKSt15__uniq_ptr_implI6bio_stN4bssl8internal7DeleterEE6_M_ptrEv
0000000000000000 t .text._ZNKSt15__uniq_ptr_implIN4bssl11hm_fragmentENS0_8internal7DeleterEE6_M_ptrEv
0000000000000000 t .text._ZNKSt15__uniq_ptr_implIN4bssl13SSL_HANDSHAKEENS0_8internal7DeleterEE6_M_ptrEv
0000000000000000 t .text._ZNKSt15__uniq_ptr_implIN4bssl14SSLAEADContextENS0_8internal7DeleterEE6_M_ptrEv
0000000000000000 t .text._ZNSt10_Head_baseILm0EP6bio_stLb0EE7_M_headERKS2_
0000000000000000 t .text._ZNSt10_Head_baseILm0EPN4bssl11hm_fragmentELb0EE7_M_headERKS3_
0000000000000000 t .text._ZNSt10_Head_baseILm0EPN4bssl11hm_fragmentELb0EE7_M_headERS3_
0000000000000000 t .text._ZNSt10_Head_baseILm0EPN4bssl11hm_fragmentELb0EEC2Ev
0000000000000000 t .text._ZNSt10_Head_baseILm0EPN4bssl11hm_fragmentELb0EEC2IRS2_EEOT_
0000000000000000 t .text._ZNSt10_Head_baseILm0EPN4bssl13SSL_HANDSHAKEELb0EE7_M_headERKS3_
0000000000000000 t .text._ZNSt10_Head_baseILm0EPN4bssl14SSLAEADContextELb0EE7_M_headERKS3_
0000000000000000 t .text._ZNSt10_Head_baseILm1EN4bssl8internal7DeleterELb1EE7_M_headERS3_
0000000000000000 t .text._ZNSt10_Head_baseILm1EN4bssl8internal7DeleterELb1EEC2Ev
0000000000000000 t .text._ZNSt10_Head_baseILm1EN4bssl8internal7DeleterELb1EEC2IS2_EEOT_
0000000000000000 t .text._ZNSt10unique_ptrIN4bssl11hm_fragmentENS0_8internal7DeleterEE11get_deleterEv
0000000000000000 t .text._ZNSt10unique_ptrIN4bssl11hm_fragmentENS0_8internal7DeleterEE5resetEPS1_
0000000000000000 t .text._ZNSt10unique_ptrIN4bssl11hm_fragmentENS0_8internal7DeleterEE7releaseEv
0000000000000000 t .text._ZNSt10unique_ptrIN4bssl11hm_fragmentENS0_8internal7DeleterEEaSEOS4_
0000000000000000 t .text._ZNSt10unique_ptrIN4bssl11hm_fragmentENS0_8internal7DeleterEEC2EOS4_
0000000000000000 t .text._ZNSt10unique_ptrIN4bssl11hm_fragmentENS0_8internal7DeleterEEC2IS3_vEEDn
0000000000000000 t .text._ZNSt10unique_ptrIN4bssl11hm_fragmentENS0_8internal7DeleterEEC2IS3_vEEPS1_
0000000000000000 t .text._ZNSt10unique_ptrIN4bssl11hm_fragmentENS0_8internal7DeleterEED2Ev
0000000000000000 t .text._ZNSt11_Tuple_implILm0EJP6bio_stN4bssl8internal7DeleterEEE7_M_headERKS5_
0000000000000000 t .text._ZNSt11_Tuple_implILm0EJPN4bssl11hm_fragmentENS0_8internal7DeleterEEE7_M_headERKS5_
0000000000000000 t .text._ZNSt11_Tuple_implILm0EJPN4bssl11hm_fragmentENS0_8internal7DeleterEEE7_M_headERS5_
0000000000000000 t .text._ZNSt11_Tuple_implILm0EJPN4bssl11hm_fragmentENS0_8internal7DeleterEEEC2Ev
0000000000000000 t .text._ZNSt11_Tuple_implILm0EJPN4bssl11hm_fragmentENS0_8internal7DeleterEEEC2IRS2_JS4_EvEEOT_DpOT0_
0000000000000000 t .text._ZNSt11_Tuple_implILm0EJPN4bssl13SSL_HANDSHAKEENS0_8internal7DeleterEEE7_M_headERKS5_
0000000000000000 t .text._ZNSt11_Tuple_implILm0EJPN4bssl14SSLAEADContextENS0_8internal7DeleterEEE7_M_headERKS5_
0000000000000000 t .text._ZNSt11_Tuple_implILm1EJN4bssl8internal7DeleterEEE7_M_headERS3_
0000000000000000 t .text._ZNSt11_Tuple_implILm1EJN4bssl8internal7DeleterEEEC2Ev
0000000000000000 t .text._ZNSt11_Tuple_implILm1EJN4bssl8internal7DeleterEEEC2IS2_EEOT_
0000000000000000 t .text._ZNSt14numeric_limitsImE3maxEv
0000000000000000 t .text._ZNSt15__uniq_ptr_implIN4bssl11hm_fragmentENS0_8internal7DeleterEE10_M_deleterEv
0000000000000000 t .text._ZNSt15__uniq_ptr_implIN4bssl11hm_fragmentENS0_8internal7DeleterEE6_M_ptrEv
0000000000000000 t .text._ZNSt15__uniq_ptr_implIN4bssl11hm_fragmentENS0_8internal7DeleterEEC2EPS1_
0000000000000000 t .text._ZNSt15__uniq_ptr_implIN4bssl11hm_fragmentENS0_8internal7DeleterEEC2Ev
0000000000000000 t .text._ZNSt15__uniq_ptr_implIN4bssl11hm_fragmentENS0_8internal7DeleterEEC2IS3_EEPS1_OT_
0000000000000000 t .text._ZNSt5tupleIJPN4bssl11hm_fragmentENS0_8internal7DeleterEEEC2IRS2_S4_Lb1EEEOT_OT0_
0000000000000000 t .text._ZNSt5tupleIJPN4bssl11hm_fragmentENS0_8internal7DeleterEEEC2IS2_S4_Lb1EEEv
0000000000000000 t .text._ZnwmPv
0000000000000000 t .text._ZSt12__get_helperILm0EP6bio_stJN4bssl8internal7DeleterEEERKT0_RKSt11_Tuple_implIXT_EJS5_DpT1_EE
0000000000000000 t .text._ZSt12__get_helperILm0EPN4bssl11hm_fragmentEJNS0_8internal7DeleterEEERKT0_RKSt11_Tuple_implIXT_EJS5_DpT1_EE
0000000000000000 t .text._ZSt12__get_helperILm0EPN4bssl11hm_fragmentEJNS0_8internal7DeleterEEERT0_RSt11_Tuple_implIXT_EJS5_DpT1_EE
0000000000000000 t .text._ZSt12__get_helperILm0EPN4bssl13SSL_HANDSHAKEEJNS0_8internal7DeleterEEERKT0_RKSt11_Tuple_implIXT_EJS5_DpT1_EE
0000000000000000 t .text._ZSt12__get_helperILm0EPN4bssl14SSLAEADContextEJNS0_8internal7DeleterEEERKT0_RKSt11_Tuple_implIXT_EJS5_DpT1_EE
0000000000000000 t .text._ZSt12__get_helperILm1EN4bssl8internal7DeleterEJEERT0_RSt11_Tuple_implIXT_EJS3_DpT1_EE
0000000000000000 t .text._ZSt3getILm0EJP6bio_stN4bssl8internal7DeleterEEERKNSt13tuple_elementIXT_ESt5tupleIJDpT0_EEE4typeERKS9_
0000000000000000 t .text._ZSt3getILm0EJPN4bssl11hm_fragmentENS0_8internal7DeleterEEERKNSt13tuple_elementIXT_ESt5tupleIJDpT0_EEE4typeERKS9_
0000000000000000 t .text._ZSt3getILm0EJPN4bssl11hm_fragmentENS0_8internal7DeleterEEERNSt13tuple_elementIXT_ESt5tupleIJDpT0_EEE4typeERS9_
0000000000000000 t .text._ZSt3getILm0EJPN4bssl13SSL_HANDSHAKEENS0_8internal7DeleterEEERKNSt13tuple_elementIXT_ESt5tupleIJDpT0_EEE4typeERKS9_
0000000000000000 t .text._ZSt3getILm0EJPN4bssl14SSLAEADContextENS0_8internal7DeleterEEERKNSt13tuple_elementIXT_ESt5tupleIJDpT0_EEE4typeERKS9_
0000000000000000 t .text._ZSt3getILm1EJPN4bssl11hm_fragmentENS0_8internal7DeleterEEERNSt13tuple_elementIXT_ESt5tupleIJDpT0_EEE4typeERS9_
0000000000000000 t .text._ZSt4moveIRN4bssl5ArrayIhEEEONSt16remove_referenceIT_E4typeEOS5_
0000000000000000 t .text._ZSt4moveIRPN4bssl11hm_fragmentEEONSt16remove_referenceIT_E4typeEOS5_
0000000000000000 t .text._ZSt4swapIPN4bssl11hm_fragmentEENSt9enable_ifIXsrSt6__and_IJSt6__not_ISt15__is_tuple_likeIT_EESt21is_move_constructibleIS7_ESt18is_move_assignableIS7_EEE5valueEvE4typeERS7_SH_
0000000000000000 t .text._ZSt7forwardIN4bssl8internal7DeleterEEOT_RNSt16remove_referenceIS3_E4typeE
0000000000000000 t .text._ZSt7forwardIRPN4bssl11hm_fragmentEEOT_RNSt16remove_referenceIS4_E4typeE
0000000000000000 t .text._ZSteqI6bio_stN4bssl8internal7DeleterEEbRKSt10unique_ptrIT_T0_EDn
0000000000000000 t .text._ZStneIN4bssl11hm_fragmentENS0_8internal7DeleterEEbRKSt10unique_ptrIT_T0_EDn
0000000000000000 t .text._ZStneIN4bssl13SSL_HANDSHAKEENS0_8internal7DeleterEEbRKSt10unique_ptrIT_T0_EDn
0000000000000000 W _ZN4bssl10MakeUniqueINS_11hm_fragmentEJEEESt10unique_ptrIT_NS_8internal7DeleterEEDpOT0_
0000000000000000 W _ZN4bssl11hm_fragmentC1Ev
0000000000000000 W _ZN4bssl11hm_fragmentC2Ev
0000000000000000 n _ZN4bssl11hm_fragmentC5Ev
0000000000000000 T _ZN4bssl11hm_fragmentD1Ev
0000000000000000 T _ZN4bssl11hm_fragmentD2Ev
0000000000000000 T _ZN4bssl13dtls1_min_mtuEv
0000000000000000 W _ZN4bssl13MakeConstSpanIKhEENS_4SpanIKT_EEPS3_m
                 U _ZN4bssl13SSLTranscript6UpdateENS_4SpanIKhEE
                 U _ZN4bssl14CBBFinishArrayEP6cbb_stPNS_5ArrayIhEE
                 U _ZN4bssl16dtls1_stop_timerEP6ssl_st
                 U _ZN4bssl16dtls_open_recordEP6ssl_stPhPNS_4SpanIhEEPmS2_S4_
                 U _ZN4bssl16dtls_seal_recordEP6ssl_stPhPmmhPKhmNS_17dtls1_use_epoch_tE
0000000000000000 T _ZN4bssl17dtls1_add_messageEP6ssl_stNS_5ArrayIhEE
0000000000000000 T _ZN4bssl17dtls1_get_messageEPK6ssl_stPNS_10SSLMessageE
                 U _ZN4bssl17dtls1_start_timerEP6ssl_st
0000000000000000 T _ZN4bssl18dtls1_flush_flightEP6ssl_st
0000000000000000 T _ZN4bssl18dtls1_init_messageEPK6ssl_stP6cbb_stS4_h
0000000000000000 T _ZN4bssl18dtls1_next_messageEP6ssl_st
                 U _ZN4bssl19ssl_do_msg_callbackEPK6ssl_stiiNS_4SpanIKhEE
0000000000000000 T _ZN4bssl20dtls1_finish_messageEPK6ssl_stP6cbb_stPNS_5ArrayIhEE
0000000000000000 T _ZN4bssl20dtls1_open_handshakeEP6ssl_stPmPhNS_4SpanIhEE
0000000000000000 T _ZN4bssl20dtls1_parse_fragmentEP6cbs_stPNS_12hm_header_stES1_
                 U _ZN4bssl20dtls_seal_prefix_lenEPK6ssl_stNS_17dtls1_use_epoch_tE
0000000000000000 T _ZN4bssl21DTLS_OUTGOING_MESSAGE5ClearEv
                 U _ZN4bssl22dtls_max_seal_overheadEPK6ssl_stNS_17dtls1_use_epoch_tE
0000000000000000 T _ZN4bssl28dtls1_add_change_cipher_specEP6ssl_st
0000000000000000 T _ZN4bssl28dtls_clear_outgoing_messagesEP6ssl_st
0000000000000000 T _ZN4bssl29dtls1_open_change_cipher_specEP6ssl_stPmPhNS_4SpanIhEE
                 U _ZN4bssl29ssl_max_handshake_message_lenEPK6ssl_st
0000000000000000 T _ZN4bssl34dtls1_retransmit_outgoing_messagesEP6ssl_st
0000000000000000 T _ZN4bssl35dtls_has_unprocessed_handshake_dataEPK6ssl_st
0000000000000000 W _ZN4bssl3NewINS_11hm_fragmentEJEEEPT_DpOT0_
0000000000000000 W _ZN4bssl4SpanIhEC1EPhm
0000000000000000 W _ZN4bssl4SpanIKhEC1EPS1_m
0000000000000000 W _ZN4bssl4SpanIKhEC1ILm1EEERAT__S1_
0000000000000000 W _ZN4bssl4SpanIKhEC1INS0_IhEEvS4_EERKT_
0000000000000000 W _ZN4bssl4SpanIKhEC1INS_5ArrayIhEEvS5_EERKT_
0000000000000000 W _ZN4bssl4SpanIKhEC2EPS1_m
0000000000000000 W _ZN4bssl4SpanIKhEC2ILm1EEERAT__S1_
0000000000000000 W _ZN4bssl4SpanIKhEC2INS0_IhEEvS4_EERKT_
0000000000000000 W _ZN4bssl4SpanIKhEC2INS_5ArrayIhEEvS5_EERKT_
0000000000000000 n _ZN4bssl4SpanIKhEC5EPS1_m
0000000000000000 n _ZN4bssl4SpanIKhEC5ILm1EEERAT__S1_
0000000000000000 n _ZN4bssl4SpanIKhEC5INS0_IhEEvS4_EERKT_
0000000000000000 n _ZN4bssl4SpanIKhEC5INS_5ArrayIhEEvS5_EERKT_
0000000000000000 W _ZN4bssl5ArrayIhE4dataEv
0000000000000000 W _ZN4bssl5ArrayIhE4InitEm
0000000000000000 W _ZN4bssl5ArrayIhE5ResetEPhm
0000000000000000 W _ZN4bssl5ArrayIhE5ResetEv
0000000000000000 W _ZN4bssl5ArrayIhE7ReleaseEPPhPm
0000000000000000 W _ZN4bssl5ArrayIhEaSEOS1_
0000000000000000 W _ZN4bssl5ArrayIhEC1EOS1_
0000000000000000 W _ZN4bssl5ArrayIhEC1Ev
0000000000000000 W _ZN4bssl5ArrayIhEC2EOS1_
0000000000000000 W _ZN4bssl5ArrayIhEC2Ev
0000000000000000 n _ZN4bssl5ArrayIhEC5EOS1_
0000000000000000 n _ZN4bssl5ArrayIhEC5Ev
0000000000000000 W _ZN4bssl5ArrayIhED1Ev
0000000000000000 W _ZN4bssl5ArrayIhED2Ev
0000000000000000 n _ZN4bssl5ArrayIhED5Ev
0000000000000000 W _ZN4bssl6DeleteINS_11hm_fragmentEEEvPT_
0000000000000000 W _ZN4bssl8internal11DeleterImplINS_11hm_fragmentEvE4FreeEPS2_
0000000000000000 W _ZN4bssl8internal14StackAllocatedI6cbb_stvXadL_Z8CBB_zeroEEXadL_Z11CBB_cleanupEEE3getEv
0000000000000000 W _ZN4bssl8internal14StackAllocatedI6cbb_stvXadL_Z8CBB_zeroEEXadL_Z11CBB_cleanupEEEC1Ev
0000000000000000 W _ZN4bssl8internal14StackAllocatedI6cbb_stvXadL_Z8CBB_zeroEEXadL_Z11CBB_cleanupEEEC2Ev
0000000000000000 n _ZN4bssl8internal14StackAllocatedI6cbb_stvXadL_Z8CBB_zeroEEXadL_Z11CBB_cleanupEEEC5Ev
0000000000000000 W _ZN4bssl8internal14StackAllocatedI6cbb_stvXadL_Z8CBB_zeroEEXadL_Z11CBB_cleanupEEED1Ev
0000000000000000 W _ZN4bssl8internal14StackAllocatedI6cbb_stvXadL_Z8CBB_zeroEEXadL_Z11CBB_cleanupEEED2Ev
0000000000000000 n _ZN4bssl8internal14StackAllocatedI6cbb_stvXadL_Z8CBB_zeroEEXadL_Z11CBB_cleanupEEED5Ev
0000000000000000 W _ZN4bssl8internal7DeleterclINS_11hm_fragmentEEEvPT_
0000000000000000 W _ZN4bssl8MakeSpanIhEENS_4SpanIT_EEPS2_m
0000000000000000 r _ZN4bsslL11kDefaultMTUE
0000000000000000 r _ZN4bsslL11kMaxTicketsE
0000000000000000 t _ZN4bsslL11send_flightEP6ssl_st
0000000000000000 t _ZN4bsslL12add_outgoingEP6ssl_stbNS_5ArrayIhEE
0000000000000000 t _ZN4bsslL16dtls1_update_mtuEP6ssl_st
0000000000000000 t _ZN4bsslL16seal_next_packetEP6ssl_stPhPmm
0000000000000000 t _ZN4bsslL17seal_next_messageEP6ssl_stPhPmmPKNS_21DTLS_OUTGOING_MESSAGEE
0000000000000000 t _ZN4bsslL21dtls1_hm_fragment_newEPKNS_12hm_header_stE
0000000000000000 r _ZN4bsslL21kMaxEarlyDataAcceptedE
0000000000000000 t _ZN4bsslL22dtls1_hm_fragment_markEPNS_11hm_fragmentEmm
0000000000000000 t _ZN4bsslL26dtls1_get_incoming_messageEP6ssl_stPhPKNS_12hm_header_stE
0000000000000000 t _ZN4bsslL31ssl_size_t_greater_than_32_bitsEm
0000000000000000 t _ZN4bsslL33dtls1_is_current_message_completeEPK6ssl_st
0000000000000000 r _ZN4bsslL7kMinMTUE
0000000000000000 t _ZN4bsslL9bit_rangeEmm
0000000000000000 r _ZN9__gnu_cxxL21__default_lock_policyE
0000000000000000 W _ZNK4bssl14SSLAEADContext14is_null_cipherEv
0000000000000000 W _ZNK4bssl4SpanIhE4dataEv
0000000000000000 W _ZNK4bssl4SpanIhE4sizeEv
0000000000000000 W _ZNK4bssl4SpanIhEixEm
0000000000000000 W _ZNK4bssl5ArrayIhE4dataEv
0000000000000000 W _ZNK4bssl5ArrayIhE4sizeEv
0000000000000000 W _ZNK6cbs_stcvN4bssl4SpanIKhEEEv
0000000000000000 W _ZNKSt10unique_ptrI6bio_stN4bssl8internal7DeleterEE3getEv
0000000000000000 W _ZNKSt10unique_ptrI6bio_stN4bssl8internal7DeleterEEcvbEv
0000000000000000 W _ZNKSt10unique_ptrIN4bssl11hm_fragmentENS0_8internal7DeleterEE3getEv
0000000000000000 W _ZNKSt10unique_ptrIN4bssl11hm_fragmentENS0_8internal7DeleterEEcvbEv
0000000000000000 W _ZNKSt10unique_ptrIN4bssl11hm_fragmentENS0_8internal7DeleterEEptEv
0000000000000000 W _ZNKSt10unique_ptrIN4bssl13SSL_HANDSHAKEENS0_8internal7DeleterEE3getEv
0000000000000000 W _ZNKSt10unique_ptrIN4bssl13SSL_HANDSHAKEENS0_8internal7DeleterEEcvbEv
0000000000000000 W _ZNKSt10unique_ptrIN4bssl13SSL_HANDSHAKEENS0_8internal7DeleterEEptEv
0000000000000000 W _ZNKSt10unique_ptrIN4bssl14SSLAEADContextENS0_8internal7DeleterEE3getEv
0000000000000000 W _ZNKSt10unique_ptrIN4bssl14SSLAEADContextENS0_8internal7DeleterEEptEv
0000000000000000 W _ZNKSt15__uniq_ptr_implI6bio_stN4bssl8internal7DeleterEE6_M_ptrEv
0000000000000000 W _ZNKSt15__uniq_ptr_implIN4bssl11hm_fragmentENS0_8internal7DeleterEE6_M_ptrEv
0000000000000000 W _ZNKSt15__uniq_ptr_implIN4bssl13SSL_HANDSHAKEENS0_8internal7DeleterEE6_M_ptrEv
0000000000000000 W _ZNKSt15__uniq_ptr_implIN4bssl14SSLAEADContextENS0_8internal7DeleterEE6_M_ptrEv
0000000000000000 W _ZNSt10_Head_baseILm0EP6bio_stLb0EE7_M_headERKS2_
0000000000000000 W _ZNSt10_Head_baseILm0EPN4bssl11hm_fragmentELb0EE7_M_headERKS3_
0000000000000000 W _ZNSt10_Head_baseILm0EPN4bssl11hm_fragmentELb0EE7_M_headERS3_
0000000000000000 W _ZNSt10_Head_baseILm0EPN4bssl11hm_fragmentELb0EEC1Ev
0000000000000000 W _ZNSt10_Head_baseILm0EPN4bssl11hm_fragmentELb0EEC1IRS2_EEOT_
0000000000000000 W _ZNSt10_Head_baseILm0EPN4bssl11hm_fragmentELb0EEC2Ev
0000000000000000 W _ZNSt10_Head_baseILm0EPN4bssl11hm_fragmentELb0EEC2IRS2_EEOT_
0000000000000000 n _ZNSt10_Head_baseILm0EPN4bssl11hm_fragmentELb0EEC5Ev
0000000000000000 n _ZNSt10_Head_baseILm0EPN4bssl11hm_fragmentELb0EEC5IRS2_EEOT_
0000000000000000 W _ZNSt10_Head_baseILm0EPN4bssl13SSL_HANDSHAKEELb0EE7_M_headERKS3_
0000000000000000 W _ZNSt10_Head_baseILm0EPN4bssl14SSLAEADContextELb0EE7_M_headERKS3_
0000000000000000 W _ZNSt10_Head_baseILm1EN4bssl8internal7DeleterELb1EE7_M_headERS3_
0000000000000000 W _ZNSt10_Head_baseILm1EN4bssl8internal7DeleterELb1EEC1Ev
0000000000000000 W _ZNSt10_Head_baseILm1EN4bssl8internal7DeleterELb1EEC1IS2_EEOT_
0000000000000000 W _ZNSt10_Head_baseILm1EN4bssl8internal7DeleterELb1EEC2Ev
0000000000000000 W _ZNSt10_Head_baseILm1EN4bssl8internal7DeleterELb1EEC2IS2_EEOT_
0000000000000000 n _ZNSt10_Head_baseILm1EN4bssl8internal7DeleterELb1EEC5Ev
0000000000000000 n _ZNSt10_Head_baseILm1EN4bssl8internal7DeleterELb1EEC5IS2_EEOT_
0000000000000000 W _ZNSt10unique_ptrIN4bssl11hm_fragmentENS0_8internal7DeleterEE11get_deleterEv
0000000000000000 W _ZNSt10unique_ptrIN4bssl11hm_fragmentENS0_8internal7DeleterEE5resetEPS1_
0000000000000000 W _ZNSt10unique_ptrIN4bssl11hm_fragmentENS0_8internal7DeleterEE7releaseEv
0000000000000000 W _ZNSt10unique_ptrIN4bssl11hm_fragmentENS0_8internal7DeleterEEaSEOS4_
0000000000000000 W _ZNSt10unique_ptrIN4bssl11hm_fragmentENS0_8internal7DeleterEEC1EOS4_
0000000000000000 W _ZNSt10unique_ptrIN4bssl11hm_fragmentENS0_8internal7DeleterEEC1IS3_vEEDn
0000000000000000 W _ZNSt10unique_ptrIN4bssl11hm_fragmentENS0_8internal7DeleterEEC1IS3_vEEPS1_
0000000000000000 W _ZNSt10unique_ptrIN4bssl11hm_fragmentENS0_8internal7DeleterEEC2EOS4_
0000000000000000 W _ZNSt10unique_ptrIN4bssl11hm_fragmentENS0_8internal7DeleterEEC2IS3_vEEDn
0000000000000000 W _ZNSt10unique_ptrIN4bssl11hm_fragmentENS0_8internal7DeleterEEC2IS3_vEEPS1_
0000000000000000 n _ZNSt10unique_ptrIN4bssl11hm_fragmentENS0_8internal7DeleterEEC5EOS4_
0000000000000000 n _ZNSt10unique_ptrIN4bssl11hm_fragmentENS0_8internal7DeleterEEC5IS3_vEEDn
0000000000000000 n _ZNSt10unique_ptrIN4bssl11hm_fragmentENS0_8internal7DeleterEEC5IS3_vEEPS1_
0000000000000000 W _ZNSt10unique_ptrIN4bssl11hm_fragmentENS0_8internal7DeleterEED1Ev
0000000000000000 W _ZNSt10unique_ptrIN4bssl11hm_fragmentENS0_8internal7DeleterEED2Ev
0000000000000000 n _ZNSt10unique_ptrIN4bssl11hm_fragmentENS0_8internal7DeleterEED5Ev
0000000000000000 W _ZNSt11_Tuple_implILm0EJP6bio_stN4bssl8internal7DeleterEEE7_M_headERKS5_
0000000000000000 W _ZNSt11_Tuple_implILm0EJPN4bssl11hm_fragmentENS0_8internal7DeleterEEE7_M_headERKS5_
0000000000000000 W _ZNSt11_Tuple_implILm0EJPN4bssl11hm_fragmentENS0_8internal7DeleterEEE7_M_headERS5_
0000000000000000 W _ZNSt11_Tuple_implILm0EJPN4bssl11hm_fragmentENS0_8internal7DeleterEEEC1Ev
0000000000000000 W _ZNSt11_Tuple_implILm0EJPN4bssl11hm_fragmentENS0_8internal7DeleterEEEC1IRS2_JS4_EvEEOT_DpOT0_
0000000000000000 W _ZNSt11_Tuple_implILm0EJPN4bssl11hm_fragmentENS0_8internal7DeleterEEEC2Ev
0000000000000000 W _ZNSt11_Tuple_implILm0EJPN4bssl11hm_fragmentENS0_8internal7DeleterEEEC2IRS2_JS4_EvEEOT_DpOT0_
0000000000000000 n _ZNSt11_Tuple_implILm0EJPN4bssl11hm_fragmentENS0_8internal7DeleterEEEC5Ev
0000000000000000 n _ZNSt11_Tuple_implILm0EJPN4bssl11hm_fragmentENS0_8internal7DeleterEEEC5IRS2_JS4_EvEEOT_DpOT0_
0000000000000000 W _ZNSt11_Tuple_implILm0EJPN4bssl13SSL_HANDSHAKEENS0_8internal7DeleterEEE7_M_headERKS5_
0000000000000000 W _ZNSt11_Tuple_implILm0EJPN4bssl14SSLAEADContextENS0_8internal7DeleterEEE7_M_headERKS5_
0000000000000000 W _ZNSt11_Tuple_implILm1EJN4bssl8internal7DeleterEEE7_M_headERS3_
0000000000000000 W _ZNSt11_Tuple_implILm1EJN4bssl8internal7DeleterEEEC1Ev
0000000000000000 W _ZNSt11_Tuple_implILm1EJN4bssl8internal7DeleterEEEC1IS2_EEOT_
0000000000000000 W _ZNSt11_Tuple_implILm1EJN4bssl8internal7DeleterEEEC2Ev
0000000000000000 W _ZNSt11_Tuple_implILm1EJN4bssl8internal7DeleterEEEC2IS2_EEOT_
0000000000000000 n _ZNSt11_Tuple_implILm1EJN4bssl8internal7DeleterEEEC5Ev
0000000000000000 n _ZNSt11_Tuple_implILm1EJN4bssl8internal7DeleterEEEC5IS2_EEOT_
0000000000000000 W _ZNSt14numeric_limitsImE3maxEv
0000000000000000 W _ZNSt15__uniq_ptr_implIN4bssl11hm_fragmentENS0_8internal7DeleterEE10_M_deleterEv
0000000000000000 W _ZNSt15__uniq_ptr_implIN4bssl11hm_fragmentENS0_8internal7DeleterEE6_M_ptrEv
0000000000000000 W _ZNSt15__uniq_ptr_implIN4bssl11hm_fragmentENS0_8internal7DeleterEEC1EPS1_
0000000000000000 W _ZNSt15__uniq_ptr_implIN4bssl11hm_fragmentENS0_8internal7DeleterEEC1Ev
0000000000000000 W _ZNSt15__uniq_ptr_implIN4bssl11hm_fragmentENS0_8internal7DeleterEEC1IS3_EEPS1_OT_
0000000000000000 W _ZNSt15__uniq_ptr_implIN4bssl11hm_fragmentENS0_8internal7DeleterEEC2EPS1_
0000000000000000 W _ZNSt15__uniq_ptr_implIN4bssl11hm_fragmentENS0_8internal7DeleterEEC2Ev
0000000000000000 W _ZNSt15__uniq_ptr_implIN4bssl11hm_fragmentENS0_8internal7DeleterEEC2IS3_EEPS1_OT_
0000000000000000 n _ZNSt15__uniq_ptr_implIN4bssl11hm_fragmentENS0_8internal7DeleterEEC5EPS1_
0000000000000000 n _ZNSt15__uniq_ptr_implIN4bssl11hm_fragmentENS0_8internal7DeleterEEC5Ev
0000000000000000 n _ZNSt15__uniq_ptr_implIN4bssl11hm_fragmentENS0_8internal7DeleterEEC5IS3_EEPS1_OT_
0000000000000000 W _ZNSt5tupleIJPN4bssl11hm_fragmentENS0_8internal7DeleterEEEC1IRS2_S4_Lb1EEEOT_OT0_
0000000000000000 W _ZNSt5tupleIJPN4bssl11hm_fragmentENS0_8internal7DeleterEEEC1IS2_S4_Lb1EEEv
0000000000000000 W _ZNSt5tupleIJPN4bssl11hm_fragmentENS0_8internal7DeleterEEEC2IRS2_S4_Lb1EEEOT_OT0_
0000000000000000 W _ZNSt5tupleIJPN4bssl11hm_fragmentENS0_8internal7DeleterEEEC2IS2_S4_Lb1EEEv
0000000000000000 n _ZNSt5tupleIJPN4bssl11hm_fragmentENS0_8internal7DeleterEEEC5IRS2_S4_Lb1EEEOT_OT0_
0000000000000000 n _ZNSt5tupleIJPN4bssl11hm_fragmentENS0_8internal7DeleterEEEC5IS2_S4_Lb1EEEv
0000000000000000 W _ZnwmPv
0000000000000000 W _ZSt12__get_helperILm0EP6bio_stJN4bssl8internal7DeleterEEERKT0_RKSt11_Tuple_implIXT_EJS5_DpT1_EE
0000000000000000 W _ZSt12__get_helperILm0EPN4bssl11hm_fragmentEJNS0_8internal7DeleterEEERKT0_RKSt11_Tuple_implIXT_EJS5_DpT1_EE
0000000000000000 W _ZSt12__get_helperILm0EPN4bssl11hm_fragmentEJNS0_8internal7DeleterEEERT0_RSt11_Tuple_implIXT_EJS5_DpT1_EE
0000000000000000 W _ZSt12__get_helperILm0EPN4bssl13SSL_HANDSHAKEEJNS0_8internal7DeleterEEERKT0_RKSt11_Tuple_implIXT_EJS5_DpT1_EE
0000000000000000 W _ZSt12__get_helperILm0EPN4bssl14SSLAEADContextEJNS0_8internal7DeleterEEERKT0_RKSt11_Tuple_implIXT_EJS5_DpT1_EE
0000000000000000 W _ZSt12__get_helperILm1EN4bssl8internal7DeleterEJEERT0_RSt11_Tuple_implIXT_EJS3_DpT1_EE
0000000000000000 W _ZSt3getILm0EJP6bio_stN4bssl8internal7DeleterEEERKNSt13tuple_elementIXT_ESt5tupleIJDpT0_EEE4typeERKS9_
0000000000000000 W _ZSt3getILm0EJPN4bssl11hm_fragmentENS0_8internal7DeleterEEERKNSt13tuple_elementIXT_ESt5tupleIJDpT0_EEE4typeERKS9_
0000000000000000 W _ZSt3getILm0EJPN4bssl11hm_fragmentENS0_8internal7DeleterEEERNSt13tuple_elementIXT_ESt5tupleIJDpT0_EEE4typeERS9_
0000000000000000 W _ZSt3getILm0EJPN4bssl13SSL_HANDSHAKEENS0_8internal7DeleterEEERKNSt13tuple_elementIXT_ESt5tupleIJDpT0_EEE4typeERKS9_
0000000000000000 W _ZSt3getILm0EJPN4bssl14SSLAEADContextENS0_8internal7DeleterEEERKNSt13tuple_elementIXT_ESt5tupleIJDpT0_EEE4typeERKS9_
0000000000000000 W _ZSt3getILm1EJPN4bssl11hm_fragmentENS0_8internal7DeleterEEERNSt13tuple_elementIXT_ESt5tupleIJDpT0_EEE4typeERS9_
0000000000000000 W _ZSt4moveIRN4bssl5ArrayIhEEEONSt16remove_referenceIT_E4typeEOS5_
0000000000000000 W _ZSt4moveIRPN4bssl11hm_fragmentEEONSt16remove_referenceIT_E4typeEOS5_
0000000000000000 W _ZSt4swapIPN4bssl11hm_fragmentEENSt9enable_ifIXsrSt6__and_IJSt6__not_ISt15__is_tuple_likeIT_EESt21is_move_constructibleIS7_ESt18is_move_assignableIS7_EEE5valueEvE4typeERS7_SH_
0000000000000000 W _ZSt7forwardIN4bssl8internal7DeleterEEOT_RNSt16remove_referenceIS3_E4typeE
0000000000000000 W _ZSt7forwardIRPN4bssl11hm_fragmentEEOT_RNSt16remove_referenceIS4_E4typeE
0000000000000000 W _ZSteqI6bio_stN4bssl8internal7DeleterEEbRKSt10unique_ptrIT_T0_EDn
0000000000000000 r _ZStL13allocator_arg
0000000000000000 r _ZStL19piecewise_construct
0000000000000000 r _ZStL6ignore
0000000000000000 W _ZStneIN4bssl11hm_fragmentENS0_8internal7DeleterEEbRKSt10unique_ptrIT_T0_EDn
0000000000000000 W _ZStneIN4bssl13SSL_HANDSHAKEENS0_8internal7DeleterEEbRKSt10unique_ptrIT_T0_EDn
0000000000000000 r _ZZN4bssl18dtls1_next_messageEP6ssl_stE19__PRETTY_FUNCTION__
0000000000000000 r _ZZN4bssl20dtls1_open_handshakeEP6ssl_stPmPhNS_4SpanIhEEE19__PRETTY_FUNCTION__
0000000000000000 r _ZZN4bssl35dtls_has_unprocessed_handshake_dataEPK6ssl_stE19__PRETTY_FUNCTION__
0000000000000000 r _ZZN4bsslL12add_outgoingEP6ssl_stbNS_5ArrayIhEEE19__PRETTY_FUNCTION__
0000000000000000 r _ZZN4bsslL16dtls1_update_mtuEP6ssl_stE19__PRETTY_FUNCTION__
0000000000000000 r _ZZN4bsslL16seal_next_packetEP6ssl_stPhPmmE19__PRETTY_FUNCTION__
0000000000000000 r _ZZN4bsslL17seal_next_messageEP6ssl_stPhPmmPKNS_21DTLS_OUTGOING_MESSAGEEE17kChangeCipherSpec
0000000000000000 r _ZZN4bsslL17seal_next_messageEP6ssl_stPhPmmPKNS_21DTLS_OUTGOING_MESSAGEEE19__PRETTY_FUNCTION__
0000000000000000 r _ZZN4bsslL22dtls1_hm_fragment_markEPNS_11hm_fragmentEmmE19__PRETTY_FUNCTION__
0000000000000000 r _ZZN4bsslL26dtls1_get_incoming_messageEP6ssl_stPhPKNS_12hm_header_stEE19__PRETTY_FUNCTION__

d1_lib.cc.o:
                 U __assert_fail
                 U BIO_ctrl
0000000000000000 b .bss
0000000000000000 n .comment
0000000000000000 a d1_lib.cc
0000000000000000 d .data
0000000000000000 N .debug_abbrev
0000000000000000 N .debug_aranges
0000000000000000 N .debug_info
0000000000000000 N .debug_line
0000000000000000 N .debug_ranges
0000000000000000 N .debug_str
0000000000000000 T DTLSv1_get_timeout
0000000000000000 T DTLSv1_handle_timeout
0000000000000000 T DTLSv1_set_initial_timeout_duration
0000000000000000 r .eh_frame
                 U ERR_put_error
0000000000000000 n .group
0000000000000000 n .group
0000000000000000 n .group
0000000000000000 n .group
0000000000000000 n .group
0000000000000000 n .group
0000000000000000 n .group
0000000000000000 n .group
0000000000000000 n .group
0000000000000000 n .group
0000000000000000 n .group
0000000000000000 n .group
0000000000000000 n .group
0000000000000000 n .group
0000000000000000 n .group
0000000000000000 n .group
0000000000000000 n .group
0000000000000000 n .group
0000000000000000 n .group
0000000000000000 n .group
0000000000000000 n .group
0000000000000000 n .group
0000000000000000 n .group
0000000000000000 n .group
0000000000000000 n .group
0000000000000000 n .group
0000000000000000 n .group
0000000000000000 n .group
0000000000000000 n .group
0000000000000000 n .group
0000000000000000 n .group
0000000000000000 n .group
0000000000000000 n .group
0000000000000000 n .group
0000000000000000 n .group
0000000000000000 n .group
0000000000000000 n .group
0000000000000000 n .group
0000000000000000 n .group
0000000000000000 n .group
0000000000000000 n .group
0000000000000000 n .group
0000000000000000 n .group
0000000000000000 n .group
0000000000000000 n .group
0000000000000000 n .group
0000000000000000 n .group
0000000000000000 n .group
0000000000000000 n .group
0000000000000000 n .group
0000000000000000 n .group
0000000000000000 n .group
0000000000000000 n .group
0000000000000000 n .group
0000000000000000 n .group
0000000000000000 n .group
0000000000000000 n .group
0000000000000000 n .group
0000000000000000 n .group
0000000000000000 n .group
0000000000000000 n .group
0000000000000000 n .group
0000000000000000 n .group
0000000000000000 n .group
0000000000000000 n .group
0000000000000000 n .group
0000000000000000 n .group
0000000000000000 n .group
0000000000000000 n .group
0000000000000000 n .group
0000000000000000 n .group
0000000000000000 n .group
0000000000000000 n .group
0000000000000000 n .group
0000000000000000 n .group
                 U memcpy
                 U memset
0000000000000000 n .note.GNU-stack
                 U OPENSSL_free
                 U OPENSSL_malloc
0000000000000000 t OPENSSL_memcpy
0000000000000000 t OPENSSL_memset
0000000000000000 r .rodata
0000000000000000 r .rodata._ZN4bsslL11kMaxTicketsE
0000000000000000 r .rodata._ZN4bsslL21kMaxEarlyDataAcceptedE
0000000000000000 r .rodata._ZN9__gnu_cxxL21__default_lock_policyE
0000000000000000 r .rodata._ZStL13allocator_arg
0000000000000000 r .rodata._ZStL19piecewise_construct
0000000000000000 r .rodata._ZStL6ignore
0000000000000000 r .rodata._ZZ18DTLSv1_get_timeoutE19__PRETTY_FUNCTION__
                 U SSL_get_options
                 U SSL_is_dtls
0000000000000000 t .text
0000000000000000 t .text.DTLSv1_get_timeout
0000000000000000 t .text.DTLSv1_handle_timeout
0000000000000000 t .text.DTLSv1_set_initial_timeout_duration
0000000000000000 t .text.OPENSSL_memcpy
0000000000000000 t .text.OPENSSL_memset
0000000000000000 t .text._ZN4bssl10dtls1_freeEP6ssl_st
0000000000000000 t .text._ZN4bssl10MakeUniqueINS_11DTLS1_STATEEJEEESt10unique_ptrIT_NS_8internal7DeleterEEDpOT0_
0000000000000000 t .text._ZN4bssl11DTLS1_STATEC2Ev
0000000000000000 t .text._ZN4bssl11DTLS1_STATED2Ev
0000000000000000 t .text._ZN4bssl12DTLS1_BITMAPC2Ev
0000000000000000 t .text._ZN4bssl16dtls1_stop_timerEP6ssl_st
0000000000000000 t .text._ZN4bssl17dtls1_start_timerEP6ssl_st
0000000000000000 t .text._ZN4bssl21DTLS_OUTGOING_MESSAGEC2Ev
0000000000000000 t .text._ZN4bssl21DTLS_OUTGOING_MESSAGED2Ev
0000000000000000 t .text._ZN4bssl22dtls1_is_timer_expiredEP6ssl_st
0000000000000000 t .text._ZN4bssl23dtls1_check_timeout_numEP6ssl_st
0000000000000000 t .text._ZN4bssl3NewINS_11DTLS1_STATEEJEEEPT_DpOT0_
0000000000000000 t .text._ZN4bssl5ArrayIhE5ResetEPhm
0000000000000000 t .text._ZN4bssl5ArrayIhE5ResetEv
0000000000000000 t .text._ZN4bssl5ArrayIhEC2Ev
0000000000000000 t .text._ZN4bssl5ArrayIhED2Ev
0000000000000000 t .text._ZN4bssl6DeleteINS_11DTLS1_STATEEEEvPT_
0000000000000000 t .text._ZN4bssl6DeleteINS_11hm_fragmentEEEvPT_
0000000000000000 t .text._ZN4bssl6DeleteINS_14SSLAEADContextEEEvPT_
0000000000000000 t .text._ZN4bssl8internal11DeleterImplINS_11DTLS1_STATEEvE4FreeEPS2_
0000000000000000 t .text._ZN4bssl8internal11DeleterImplINS_11hm_fragmentEvE4FreeEPS2_
0000000000000000 t .text._ZN4bssl8internal11DeleterImplINS_14SSLAEADContextEvE4FreeEPS2_
0000000000000000 t .text._ZN4bssl8internal7DeleterclINS_11DTLS1_STATEEEEvPT_
0000000000000000 t .text._ZN4bssl8internal7DeleterclINS_11hm_fragmentEEEvPT_
0000000000000000 t .text._ZN4bssl8internal7DeleterclINS_14SSLAEADContextEEEvPT_
0000000000000000 t .text._ZN4bssl9dtls1_newEP6ssl_st
0000000000000000 t .text._ZN4bsslL20dtls1_double_timeoutEP6ssl_st
0000000000000000 t .text._ZNKSt10unique_ptrI6bio_stN4bssl8internal7DeleterEE3getEv
0000000000000000 t .text._ZNKSt10unique_ptrIN4bssl11DTLS1_STATEENS0_8internal7DeleterEE3getEv
0000000000000000 t .text._ZNKSt10unique_ptrIN4bssl11DTLS1_STATEENS0_8internal7DeleterEEcvbEv
0000000000000000 t .text._ZNKSt15__uniq_ptr_implI6bio_stN4bssl8internal7DeleterEE6_M_ptrEv
0000000000000000 t .text._ZNKSt15__uniq_ptr_implIN4bssl11DTLS1_STATEENS0_8internal7DeleterEE6_M_ptrEv
0000000000000000 t .text._ZNSt10_Head_baseILm0EP6bio_stLb0EE7_M_headERKS2_
0000000000000000 t .text._ZNSt10_Head_baseILm0EPN4bssl11DTLS1_STATEELb0EE7_M_headERKS3_
0000000000000000 t .text._ZNSt10_Head_baseILm0EPN4bssl11DTLS1_STATEELb0EE7_M_headERS3_
0000000000000000 t .text._ZNSt10_Head_baseILm0EPN4bssl11DTLS1_STATEELb0EEC2Ev
0000000000000000 t .text._ZNSt10_Head_baseILm0EPN4bssl11hm_fragmentELb0EE7_M_headERS3_
0000000000000000 t .text._ZNSt10_Head_baseILm0EPN4bssl14SSLAEADContextELb0EE7_M_headERS3_
0000000000000000 t .text._ZNSt10_Head_baseILm0EPN4bssl14SSLAEADContextELb0EEC2Ev
0000000000000000 t .text._ZNSt10_Head_baseILm1EN4bssl8internal7DeleterELb1EE7_M_headERS3_
0000000000000000 t .text._ZNSt10_Head_baseILm1EN4bssl8internal7DeleterELb1EEC2Ev
0000000000000000 t .text._ZNSt10unique_ptrIN4bssl11DTLS1_STATEENS0_8internal7DeleterEE11get_deleterEv
0000000000000000 t .text._ZNSt10unique_ptrIN4bssl11DTLS1_STATEENS0_8internal7DeleterEE7releaseEv
0000000000000000 t .text._ZNSt10unique_ptrIN4bssl11DTLS1_STATEENS0_8internal7DeleterEEC2IS3_vEEPS1_
0000000000000000 t .text._ZNSt10unique_ptrIN4bssl11DTLS1_STATEENS0_8internal7DeleterEED2Ev
0000000000000000 t .text._ZNSt10unique_ptrIN4bssl11hm_fragmentENS0_8internal7DeleterEE11get_deleterEv
0000000000000000 t .text._ZNSt10unique_ptrIN4bssl11hm_fragmentENS0_8internal7DeleterEED2Ev
0000000000000000 t .text._ZNSt10unique_ptrIN4bssl14SSLAEADContextENS0_8internal7DeleterEE11get_deleterEv
0000000000000000 t .text._ZNSt10unique_ptrIN4bssl14SSLAEADContextENS0_8internal7DeleterEEC2IS3_vEEv
0000000000000000 t .text._ZNSt10unique_ptrIN4bssl14SSLAEADContextENS0_8internal7DeleterEED2Ev
0000000000000000 t .text._ZNSt11_Tuple_implILm0EJP6bio_stN4bssl8internal7DeleterEEE7_M_headERKS5_
0000000000000000 t .text._ZNSt11_Tuple_implILm0EJPN4bssl11DTLS1_STATEENS0_8internal7DeleterEEE7_M_headERKS5_
0000000000000000 t .text._ZNSt11_Tuple_implILm0EJPN4bssl11DTLS1_STATEENS0_8internal7DeleterEEE7_M_headERS5_
0000000000000000 t .text._ZNSt11_Tuple_implILm0EJPN4bssl11DTLS1_STATEENS0_8internal7DeleterEEEC2Ev
0000000000000000 t .text._ZNSt11_Tuple_implILm0EJPN4bssl11hm_fragmentENS0_8internal7DeleterEEE7_M_headERS5_
0000000000000000 t .text._ZNSt11_Tuple_implILm0EJPN4bssl14SSLAEADContextENS0_8internal7DeleterEEE7_M_headERS5_
0000000000000000 t .text._ZNSt11_Tuple_implILm0EJPN4bssl14SSLAEADContextENS0_8internal7DeleterEEEC2Ev
0000000000000000 t .text._ZNSt11_Tuple_implILm1EJN4bssl8internal7DeleterEEE7_M_headERS3_
0000000000000000 t .text._ZNSt11_Tuple_implILm1EJN4bssl8internal7DeleterEEEC2Ev
0000000000000000 t .text._ZNSt15__uniq_ptr_implIN4bssl11DTLS1_STATEENS0_8internal7DeleterEE10_M_deleterEv
0000000000000000 t .text._ZNSt15__uniq_ptr_implIN4bssl11DTLS1_STATEENS0_8internal7DeleterEE6_M_ptrEv
0000000000000000 t .text._ZNSt15__uniq_ptr_implIN4bssl11DTLS1_STATEENS0_8internal7DeleterEEC2EPS1_
0000000000000000 t .text._ZNSt15__uniq_ptr_implIN4bssl11hm_fragmentENS0_8internal7DeleterEE10_M_deleterEv
0000000000000000 t .text._ZNSt15__uniq_ptr_implIN4bssl11hm_fragmentENS0_8internal7DeleterEE6_M_ptrEv
0000000000000000 t .text._ZNSt15__uniq_ptr_implIN4bssl14SSLAEADContextENS0_8internal7DeleterEE10_M_deleterEv
0000000000000000 t .text._ZNSt15__uniq_ptr_implIN4bssl14SSLAEADContextENS0_8internal7DeleterEE6_M_ptrEv
0000000000000000 t .text._ZNSt15__uniq_ptr_implIN4bssl14SSLAEADContextENS0_8internal7DeleterEEC2Ev
0000000000000000 t .text._ZNSt5tupleIJPN4bssl11DTLS1_STATEENS0_8internal7DeleterEEEC2IS2_S4_Lb1EEEv
0000000000000000 t .text._ZNSt5tupleIJPN4bssl14SSLAEADContextENS0_8internal7DeleterEEEC2IS2_S4_Lb1EEEv
0000000000000000 t .text._ZnwmPv
0000000000000000 t .text._ZSt12__get_helperILm0EP6bio_stJN4bssl8internal7DeleterEEERKT0_RKSt11_Tuple_implIXT_EJS5_DpT1_EE
0000000000000000 t .text._ZSt12__get_helperILm0EPN4bssl11DTLS1_STATEEJNS0_8internal7DeleterEEERKT0_RKSt11_Tuple_implIXT_EJS5_DpT1_EE
0000000000000000 t .text._ZSt12__get_helperILm0EPN4bssl11DTLS1_STATEEJNS0_8internal7DeleterEEERT0_RSt11_Tuple_implIXT_EJS5_DpT1_EE
0000000000000000 t .text._ZSt12__get_helperILm0EPN4bssl11hm_fragmentEJNS0_8internal7DeleterEEERT0_RSt11_Tuple_implIXT_EJS5_DpT1_EE
0000000000000000 t .text._ZSt12__get_helperILm0EPN4bssl14SSLAEADContextEJNS0_8internal7DeleterEEERT0_RSt11_Tuple_implIXT_EJS5_DpT1_EE
0000000000000000 t .text._ZSt12__get_helperILm1EN4bssl8internal7DeleterEJEERT0_RSt11_Tuple_implIXT_EJS3_DpT1_EE
0000000000000000 t .text._ZSt3getILm0EJP6bio_stN4bssl8internal7DeleterEEERKNSt13tuple_elementIXT_ESt5tupleIJDpT0_EEE4typeERKS9_
0000000000000000 t .text._ZSt3getILm0EJPN4bssl11DTLS1_STATEENS0_8internal7DeleterEEERKNSt13tuple_elementIXT_ESt5tupleIJDpT0_EEE4typeERKS9_
0000000000000000 t .text._ZSt3getILm0EJPN4bssl11DTLS1_STATEENS0_8internal7DeleterEEERNSt13tuple_elementIXT_ESt5tupleIJDpT0_EEE4typeERS9_
0000000000000000 t .text._ZSt3getILm0EJPN4bssl11hm_fragmentENS0_8internal7DeleterEEERNSt13tuple_elementIXT_ESt5tupleIJDpT0_EEE4typeERS9_
0000000000000000 t .text._ZSt3getILm0EJPN4bssl14SSLAEADContextENS0_8internal7DeleterEEERNSt13tuple_elementIXT_ESt5tupleIJDpT0_EEE4typeERS9_
0000000000000000 t .text._ZSt3getILm1EJPN4bssl11DTLS1_STATEENS0_8internal7DeleterEEERNSt13tuple_elementIXT_ESt5tupleIJDpT0_EEE4typeERS9_
0000000000000000 t .text._ZSt3getILm1EJPN4bssl11hm_fragmentENS0_8internal7DeleterEEERNSt13tuple_elementIXT_ESt5tupleIJDpT0_EEE4typeERS9_
0000000000000000 t .text._ZSt3getILm1EJPN4bssl14SSLAEADContextENS0_8internal7DeleterEEERNSt13tuple_elementIXT_ESt5tupleIJDpT0_EEE4typeERS9_
0000000000000000 T _ZN4bssl10dtls1_freeEP6ssl_st
0000000000000000 W _ZN4bssl10MakeUniqueINS_11DTLS1_STATEEJEEESt10unique_ptrIT_NS_8internal7DeleterEEDpOT0_
0000000000000000 T _ZN4bssl11DTLS1_STATEC1Ev
0000000000000000 T _ZN4bssl11DTLS1_STATEC2Ev
0000000000000000 T _ZN4bssl11DTLS1_STATED1Ev
0000000000000000 T _ZN4bssl11DTLS1_STATED2Ev
                 U _ZN4bssl11hm_fragmentD1Ev
0000000000000000 W _ZN4bssl12DTLS1_BITMAPC1Ev
0000000000000000 W _ZN4bssl12DTLS1_BITMAPC2Ev
0000000000000000 n _ZN4bssl12DTLS1_BITMAPC5Ev
                 U _ZN4bssl13dtls1_min_mtuEv
                 U _ZN4bssl14SSLAEADContextD1Ev
0000000000000000 T _ZN4bssl16dtls1_stop_timerEP6ssl_st
0000000000000000 T _ZN4bssl17dtls1_start_timerEP6ssl_st
                 U _ZN4bssl20ssl_get_current_timeEPK6ssl_stPNS_15OPENSSL_timevalE
0000000000000000 W _ZN4bssl21DTLS_OUTGOING_MESSAGEC1Ev
0000000000000000 W _ZN4bssl21DTLS_OUTGOING_MESSAGEC2Ev
0000000000000000 n _ZN4bssl21DTLS_OUTGOING_MESSAGEC5Ev
0000000000000000 W _ZN4bssl21DTLS_OUTGOING_MESSAGED1Ev
0000000000000000 W _ZN4bssl21DTLS_OUTGOING_MESSAGED2Ev
0000000000000000 n _ZN4bssl21DTLS_OUTGOING_MESSAGED5Ev
                 U _ZN4bssl21ssl_reset_error_stateEP6ssl_st
0000000000000000 T _ZN4bssl22dtls1_is_timer_expiredEP6ssl_st
0000000000000000 T _ZN4bssl23dtls1_check_timeout_numEP6ssl_st
                 U _ZN4bssl34dtls1_retransmit_outgoing_messagesEP6ssl_st
0000000000000000 W _ZN4bssl3NewINS_11DTLS1_STATEEJEEEPT_DpOT0_
0000000000000000 W _ZN4bssl5ArrayIhE5ResetEPhm
0000000000000000 W _ZN4bssl5ArrayIhE5ResetEv
0000000000000000 W _ZN4bssl5ArrayIhEC1Ev
0000000000000000 W _ZN4bssl5ArrayIhEC2Ev
0000000000000000 n _ZN4bssl5ArrayIhEC5Ev
0000000000000000 W _ZN4bssl5ArrayIhED1Ev
0000000000000000 W _ZN4bssl5ArrayIhED2Ev
0000000000000000 n _ZN4bssl5ArrayIhED5Ev
0000000000000000 W _ZN4bssl6DeleteINS_11DTLS1_STATEEEEvPT_
0000000000000000 W _ZN4bssl6DeleteINS_11hm_fragmentEEEvPT_
0000000000000000 W _ZN4bssl6DeleteINS_14SSLAEADContextEEEvPT_
                 U _ZN4bssl7tls_newEP6ssl_st
0000000000000000 W _ZN4bssl8internal11DeleterImplINS_11DTLS1_STATEEvE4FreeEPS2_
0000000000000000 W _ZN4bssl8internal11DeleterImplINS_11hm_fragmentEvE4FreeEPS2_
0000000000000000 W _ZN4bssl8internal11DeleterImplINS_14SSLAEADContextEvE4FreeEPS2_
0000000000000000 W _ZN4bssl8internal7DeleterclINS_11DTLS1_STATEEEEvPT_
0000000000000000 W _ZN4bssl8internal7DeleterclINS_11hm_fragmentEEEvPT_
0000000000000000 W _ZN4bssl8internal7DeleterclINS_14SSLAEADContextEEEvPT_
                 U _ZN4bssl8tls_freeEP6ssl_st
0000000000000000 T _ZN4bssl9dtls1_newEP6ssl_st
0000000000000000 r _ZN4bsslL11kMaxTicketsE
0000000000000000 t _ZN4bsslL20dtls1_double_timeoutEP6ssl_st
0000000000000000 r _ZN4bsslL21kMaxEarlyDataAcceptedE
0000000000000000 r _ZN9__gnu_cxxL21__default_lock_policyE
0000000000000000 W _ZNKSt10unique_ptrI6bio_stN4bssl8internal7DeleterEE3getEv
0000000000000000 W _ZNKSt10unique_ptrIN4bssl11DTLS1_STATEENS0_8internal7DeleterEE3getEv
0000000000000000 W _ZNKSt10unique_ptrIN4bssl11DTLS1_STATEENS0_8internal7DeleterEEcvbEv
0000000000000000 W _ZNKSt15__uniq_ptr_implI6bio_stN4bssl8internal7DeleterEE6_M_ptrEv
0000000000000000 W _ZNKSt15__uniq_ptr_implIN4bssl11DTLS1_STATEENS0_8internal7DeleterEE6_M_ptrEv
0000000000000000 W _ZNSt10_Head_baseILm0EP6bio_stLb0EE7_M_headERKS2_
0000000000000000 W _ZNSt10_Head_baseILm0EPN4bssl11DTLS1_STATEELb0EE7_M_headERKS3_
0000000000000000 W _ZNSt10_Head_baseILm0EPN4bssl11DTLS1_STATEELb0EE7_M_headERS3_
0000000000000000 W _ZNSt10_Head_baseILm0EPN4bssl11DTLS1_STATEELb0EEC1Ev
0000000000000000 W _ZNSt10_Head_baseILm0EPN4bssl11DTLS1_STATEELb0EEC2Ev
0000000000000000 n _ZNSt10_Head_baseILm0EPN4bssl11DTLS1_STATEELb0EEC5Ev
0000000000000000 W _ZNSt10_Head_baseILm0EPN4bssl11hm_fragmentELb0EE7_M_headERS3_
0000000000000000 W _ZNSt10_Head_baseILm0EPN4bssl14SSLAEADContextELb0EE7_M_headERS3_
0000000000000000 W _ZNSt10_Head_baseILm0EPN4bssl14SSLAEADContextELb0EEC1Ev
0000000000000000 W _ZNSt10_Head_baseILm0EPN4bssl14SSLAEADContextELb0EEC2Ev
0000000000000000 n _ZNSt10_Head_baseILm0EPN4bssl14SSLAEADContextELb0EEC5Ev
0000000000000000 W _ZNSt10_Head_baseILm1EN4bssl8internal7DeleterELb1EE7_M_headERS3_
0000000000000000 W _ZNSt10_Head_baseILm1EN4bssl8internal7DeleterELb1EEC1Ev
0000000000000000 W _ZNSt10_Head_baseILm1EN4bssl8internal7DeleterELb1EEC2Ev
0000000000000000 n _ZNSt10_Head_baseILm1EN4bssl8internal7DeleterELb1EEC5Ev
0000000000000000 W _ZNSt10unique_ptrIN4bssl11DTLS1_STATEENS0_8internal7DeleterEE11get_deleterEv
0000000000000000 W _ZNSt10unique_ptrIN4bssl11DTLS1_STATEENS0_8internal7DeleterEE7releaseEv
0000000000000000 W _ZNSt10unique_ptrIN4bssl11DTLS1_STATEENS0_8internal7DeleterEEC1IS3_vEEPS1_
0000000000000000 W _ZNSt10unique_ptrIN4bssl11DTLS1_STATEENS0_8internal7DeleterEEC2IS3_vEEPS1_
0000000000000000 n _ZNSt10unique_ptrIN4bssl11DTLS1_STATEENS0_8internal7DeleterEEC5IS3_vEEPS1_
0000000000000000 W _ZNSt10unique_ptrIN4bssl11DTLS1_STATEENS0_8internal7DeleterEED1Ev
0000000000000000 W _ZNSt10unique_ptrIN4bssl11DTLS1_STATEENS0_8internal7DeleterEED2Ev
0000000000000000 n _ZNSt10unique_ptrIN4bssl11DTLS1_STATEENS0_8internal7DeleterEED5Ev
0000000000000000 W _ZNSt10unique_ptrIN4bssl11hm_fragmentENS0_8internal7DeleterEE11get_deleterEv
0000000000000000 W _ZNSt10unique_ptrIN4bssl11hm_fragmentENS0_8internal7DeleterEED1Ev
0000000000000000 W _ZNSt10unique_ptrIN4bssl11hm_fragmentENS0_8internal7DeleterEED2Ev
0000000000000000 n _ZNSt10unique_ptrIN4bssl11hm_fragmentENS0_8internal7DeleterEED5Ev
0000000000000000 W _ZNSt10unique_ptrIN4bssl14SSLAEADContextENS0_8internal7DeleterEE11get_deleterEv
0000000000000000 W _ZNSt10unique_ptrIN4bssl14SSLAEADContextENS0_8internal7DeleterEEC1IS3_vEEv
0000000000000000 W _ZNSt10unique_ptrIN4bssl14SSLAEADContextENS0_8internal7DeleterEEC2IS3_vEEv
0000000000000000 n _ZNSt10unique_ptrIN4bssl14SSLAEADContextENS0_8internal7DeleterEEC5IS3_vEEv
0000000000000000 W _ZNSt10unique_ptrIN4bssl14SSLAEADContextENS0_8internal7DeleterEED1Ev
0000000000000000 W _ZNSt10unique_ptrIN4bssl14SSLAEADContextENS0_8internal7DeleterEED2Ev
0000000000000000 n _ZNSt10unique_ptrIN4bssl14SSLAEADContextENS0_8internal7DeleterEED5Ev
0000000000000000 W _ZNSt11_Tuple_implILm0EJP6bio_stN4bssl8internal7DeleterEEE7_M_headERKS5_
0000000000000000 W _ZNSt11_Tuple_implILm0EJPN4bssl11DTLS1_STATEENS0_8internal7DeleterEEE7_M_headERKS5_
0000000000000000 W _ZNSt11_Tuple_implILm0EJPN4bssl11DTLS1_STATEENS0_8internal7DeleterEEE7_M_headERS5_
0000000000000000 W _ZNSt11_Tuple_implILm0EJPN4bssl11DTLS1_STATEENS0_8internal7DeleterEEEC1Ev
0000000000000000 W _ZNSt11_Tuple_implILm0EJPN4bssl11DTLS1_STATEENS0_8internal7DeleterEEEC2Ev
0000000000000000 n _ZNSt11_Tuple_implILm0EJPN4bssl11DTLS1_STATEENS0_8internal7DeleterEEEC5Ev
0000000000000000 W _ZNSt11_Tuple_implILm0EJPN4bssl11hm_fragmentENS0_8internal7DeleterEEE7_M_headERS5_
0000000000000000 W _ZNSt11_Tuple_implILm0EJPN4bssl14SSLAEADContextENS0_8internal7DeleterEEE7_M_headERS5_
0000000000000000 W _ZNSt11_Tuple_implILm0EJPN4bssl14SSLAEADContextENS0_8internal7DeleterEEEC1Ev
0000000000000000 W _ZNSt11_Tuple_implILm0EJPN4bssl14SSLAEADContextENS0_8internal7DeleterEEEC2Ev
0000000000000000 n _ZNSt11_Tuple_implILm0EJPN4bssl14SSLAEADContextENS0_8internal7DeleterEEEC5Ev
0000000000000000 W _ZNSt11_Tuple_implILm1EJN4bssl8internal7DeleterEEE7_M_headERS3_
0000000000000000 W _ZNSt11_Tuple_implILm1EJN4bssl8internal7DeleterEEEC1Ev
0000000000000000 W _ZNSt11_Tuple_implILm1EJN4bssl8internal7DeleterEEEC2Ev
0000000000000000 n _ZNSt11_Tuple_implILm1EJN4bssl8internal7DeleterEEEC5Ev
0000000000000000 W _ZNSt15__uniq_ptr_implIN4bssl11DTLS1_STATEENS0_8internal7DeleterEE10_M_deleterEv
0000000000000000 W _ZNSt15__uniq_ptr_implIN4bssl11DTLS1_STATEENS0_8internal7DeleterEE6_M_ptrEv
0000000000000000 W _ZNSt15__uniq_ptr_implIN4bssl11DTLS1_STATEENS0_8internal7DeleterEEC1EPS1_
0000000000000000 W _ZNSt15__uniq_ptr_implIN4bssl11DTLS1_STATEENS0_8internal7DeleterEEC2EPS1_
0000000000000000 n _ZNSt15__uniq_ptr_implIN4bssl11DTLS1_STATEENS0_8internal7DeleterEEC5EPS1_
0000000000000000 W _ZNSt15__uniq_ptr_implIN4bssl11hm_fragmentENS0_8internal7DeleterEE10_M_deleterEv
0000000000000000 W _ZNSt15__uniq_ptr_implIN4bssl11hm_fragmentENS0_8internal7DeleterEE6_M_ptrEv
0000000000000000 W _ZNSt15__uniq_ptr_implIN4bssl14SSLAEADContextENS0_8internal7DeleterEE10_M_deleterEv
0000000000000000 W _ZNSt15__uniq_ptr_implIN4bssl14SSLAEADContextENS0_8internal7DeleterEE6_M_ptrEv
0000000000000000 W _ZNSt15__uniq_ptr_implIN4bssl14SSLAEADContextENS0_8internal7DeleterEEC1Ev
0000000000000000 W _ZNSt15__uniq_ptr_implIN4bssl14SSLAEADContextENS0_8internal7DeleterEEC2Ev
0000000000000000 n _ZNSt15__uniq_ptr_implIN4bssl14SSLAEADContextENS0_8internal7DeleterEEC5Ev
0000000000000000 W _ZNSt5tupleIJPN4bssl11DTLS1_STATEENS0_8internal7DeleterEEEC1IS2_S4_Lb1EEEv
0000000000000000 W _ZNSt5tupleIJPN4bssl11DTLS1_STATEENS0_8internal7DeleterEEEC2IS2_S4_Lb1EEEv
0000000000000000 n _ZNSt5tupleIJPN4bssl11DTLS1_STATEENS0_8internal7DeleterEEEC5IS2_S4_Lb1EEEv
0000000000000000 W _ZNSt5tupleIJPN4bssl14SSLAEADContextENS0_8internal7DeleterEEEC1IS2_S4_Lb1EEEv
0000000000000000 W _ZNSt5tupleIJPN4bssl14SSLAEADContextENS0_8internal7DeleterEEEC2IS2_S4_Lb1EEEv
0000000000000000 n _ZNSt5tupleIJPN4bssl14SSLAEADContextENS0_8internal7DeleterEEEC5IS2_S4_Lb1EEEv
0000000000000000 W _ZnwmPv
0000000000000000 W _ZSt12__get_helperILm0EP6bio_stJN4bssl8internal7DeleterEEERKT0_RKSt11_Tuple_implIXT_EJS5_DpT1_EE
0000000000000000 W _ZSt12__get_helperILm0EPN4bssl11DTLS1_STATEEJNS0_8internal7DeleterEEERKT0_RKSt11_Tuple_implIXT_EJS5_DpT1_EE
0000000000000000 W _ZSt12__get_helperILm0EPN4bssl11DTLS1_STATEEJNS0_8internal7DeleterEEERT0_RSt11_Tuple_implIXT_EJS5_DpT1_EE
0000000000000000 W _ZSt12__get_helperILm0EPN4bssl11hm_fragmentEJNS0_8internal7DeleterEEERT0_RSt11_Tuple_implIXT_EJS5_DpT1_EE
0000000000000000 W _ZSt12__get_helperILm0EPN4bssl14SSLAEADContextEJNS0_8internal7DeleterEEERT0_RSt11_Tuple_implIXT_EJS5_DpT1_EE
0000000000000000 W _ZSt12__get_helperILm1EN4bssl8internal7DeleterEJEERT0_RSt11_Tuple_implIXT_EJS3_DpT1_EE
0000000000000000 W _ZSt3getILm0EJP6bio_stN4bssl8internal7DeleterEEERKNSt13tuple_elementIXT_ESt5tupleIJDpT0_EEE4typeERKS9_
0000000000000000 W _ZSt3getILm0EJPN4bssl11DTLS1_STATEENS0_8internal7DeleterEEERKNSt13tuple_elementIXT_ESt5tupleIJDpT0_EEE4typeERKS9_
0000000000000000 W _ZSt3getILm0EJPN4bssl11DTLS1_STATEENS0_8internal7DeleterEEERNSt13tuple_elementIXT_ESt5tupleIJDpT0_EEE4typeERS9_
0000000000000000 W _ZSt3getILm0EJPN4bssl11hm_fragmentENS0_8internal7DeleterEEERNSt13tuple_elementIXT_ESt5tupleIJDpT0_EEE4typeERS9_
0000000000000000 W _ZSt3getILm0EJPN4bssl14SSLAEADContextENS0_8internal7DeleterEEERNSt13tuple_elementIXT_ESt5tupleIJDpT0_EEE4typeERS9_
0000000000000000 W _ZSt3getILm1EJPN4bssl11DTLS1_STATEENS0_8internal7DeleterEEERNSt13tuple_elementIXT_ESt5tupleIJDpT0_EEE4typeERS9_
0000000000000000 W _ZSt3getILm1EJPN4bssl11hm_fragmentENS0_8internal7DeleterEEERNSt13tuple_elementIXT_ESt5tupleIJDpT0_EEE4typeERS9_
0000000000000000 W _ZSt3getILm1EJPN4bssl14SSLAEADContextENS0_8internal7DeleterEEERNSt13tuple_elementIXT_ESt5tupleIJDpT0_EEE4typeERS9_
0000000000000000 r _ZStL13allocator_arg
0000000000000000 r _ZStL19piecewise_construct
0000000000000000 r _ZStL6ignore
0000000000000000 r _ZZ18DTLSv1_get_timeoutE19__PRETTY_FUNCTION__

d1_pkt.cc.o:
                 U __assert_fail
                 U BIO_flush
0000000000000000 b .bss
                 U CBS_init
0000000000000000 n .comment
0000000000000000 a d1_pkt.cc
0000000000000000 d .data
0000000000000000 N .debug_abbrev
0000000000000000 N .debug_aranges
0000000000000000 N .debug_info
0000000000000000 N .debug_line
0000000000000000 N .debug_ranges
0000000000000000 N .debug_str
0000000000000000 r .eh_frame
                 U ERR_put_error
0000000000000000 n .group
0000000000000000 n .group
0000000000000000 n .group
0000000000000000 n .group
0000000000000000 n .group
0000000000000000 n .group
0000000000000000 n .group
0000000000000000 n .group
0000000000000000 n .group
0000000000000000 n .group
0000000000000000 n .group
0000000000000000 n .group
0000000000000000 n .group
0000000000000000 n .group
0000000000000000 n .group
0000000000000000 n .group
0000000000000000 n .group
0000000000000000 n .group
0000000000000000 n .group
0000000000000000 n .group
0000000000000000 n .group
0000000000000000 n .note.GNU-stack
0000000000000000 r .rodata
0000000000000000 r .rodata._ZN4bsslL11kMaxTicketsE
0000000000000000 r .rodata._ZN4bsslL21kMaxEarlyDataAcceptedE
0000000000000000 r .rodata._ZN9__gnu_cxxL21__default_lock_policyE
0000000000000000 r .rodata._ZStL13allocator_arg
0000000000000000 r .rodata._ZStL19piecewise_construct
0000000000000000 r .rodata._ZStL6ignore
0000000000000000 r .rodata._ZZN4bssl18dtls1_write_recordEP6ssl_stiNS_4SpanIKhEENS_17dtls1_use_epoch_tEE19__PRETTY_FUNCTION__
0000000000000000 r .rodata._ZZN4bssl19dtls1_open_app_dataEP6ssl_stPNS_4SpanIhEEPmPhS3_E19__PRETTY_FUNCTION__
0000000000000000 r .rodata._ZZN4bssl20dtls1_write_app_dataEP6ssl_stPbPmNS_4SpanIKhEEE19__PRETTY_FUNCTION__
                 U SSL_in_init
                 U SSL_max_seal_overhead
0000000000000000 t .text
0000000000000000 t .text._ZN4bssl18dtls1_write_recordEP6ssl_stiNS_4SpanIKhEENS_17dtls1_use_epoch_tE
0000000000000000 t .text._ZN4bssl19dtls1_open_app_dataEP6ssl_stPNS_4SpanIhEEPmPhS3_
0000000000000000 t .text._ZN4bssl20dtls1_dispatch_alertEP6ssl_st
0000000000000000 t .text._ZN4bssl20dtls1_write_app_dataEP6ssl_stPbPmNS_4SpanIKhEE
0000000000000000 t .text._ZN4bssl4SpanIhEC1EPhm
0000000000000000 t .text._ZN4bssl4SpanIKhEC2EPS1_m
0000000000000000 t .text._ZN4bssl4SpanIKhEC2ILm2EEERAT__S1_
0000000000000000 t .text._ZN4bssl8MakeSpanIhEENS_4SpanIT_EEPS2_m
0000000000000000 t .text._ZN4bssl9SSLBuffer4dataEv
0000000000000000 t .text._ZN4bssl9SSLBuffer9remainingEv
0000000000000000 t .text._ZNK4bssl4SpanIhE4dataEv
0000000000000000 t .text._ZNK4bssl4SpanIhE4sizeEv
0000000000000000 t .text._ZNK4bssl4SpanIhE5emptyEv
0000000000000000 t .text._ZNK4bssl4SpanIKhE4dataEv
0000000000000000 t .text._ZNK4bssl4SpanIKhE4sizeEv
0000000000000000 t .text._ZNK4bssl4SpanIKhE5emptyEv
0000000000000000 t .text._ZNK4bssl9SSLBuffer3capEv
0000000000000000 t .text._ZNK4bssl9SSLBuffer4sizeEv
0000000000000000 t .text._ZNK4bssl9SSLBuffer5emptyEv
0000000000000000 t .text._ZNKSt10unique_ptrI6bio_stN4bssl8internal7DeleterEE3getEv
0000000000000000 t .text._ZNKSt15__uniq_ptr_implI6bio_stN4bssl8internal7DeleterEE6_M_ptrEv
0000000000000000 t .text._ZNSt10_Head_baseILm0EP6bio_stLb0EE7_M_headERKS2_
0000000000000000 t .text._ZNSt11_Tuple_implILm0EJP6bio_stN4bssl8internal7DeleterEEE7_M_headERKS5_
0000000000000000 t .text._ZSt12__get_helperILm0EP6bio_stJN4bssl8internal7DeleterEEERKT0_RKSt11_Tuple_implIXT_EJS5_DpT1_EE
0000000000000000 t .text._ZSt3getILm0EJP6bio_stN4bssl8internal7DeleterEEERKNSt13tuple_elementIXT_ESt5tupleIJDpT0_EEE4typeERKS9_
                 U _ZN4bssl16dtls_open_recordEP6ssl_stPhPNS_4SpanIhEEPmS2_S4_
                 U _ZN4bssl16dtls_seal_recordEP6ssl_stPhPmmhPKhmNS_17dtls1_use_epoch_tE
0000000000000000 T _ZN4bssl18dtls1_write_recordEP6ssl_stiNS_4SpanIKhEENS_17dtls1_use_epoch_tE
0000000000000000 T _ZN4bssl19dtls1_open_app_dataEP6ssl_stPNS_4SpanIhEEPmPhS3_
                 U _ZN4bssl19ssl_do_msg_callbackEPK6ssl_stiiNS_4SpanIKhEE
0000000000000000 T _ZN4bssl20dtls1_dispatch_alertEP6ssl_st
                 U _ZN4bssl20dtls1_parse_fragmentEP6cbs_stPNS_12hm_header_stES1_
0000000000000000 T _ZN4bssl20dtls1_write_app_dataEP6ssl_stPbPmNS_4SpanIKhEE
                 U _ZN4bssl20ssl_do_info_callbackEPK6ssl_stii
                 U _ZN4bssl22ssl_write_buffer_flushEP6ssl_st
                 U _ZN4bssl23dtls1_check_timeout_numEP6ssl_st
                 U _ZN4bssl25ssl_seal_align_prefix_lenEPK6ssl_st
                 U _ZN4bssl34dtls1_retransmit_outgoing_messagesEP6ssl_st
0000000000000000 W _ZN4bssl4SpanIhEC1EPhm
0000000000000000 W _ZN4bssl4SpanIKhEC1EPS1_m
0000000000000000 W _ZN4bssl4SpanIKhEC1ILm2EEERAT__S1_
0000000000000000 W _ZN4bssl4SpanIKhEC2EPS1_m
0000000000000000 W _ZN4bssl4SpanIKhEC2ILm2EEERAT__S1_
0000000000000000 n _ZN4bssl4SpanIKhEC5EPS1_m
0000000000000000 n _ZN4bssl4SpanIKhEC5ILm2EEERAT__S1_
0000000000000000 W _ZN4bssl8MakeSpanIhEENS_4SpanIT_EEPS2_m
0000000000000000 W _ZN4bssl9SSLBuffer4dataEv
                 U _ZN4bssl9SSLBuffer5ClearEv
                 U _ZN4bssl9SSLBuffer8DidWriteEm
                 U _ZN4bssl9SSLBuffer9EnsureCapEmm
0000000000000000 W _ZN4bssl9SSLBuffer9remainingEv
0000000000000000 r _ZN4bsslL11kMaxTicketsE
0000000000000000 r _ZN4bsslL21kMaxEarlyDataAcceptedE
0000000000000000 r _ZN9__gnu_cxxL21__default_lock_policyE
0000000000000000 W _ZNK4bssl4SpanIhE4dataEv
0000000000000000 W _ZNK4bssl4SpanIhE4sizeEv
0000000000000000 W _ZNK4bssl4SpanIhE5emptyEv
0000000000000000 W _ZNK4bssl4SpanIKhE4dataEv
0000000000000000 W _ZNK4bssl4SpanIKhE4sizeEv
0000000000000000 W _ZNK4bssl4SpanIKhE5emptyEv
0000000000000000 W _ZNK4bssl9SSLBuffer3capEv
0000000000000000 W _ZNK4bssl9SSLBuffer4sizeEv
0000000000000000 W _ZNK4bssl9SSLBuffer5emptyEv
0000000000000000 W _ZNKSt10unique_ptrI6bio_stN4bssl8internal7DeleterEE3getEv
0000000000000000 W _ZNKSt15__uniq_ptr_implI6bio_stN4bssl8internal7DeleterEE6_M_ptrEv
0000000000000000 W _ZNSt10_Head_baseILm0EP6bio_stLb0EE7_M_headERKS2_
0000000000000000 W _ZNSt11_Tuple_implILm0EJP6bio_stN4bssl8internal7DeleterEEE7_M_headERKS5_
0000000000000000 W _ZSt12__get_helperILm0EP6bio_stJN4bssl8internal7DeleterEEERKT0_RKSt11_Tuple_implIXT_EJS5_DpT1_EE
0000000000000000 W _ZSt3getILm0EJP6bio_stN4bssl8internal7DeleterEEERKNSt13tuple_elementIXT_ESt5tupleIJDpT0_EEE4typeERKS9_
0000000000000000 r _ZStL13allocator_arg
0000000000000000 r _ZStL19piecewise_construct
0000000000000000 r _ZStL6ignore
0000000000000000 r _ZZN4bssl18dtls1_write_recordEP6ssl_stiNS_4SpanIKhEENS_17dtls1_use_epoch_tEE19__PRETTY_FUNCTION__
0000000000000000 r _ZZN4bssl19dtls1_open_app_dataEP6ssl_stPNS_4SpanIhEEPmPhS3_E19__PRETTY_FUNCTION__
0000000000000000 r _ZZN4bssl20dtls1_write_app_dataEP6ssl_stPbPmNS_4SpanIKhEEE19__PRETTY_FUNCTION__

d1_srtp.cc.o:
                 U __assert_fail
0000000000000000 b .bss
0000000000000000 n .comment
0000000000000000 a d1_srtp.cc
0000000000000000 d .data
0000000000000000 d .data.rel.ro.local._ZL13kSRTPProfiles
0000000000000000 N .debug_abbrev
0000000000000000 N .debug_aranges
0000000000000000 N .debug_info
0000000000000000 N .debug_line
0000000000000000 N .debug_ranges
0000000000000000 N .debug_str
0000000000000000 r .eh_frame
                 U ERR_put_error
0000000000000000 n .group
0000000000000000 n .group
0000000000000000 n .group
0000000000000000 n .group
0000000000000000 n .group
0000000000000000 n .group
0000000000000000 n .group
0000000000000000 n .group
0000000000000000 n .group
0000000000000000 n .group
0000000000000000 n .group
0000000000000000 n .group
0000000000000000 n .group
0000000000000000 n .group
0000000000000000 n .group
0000000000000000 n .group
0000000000000000 n .group
0000000000000000 n .group
0000000000000000 n .group
0000000000000000 n .group
0000000000000000 n .group
0000000000000000 n .group
0000000000000000 n .group
0000000000000000 n .group
0000000000000000 n .group
0000000000000000 n .group
0000000000000000 n .group
0000000000000000 n .group
0000000000000000 n .group
0000000000000000 n .group
0000000000000000 n .group
0000000000000000 n .group
0000000000000000 n .group
0000000000000000 n .group
0000000000000000 n .group
0000000000000000 n .group
0000000000000000 n .group
0000000000000000 n .group
0000000000000000 n .group
0000000000000000 n .group
0000000000000000 n .group
0000000000000000 n .group
0000000000000000 n .group
0000000000000000 n .group
0000000000000000 n .group
0000000000000000 n .group
0000000000000000 n .group
0000000000000000 n .group
0000000000000000 n .group
0000000000000000 n .group
0000000000000000 n .group
0000000000000000 n .group
0000000000000000 n .group
0000000000000000 n .group
0000000000000000 n .group
0000000000000000 n .group
0000000000000000 n .note.GNU-stack
0000000000000000 r .rodata
0000000000000000 r .rodata._ZN4bsslL11kMaxTicketsE
0000000000000000 r .rodata._ZN4bsslL21kMaxEarlyDataAcceptedE
0000000000000000 r .rodata._ZN9__gnu_cxxL21__default_lock_policyE
0000000000000000 r .rodata._ZStL13allocator_arg
0000000000000000 r .rodata._ZStL19piecewise_construct
0000000000000000 r .rodata._ZStL6ignore
0000000000000000 r .rodata._ZZ21SSL_get_srtp_profilesE19__PRETTY_FUNCTION__
                 U sk_free
                 U sk_new_null
                 U sk_push
0000000000000000 W sk_SRTP_PROTECTION_PROFILE_new_null
0000000000000000 W sk_SRTP_PROTECTION_PROFILE_push
0000000000000000 T SSL_CTX_set_srtp_profiles
0000000000000000 T SSL_CTX_set_tlsext_use_srtp
0000000000000000 T SSL_get_selected_srtp_profile
0000000000000000 T SSL_get_srtp_profiles
0000000000000000 T SSL_set_srtp_profiles
0000000000000000 T SSL_set_tlsext_use_srtp
                 U strchr
                 U strlen
                 U strncmp
0000000000000000 t .text
0000000000000000 t .text.sk_SRTP_PROTECTION_PROFILE_new_null
0000000000000000 t .text.sk_SRTP_PROTECTION_PROFILE_push
0000000000000000 t .text.SSL_CTX_set_srtp_profiles
0000000000000000 t .text.SSL_CTX_set_tlsext_use_srtp
0000000000000000 t .text.SSL_get_selected_srtp_profile
0000000000000000 t .text.SSL_get_srtp_profiles
0000000000000000 t .text.SSL_set_srtp_profiles
0000000000000000 t .text.SSL_set_tlsext_use_srtp
0000000000000000 t .text._ZL20find_profile_by_namePKcPPK26srtp_protection_profile_stm
0000000000000000 t .text._ZL21ssl_ctx_make_profilesPKcPSt10unique_ptrI32stack_st_SRTP_PROTECTION_PROFILEN4bssl8internal7DeleterEE
0000000000000000 t .text._ZN4bssl8internal11DeleterImplI32stack_st_SRTP_PROTECTION_PROFILEvE4FreeEPS2_
0000000000000000 t .text._ZN4bssl8internal7DeleterclI32stack_st_SRTP_PROTECTION_PROFILEEEvPT_
0000000000000000 t .text._ZNKSt10unique_ptrI10ssl_ctx_stN4bssl8internal7DeleterEE3getEv
0000000000000000 t .text._ZNKSt10unique_ptrI10ssl_ctx_stN4bssl8internal7DeleterEEptEv
0000000000000000 t .text._ZNKSt10unique_ptrI32stack_st_SRTP_PROTECTION_PROFILEN4bssl8internal7DeleterEE3getEv
0000000000000000 t .text._ZNKSt10unique_ptrI32stack_st_SRTP_PROTECTION_PROFILEN4bssl8internal7DeleterEEcvbEv
0000000000000000 t .text._ZNKSt10unique_ptrIN4bssl10SSL_CONFIGENS0_8internal7DeleterEE3getEv
0000000000000000 t .text._ZNKSt10unique_ptrIN4bssl10SSL_CONFIGENS0_8internal7DeleterEEcvbEv
0000000000000000 t .text._ZNKSt10unique_ptrIN4bssl10SSL_CONFIGENS0_8internal7DeleterEEptEv
0000000000000000 t .text._ZNKSt15__uniq_ptr_implI10ssl_ctx_stN4bssl8internal7DeleterEE6_M_ptrEv
0000000000000000 t .text._ZNKSt15__uniq_ptr_implI32stack_st_SRTP_PROTECTION_PROFILEN4bssl8internal7DeleterEE6_M_ptrEv
0000000000000000 t .text._ZNKSt15__uniq_ptr_implIN4bssl10SSL_CONFIGENS0_8internal7DeleterEE6_M_ptrEv
0000000000000000 t .text._ZNSt10_Head_baseILm0EP10ssl_ctx_stLb0EE7_M_headERKS2_
0000000000000000 t .text._ZNSt10_Head_baseILm0EP32stack_st_SRTP_PROTECTION_PROFILELb0EE7_M_headERKS2_
0000000000000000 t .text._ZNSt10_Head_baseILm0EP32stack_st_SRTP_PROTECTION_PROFILELb0EE7_M_headERS2_
0000000000000000 t .text._ZNSt10_Head_baseILm0EP32stack_st_SRTP_PROTECTION_PROFILELb0EEC2Ev
0000000000000000 t .text._ZNSt10_Head_baseILm0EPN4bssl10SSL_CONFIGELb0EE7_M_headERKS3_
0000000000000000 t .text._ZNSt10_Head_baseILm1EN4bssl8internal7DeleterELb1EE7_M_headERS3_
0000000000000000 t .text._ZNSt10_Head_baseILm1EN4bssl8internal7DeleterELb1EEC2Ev
0000000000000000 t .text._ZNSt10unique_ptrI32stack_st_SRTP_PROTECTION_PROFILEN4bssl8internal7DeleterEE11get_deleterEv
0000000000000000 t .text._ZNSt10unique_ptrI32stack_st_SRTP_PROTECTION_PROFILEN4bssl8internal7DeleterEE5resetEPS0_
0000000000000000 t .text._ZNSt10unique_ptrI32stack_st_SRTP_PROTECTION_PROFILEN4bssl8internal7DeleterEE7releaseEv
0000000000000000 t .text._ZNSt10unique_ptrI32stack_st_SRTP_PROTECTION_PROFILEN4bssl8internal7DeleterEEaSEOS4_
0000000000000000 t .text._ZNSt10unique_ptrI32stack_st_SRTP_PROTECTION_PROFILEN4bssl8internal7DeleterEEC2IS3_vEEPS0_
0000000000000000 t .text._ZNSt10unique_ptrI32stack_st_SRTP_PROTECTION_PROFILEN4bssl8internal7DeleterEED2Ev
0000000000000000 t .text._ZNSt11_Tuple_implILm0EJP10ssl_ctx_stN4bssl8internal7DeleterEEE7_M_headERKS5_
0000000000000000 t .text._ZNSt11_Tuple_implILm0EJP32stack_st_SRTP_PROTECTION_PROFILEN4bssl8internal7DeleterEEE7_M_headERKS5_
0000000000000000 t .text._ZNSt11_Tuple_implILm0EJP32stack_st_SRTP_PROTECTION_PROFILEN4bssl8internal7DeleterEEE7_M_headERS5_
0000000000000000 t .text._ZNSt11_Tuple_implILm0EJP32stack_st_SRTP_PROTECTION_PROFILEN4bssl8internal7DeleterEEEC2Ev
0000000000000000 t .text._ZNSt11_Tuple_implILm0EJPN4bssl10SSL_CONFIGENS0_8internal7DeleterEEE7_M_headERKS5_
0000000000000000 t .text._ZNSt11_Tuple_implILm1EJN4bssl8internal7DeleterEEE7_M_headERS3_
0000000000000000 t .text._ZNSt11_Tuple_implILm1EJN4bssl8internal7DeleterEEEC2Ev
0000000000000000 t .text._ZNSt15__uniq_ptr_implI32stack_st_SRTP_PROTECTION_PROFILEN4bssl8internal7DeleterEE10_M_deleterEv
0000000000000000 t .text._ZNSt15__uniq_ptr_implI32stack_st_SRTP_PROTECTION_PROFILEN4bssl8internal7DeleterEE6_M_ptrEv
0000000000000000 t .text._ZNSt15__uniq_ptr_implI32stack_st_SRTP_PROTECTION_PROFILEN4bssl8internal7DeleterEEC2EPS0_
0000000000000000 t .text._ZNSt5tupleIJP32stack_st_SRTP_PROTECTION_PROFILEN4bssl8internal7DeleterEEEC2IS1_S4_Lb1EEEv
0000000000000000 t .text._ZSt12__get_helperILm0EP10ssl_ctx_stJN4bssl8internal7DeleterEEERKT0_RKSt11_Tuple_implIXT_EJS5_DpT1_EE
0000000000000000 t .text._ZSt12__get_helperILm0EP32stack_st_SRTP_PROTECTION_PROFILEJN4bssl8internal7DeleterEEERKT0_RKSt11_Tuple_implIXT_EJS5_DpT1_EE
0000000000000000 t .text._ZSt12__get_helperILm0EP32stack_st_SRTP_PROTECTION_PROFILEJN4bssl8internal7DeleterEEERT0_RSt11_Tuple_implIXT_EJS5_DpT1_EE
0000000000000000 t .text._ZSt12__get_helperILm0EPN4bssl10SSL_CONFIGEJNS0_8internal7DeleterEEERKT0_RKSt11_Tuple_implIXT_EJS5_DpT1_EE
0000000000000000 t .text._ZSt12__get_helperILm1EN4bssl8internal7DeleterEJEERT0_RSt11_Tuple_implIXT_EJS3_DpT1_EE
0000000000000000 t .text._ZSt3getILm0EJP10ssl_ctx_stN4bssl8internal7DeleterEEERKNSt13tuple_elementIXT_ESt5tupleIJDpT0_EEE4typeERKS9_
0000000000000000 t .text._ZSt3getILm0EJP32stack_st_SRTP_PROTECTION_PROFILEN4bssl8internal7DeleterEEERKNSt13tuple_elementIXT_ESt5tupleIJDpT0_EEE4typeERKS9_
0000000000000000 t .text._ZSt3getILm0EJP32stack_st_SRTP_PROTECTION_PROFILEN4bssl8internal7DeleterEEERNSt13tuple_elementIXT_ESt5tupleIJDpT0_EEE4typeERS9_
0000000000000000 t .text._ZSt3getILm0EJPN4bssl10SSL_CONFIGENS0_8internal7DeleterEEERKNSt13tuple_elementIXT_ESt5tupleIJDpT0_EEE4typeERKS9_
0000000000000000 t .text._ZSt3getILm1EJP32stack_st_SRTP_PROTECTION_PROFILEN4bssl8internal7DeleterEEERNSt13tuple_elementIXT_ESt5tupleIJDpT0_EEE4typeERS9_
0000000000000000 t .text._ZSt4moveIRP32stack_st_SRTP_PROTECTION_PROFILEEONSt16remove_referenceIT_E4typeEOS4_
0000000000000000 t .text._ZSt4moveIRSt10unique_ptrI32stack_st_SRTP_PROTECTION_PROFILEN4bssl8internal7DeleterEEEONSt16remove_referenceIT_E4typeEOS8_
0000000000000000 t .text._ZSt4swapIP32stack_st_SRTP_PROTECTION_PROFILEENSt9enable_ifIXsrSt6__and_IJSt6__not_ISt15__is_tuple_likeIT_EESt21is_move_constructibleIS6_ESt18is_move_assignableIS6_EEE5valueEvE4typeERS6_SG_
0000000000000000 t .text._ZSt7forwardIN4bssl8internal7DeleterEEOT_RNSt16remove_referenceIS3_E4typeE
0000000000000000 t .text._ZSteqI32stack_st_SRTP_PROTECTION_PROFILEN4bssl8internal7DeleterEEbRKSt10unique_ptrIT_T0_EDn
0000000000000000 t .text._ZSteqIN4bssl10SSL_CONFIGENS0_8internal7DeleterEEbRKSt10unique_ptrIT_T0_EDn
0000000000000000 t .text._ZStneI32stack_st_SRTP_PROTECTION_PROFILEN4bssl8internal7DeleterEEbRKSt10unique_ptrIT_T0_EDn
0000000000000000 t .text._ZStneIN4bssl10SSL_CONFIGENS0_8internal7DeleterEEbRKSt10unique_ptrIT_T0_EDn
0000000000000000 d _ZL13kSRTPProfiles
0000000000000000 t _ZL20find_profile_by_namePKcPPK26srtp_protection_profile_stm
0000000000000000 t _ZL21ssl_ctx_make_profilesPKcPSt10unique_ptrI32stack_st_SRTP_PROTECTION_PROFILEN4bssl8internal7DeleterEE
0000000000000000 W _ZN4bssl8internal11DeleterImplI32stack_st_SRTP_PROTECTION_PROFILEvE4FreeEPS2_
0000000000000000 W _ZN4bssl8internal7DeleterclI32stack_st_SRTP_PROTECTION_PROFILEEEvPT_
0000000000000000 r _ZN4bsslL11kMaxTicketsE
0000000000000000 r _ZN4bsslL21kMaxEarlyDataAcceptedE
0000000000000000 r _ZN9__gnu_cxxL21__default_lock_policyE
0000000000000000 W _ZNKSt10unique_ptrI10ssl_ctx_stN4bssl8internal7DeleterEE3getEv
0000000000000000 W _ZNKSt10unique_ptrI10ssl_ctx_stN4bssl8internal7DeleterEEptEv
0000000000000000 W _ZNKSt10unique_ptrI32stack_st_SRTP_PROTECTION_PROFILEN4bssl8internal7DeleterEE3getEv
0000000000000000 W _ZNKSt10unique_ptrI32stack_st_SRTP_PROTECTION_PROFILEN4bssl8internal7DeleterEEcvbEv
0000000000000000 W _ZNKSt10unique_ptrIN4bssl10SSL_CONFIGENS0_8internal7DeleterEE3getEv
0000000000000000 W _ZNKSt10unique_ptrIN4bssl10SSL_CONFIGENS0_8internal7DeleterEEcvbEv
0000000000000000 W _ZNKSt10unique_ptrIN4bssl10SSL_CONFIGENS0_8internal7DeleterEEptEv
0000000000000000 W _ZNKSt15__uniq_ptr_implI10ssl_ctx_stN4bssl8internal7DeleterEE6_M_ptrEv
0000000000000000 W _ZNKSt15__uniq_ptr_implI32stack_st_SRTP_PROTECTION_PROFILEN4bssl8internal7DeleterEE6_M_ptrEv
0000000000000000 W _ZNKSt15__uniq_ptr_implIN4bssl10SSL_CONFIGENS0_8internal7DeleterEE6_M_ptrEv
0000000000000000 W _ZNSt10_Head_baseILm0EP10ssl_ctx_stLb0EE7_M_headERKS2_
0000000000000000 W _ZNSt10_Head_baseILm0EP32stack_st_SRTP_PROTECTION_PROFILELb0EE7_M_headERKS2_
0000000000000000 W _ZNSt10_Head_baseILm0EP32stack_st_SRTP_PROTECTION_PROFILELb0EE7_M_headERS2_
0000000000000000 W _ZNSt10_Head_baseILm0EP32stack_st_SRTP_PROTECTION_PROFILELb0EEC1Ev
0000000000000000 W _ZNSt10_Head_baseILm0EP32stack_st_SRTP_PROTECTION_PROFILELb0EEC2Ev
0000000000000000 n _ZNSt10_Head_baseILm0EP32stack_st_SRTP_PROTECTION_PROFILELb0EEC5Ev
0000000000000000 W _ZNSt10_Head_baseILm0EPN4bssl10SSL_CONFIGELb0EE7_M_headERKS3_
0000000000000000 W _ZNSt10_Head_baseILm1EN4bssl8internal7DeleterELb1EE7_M_headERS3_
0000000000000000 W _ZNSt10_Head_baseILm1EN4bssl8internal7DeleterELb1EEC1Ev
0000000000000000 W _ZNSt10_Head_baseILm1EN4bssl8internal7DeleterELb1EEC2Ev
0000000000000000 n _ZNSt10_Head_baseILm1EN4bssl8internal7DeleterELb1EEC5Ev
0000000000000000 W _ZNSt10unique_ptrI32stack_st_SRTP_PROTECTION_PROFILEN4bssl8internal7DeleterEE11get_deleterEv
0000000000000000 W _ZNSt10unique_ptrI32stack_st_SRTP_PROTECTION_PROFILEN4bssl8internal7DeleterEE5resetEPS0_
0000000000000000 W _ZNSt10unique_ptrI32stack_st_SRTP_PROTECTION_PROFILEN4bssl8internal7DeleterEE7releaseEv
0000000000000000 W _ZNSt10unique_ptrI32stack_st_SRTP_PROTECTION_PROFILEN4bssl8internal7DeleterEEaSEOS4_
0000000000000000 W _ZNSt10unique_ptrI32stack_st_SRTP_PROTECTION_PROFILEN4bssl8internal7DeleterEEC1IS3_vEEPS0_
0000000000000000 W _ZNSt10unique_ptrI32stack_st_SRTP_PROTECTION_PROFILEN4bssl8internal7DeleterEEC2IS3_vEEPS0_
0000000000000000 n _ZNSt10unique_ptrI32stack_st_SRTP_PROTECTION_PROFILEN4bssl8internal7DeleterEEC5IS3_vEEPS0_
0000000000000000 W _ZNSt10unique_ptrI32stack_st_SRTP_PROTECTION_PROFILEN4bssl8internal7DeleterEED1Ev
0000000000000000 W _ZNSt10unique_ptrI32stack_st_SRTP_PROTECTION_PROFILEN4bssl8internal7DeleterEED2Ev
0000000000000000 n _ZNSt10unique_ptrI32stack_st_SRTP_PROTECTION_PROFILEN4bssl8internal7DeleterEED5Ev
0000000000000000 W _ZNSt11_Tuple_implILm0EJP10ssl_ctx_stN4bssl8internal7DeleterEEE7_M_headERKS5_
0000000000000000 W _ZNSt11_Tuple_implILm0EJP32stack_st_SRTP_PROTECTION_PROFILEN4bssl8internal7DeleterEEE7_M_headERKS5_
0000000000000000 W _ZNSt11_Tuple_implILm0EJP32stack_st_SRTP_PROTECTION_PROFILEN4bssl8internal7DeleterEEE7_M_headERS5_
0000000000000000 W _ZNSt11_Tuple_implILm0EJP32stack_st_SRTP_PROTECTION_PROFILEN4bssl8internal7DeleterEEEC1Ev
0000000000000000 W _ZNSt11_Tuple_implILm0EJP32stack_st_SRTP_PROTECTION_PROFILEN4bssl8internal7DeleterEEEC2Ev
0000000000000000 n _ZNSt11_Tuple_implILm0EJP32stack_st_SRTP_PROTECTION_PROFILEN4bssl8internal7DeleterEEEC5Ev
0000000000000000 W _ZNSt11_Tuple_implILm0EJPN4bssl10SSL_CONFIGENS0_8internal7DeleterEEE7_M_headERKS5_
0000000000000000 W _ZNSt11_Tuple_implILm1EJN4bssl8internal7DeleterEEE7_M_headERS3_
0000000000000000 W _ZNSt11_Tuple_implILm1EJN4bssl8internal7DeleterEEEC1Ev
0000000000000000 W _ZNSt11_Tuple_implILm1EJN4bssl8internal7DeleterEEEC2Ev
0000000000000000 n _ZNSt11_Tuple_implILm1EJN4bssl8internal7DeleterEEEC5Ev
0000000000000000 W _ZNSt15__uniq_ptr_implI32stack_st_SRTP_PROTECTION_PROFILEN4bssl8internal7DeleterEE10_M_deleterEv
0000000000000000 W _ZNSt15__uniq_ptr_implI32stack_st_SRTP_PROTECTION_PROFILEN4bssl8internal7DeleterEE6_M_ptrEv
0000000000000000 W _ZNSt15__uniq_ptr_implI32stack_st_SRTP_PROTECTION_PROFILEN4bssl8internal7DeleterEEC1EPS0_
0000000000000000 W _ZNSt15__uniq_ptr_implI32stack_st_SRTP_PROTECTION_PROFILEN4bssl8internal7DeleterEEC2EPS0_
0000000000000000 n _ZNSt15__uniq_ptr_implI32stack_st_SRTP_PROTECTION_PROFILEN4bssl8internal7DeleterEEC5EPS0_
0000000000000000 W _ZNSt5tupleIJP32stack_st_SRTP_PROTECTION_PROFILEN4bssl8internal7DeleterEEEC1IS1_S4_Lb1EEEv
0000000000000000 W _ZNSt5tupleIJP32stack_st_SRTP_PROTECTION_PROFILEN4bssl8internal7DeleterEEEC2IS1_S4_Lb1EEEv
0000000000000000 n _ZNSt5tupleIJP32stack_st_SRTP_PROTECTION_PROFILEN4bssl8internal7DeleterEEEC5IS1_S4_Lb1EEEv
0000000000000000 W _ZSt12__get_helperILm0EP10ssl_ctx_stJN4bssl8internal7DeleterEEERKT0_RKSt11_Tuple_implIXT_EJS5_DpT1_EE
0000000000000000 W _ZSt12__get_helperILm0EP32stack_st_SRTP_PROTECTION_PROFILEJN4bssl8internal7DeleterEEERKT0_RKSt11_Tuple_implIXT_EJS5_DpT1_EE
0000000000000000 W _ZSt12__get_helperILm0EP32stack_st_SRTP_PROTECTION_PROFILEJN4bssl8internal7DeleterEEERT0_RSt11_Tuple_implIXT_EJS5_DpT1_EE
0000000000000000 W _ZSt12__get_helperILm0EPN4bssl10SSL_CONFIGEJNS0_8internal7DeleterEEERKT0_RKSt11_Tuple_implIXT_EJS5_DpT1_EE
0000000000000000 W _ZSt12__get_helperILm1EN4bssl8internal7DeleterEJEERT0_RSt11_Tuple_implIXT_EJS3_DpT1_EE
0000000000000000 W _ZSt3getILm0EJP10ssl_ctx_stN4bssl8internal7DeleterEEERKNSt13tuple_elementIXT_ESt5tupleIJDpT0_EEE4typeERKS9_
0000000000000000 W _ZSt3getILm0EJP32stack_st_SRTP_PROTECTION_PROFILEN4bssl8internal7DeleterEEERKNSt13tuple_elementIXT_ESt5tupleIJDpT0_EEE4typeERKS9_
0000000000000000 W _ZSt3getILm0EJP32stack_st_SRTP_PROTECTION_PROFILEN4bssl8internal7DeleterEEERNSt13tuple_elementIXT_ESt5tupleIJDpT0_EEE4typeERS9_
0000000000000000 W _ZSt3getILm0EJPN4bssl10SSL_CONFIGENS0_8internal7DeleterEEERKNSt13tuple_elementIXT_ESt5tupleIJDpT0_EEE4typeERKS9_
0000000000000000 W _ZSt3getILm1EJP32stack_st_SRTP_PROTECTION_PROFILEN4bssl8internal7DeleterEEERNSt13tuple_elementIXT_ESt5tupleIJDpT0_EEE4typeERS9_
0000000000000000 W _ZSt4moveIRP32stack_st_SRTP_PROTECTION_PROFILEEONSt16remove_referenceIT_E4typeEOS4_
0000000000000000 W _ZSt4moveIRSt10unique_ptrI32stack_st_SRTP_PROTECTION_PROFILEN4bssl8internal7DeleterEEEONSt16remove_referenceIT_E4typeEOS8_
0000000000000000 W _ZSt4swapIP32stack_st_SRTP_PROTECTION_PROFILEENSt9enable_ifIXsrSt6__and_IJSt6__not_ISt15__is_tuple_likeIT_EESt21is_move_constructibleIS6_ESt18is_move_assignableIS6_EEE5valueEvE4typeERS6_SG_
0000000000000000 W _ZSt7forwardIN4bssl8internal7DeleterEEOT_RNSt16remove_referenceIS3_E4typeE
0000000000000000 W _ZSteqI32stack_st_SRTP_PROTECTION_PROFILEN4bssl8internal7DeleterEEbRKSt10unique_ptrIT_T0_EDn
0000000000000000 W _ZSteqIN4bssl10SSL_CONFIGENS0_8internal7DeleterEEbRKSt10unique_ptrIT_T0_EDn
0000000000000000 r _ZStL13allocator_arg
0000000000000000 r _ZStL19piecewise_construct
0000000000000000 r _ZStL6ignore
0000000000000000 W _ZStneI32stack_st_SRTP_PROTECTION_PROFILEN4bssl8internal7DeleterEEbRKSt10unique_ptrIT_T0_EDn
0000000000000000 W _ZStneIN4bssl10SSL_CONFIGENS0_8internal7DeleterEEbRKSt10unique_ptrIT_T0_EDn
0000000000000000 r _ZZ21SSL_get_srtp_profilesE19__PRETTY_FUNCTION__

dtls_method.cc.o:
                 U __assert_fail
0000000000000000 b .bss
0000000000000000 n .comment
0000000000000000 d .data
0000000000000000 d .data.rel.ro._ZL19kDTLSProtocolMethod
0000000000000000 d .data.rel.ro._ZZ11DTLS_methodE7kMethod
0000000000000000 d .data.rel.ro._ZZ13DTLSv1_methodE7kMethod
0000000000000000 d .data.rel.ro._ZZ15DTLSv1_2_methodE7kMethod
0000000000000000 d .data.rel.ro._ZZ24DTLS_with_buffers_methodE7kMethod
0000000000000000 N .debug_abbrev
0000000000000000 N .debug_aranges
0000000000000000 N .debug_info
0000000000000000 N .debug_line
0000000000000000 N .debug_ranges
0000000000000000 N .debug_str
0000000000000000 T DTLS_client_method
0000000000000000 T DTLS_method
0000000000000000 a dtls_method.cc
0000000000000000 T DTLS_server_method
0000000000000000 T DTLSv1_2_client_method
0000000000000000 T DTLSv1_2_method
0000000000000000 T DTLSv1_2_server_method
0000000000000000 T DTLSv1_client_method
0000000000000000 T DTLSv1_method
0000000000000000 T DTLSv1_server_method
0000000000000000 T DTLS_with_buffers_method
0000000000000000 r .eh_frame
                 U ERR_put_error
0000000000000000 n .group
0000000000000000 n .group
0000000000000000 n .group
0000000000000000 n .group
0000000000000000 n .group
0000000000000000 n .group
0000000000000000 n .group
0000000000000000 n .group
0000000000000000 n .group
0000000000000000 n .group
0000000000000000 n .group
0000000000000000 n .group
0000000000000000 n .group
0000000000000000 n .group
0000000000000000 n .group
0000000000000000 n .group
0000000000000000 n .group
0000000000000000 n .group
0000000000000000 n .group
0000000000000000 n .group
0000000000000000 n .group
0000000000000000 n .group
0000000000000000 n .group
0000000000000000 n .group
0000000000000000 n .group
0000000000000000 n .group
0000000000000000 n .group
0000000000000000 n .group
                 U memset
0000000000000000 n .note.GNU-stack
                 U OPENSSL_free
0000000000000000 t OPENSSL_memset
0000000000000000 r .rodata
0000000000000000 r .rodata._ZN4bsslL11kMaxTicketsE
0000000000000000 r .rodata._ZN4bsslL21kMaxEarlyDataAcceptedE
0000000000000000 r .rodata._ZN9__gnu_cxxL21__default_lock_policyE
0000000000000000 r .rodata._ZStL13allocator_arg
0000000000000000 r .rodata._ZStL19piecewise_construct
0000000000000000 r .rodata._ZStL6ignore
0000000000000000 r .rodata._ZZL20dtls1_set_read_stateP6ssl_st22ssl_encryption_level_tSt10unique_ptrIN4bssl14SSLAEADContextENS3_8internal7DeleterEENS3_4SpanIKhEEE19__PRETTY_FUNCTION__
0000000000000000 r .rodata._ZZL21dtls1_set_write_stateP6ssl_st22ssl_encryption_level_tSt10unique_ptrIN4bssl14SSLAEADContextENS3_8internal7DeleterEENS3_4SpanIKhEEE19__PRETTY_FUNCTION__
0000000000000000 t .text
0000000000000000 t .text.DTLS_client_method
0000000000000000 t .text.DTLS_method
0000000000000000 t .text.DTLS_server_method
0000000000000000 t .text.DTLSv1_2_client_method
0000000000000000 t .text.DTLSv1_2_method
0000000000000000 t .text.DTLSv1_2_server_method
0000000000000000 t .text.DTLSv1_client_method
0000000000000000 t .text.DTLSv1_method
0000000000000000 t .text.DTLSv1_server_method
0000000000000000 t .text.DTLS_with_buffers_method
0000000000000000 t .text.OPENSSL_memset
0000000000000000 t .text._ZL20dtls1_set_read_stateP6ssl_st22ssl_encryption_level_tSt10unique_ptrIN4bssl14SSLAEADContextENS3_8internal7DeleterEENS3_4SpanIKhEE
0000000000000000 t .text._ZL21dtls1_set_write_stateP6ssl_st22ssl_encryption_level_tSt10unique_ptrIN4bssl14SSLAEADContextENS3_8internal7DeleterEENS3_4SpanIKhEE
0000000000000000 t .text._ZL27dtls1_on_handshake_completeP6ssl_st
0000000000000000 t .text._ZN4bssl6DeleteINS_14SSLAEADContextEEEvPT_
0000000000000000 t .text._ZN4bssl8internal11DeleterImplINS_14SSLAEADContextEvE4FreeEPS2_
0000000000000000 t .text._ZN4bssl8internal7DeleterclINS_14SSLAEADContextEEEvPT_
0000000000000000 t .text._ZNK4bssl4SpanIKhE5emptyEv
0000000000000000 t .text._ZNKSt10unique_ptrIN4bssl14SSLAEADContextENS0_8internal7DeleterEE3getEv
0000000000000000 t .text._ZNKSt15__uniq_ptr_implIN4bssl14SSLAEADContextENS0_8internal7DeleterEE6_M_ptrEv
0000000000000000 t .text._ZNSt10_Head_baseILm0EPN4bssl14SSLAEADContextELb0EE7_M_headERKS3_
0000000000000000 t .text._ZNSt10_Head_baseILm0EPN4bssl14SSLAEADContextELb0EE7_M_headERS3_
0000000000000000 t .text._ZNSt10_Head_baseILm1EN4bssl8internal7DeleterELb1EE7_M_headERS3_
0000000000000000 t .text._ZNSt10unique_ptrIN4bssl14SSLAEADContextENS0_8internal7DeleterEE11get_deleterEv
0000000000000000 t .text._ZNSt10unique_ptrIN4bssl14SSLAEADContextENS0_8internal7DeleterEE5resetEPS1_
0000000000000000 t .text._ZNSt10unique_ptrIN4bssl14SSLAEADContextENS0_8internal7DeleterEE7releaseEv
0000000000000000 t .text._ZNSt10unique_ptrIN4bssl14SSLAEADContextENS0_8internal7DeleterEEaSEOS4_
0000000000000000 t .text._ZNSt11_Tuple_implILm0EJPN4bssl14SSLAEADContextENS0_8internal7DeleterEEE7_M_headERKS5_
0000000000000000 t .text._ZNSt11_Tuple_implILm0EJPN4bssl14SSLAEADContextENS0_8internal7DeleterEEE7_M_headERS5_
0000000000000000 t .text._ZNSt11_Tuple_implILm1EJN4bssl8internal7DeleterEEE7_M_headERS3_
0000000000000000 t .text._ZNSt15__uniq_ptr_implIN4bssl14SSLAEADContextENS0_8internal7DeleterEE10_M_deleterEv
0000000000000000 t .text._ZNSt15__uniq_ptr_implIN4bssl14SSLAEADContextENS0_8internal7DeleterEE6_M_ptrEv
0000000000000000 t .text._ZSt12__get_helperILm0EPN4bssl14SSLAEADContextEJNS0_8internal7DeleterEEERKT0_RKSt11_Tuple_implIXT_EJS5_DpT1_EE
0000000000000000 t .text._ZSt12__get_helperILm0EPN4bssl14SSLAEADContextEJNS0_8internal7DeleterEEERT0_RSt11_Tuple_implIXT_EJS5_DpT1_EE
0000000000000000 t .text._ZSt12__get_helperILm1EN4bssl8internal7DeleterEJEERT0_RSt11_Tuple_implIXT_EJS3_DpT1_EE
0000000000000000 t .text._ZSt3getILm0EJPN4bssl14SSLAEADContextENS0_8internal7DeleterEEERKNSt13tuple_elementIXT_ESt5tupleIJDpT0_EEE4typeERKS9_
0000000000000000 t .text._ZSt3getILm0EJPN4bssl14SSLAEADContextENS0_8internal7DeleterEEERNSt13tuple_elementIXT_ESt5tupleIJDpT0_EEE4typeERS9_
0000000000000000 t .text._ZSt3getILm1EJPN4bssl14SSLAEADContextENS0_8internal7DeleterEEERNSt13tuple_elementIXT_ESt5tupleIJDpT0_EEE4typeERS9_
0000000000000000 t .text._ZSt4moveIRPN4bssl14SSLAEADContextEEONSt16remove_referenceIT_E4typeEOS5_
0000000000000000 t .text._ZSt4moveIRSt10unique_ptrIN4bssl14SSLAEADContextENS1_8internal7DeleterEEEONSt16remove_referenceIT_E4typeEOS8_
0000000000000000 t .text._ZSt4swapIPN4bssl14SSLAEADContextEENSt9enable_ifIXsrSt6__and_IJSt6__not_ISt15__is_tuple_likeIT_EESt21is_move_constructibleIS7_ESt18is_move_assignableIS7_EEE5valueEvE4typeERS7_SH_
0000000000000000 t .text._ZSt7forwardIN4bssl8internal7DeleterEEOT_RNSt16remove_referenceIS3_E4typeE
0000000000000000 d _ZL19kDTLSProtocolMethod
0000000000000000 t _ZL20dtls1_set_read_stateP6ssl_st22ssl_encryption_level_tSt10unique_ptrIN4bssl14SSLAEADContextENS3_8internal7DeleterEENS3_4SpanIKhEE
0000000000000000 t _ZL21dtls1_set_write_stateP6ssl_st22ssl_encryption_level_tSt10unique_ptrIN4bssl14SSLAEADContextENS3_8internal7DeleterEENS3_4SpanIKhEE
0000000000000000 t _ZL27dtls1_on_handshake_completeP6ssl_st
                 U _ZN4bssl10dtls1_freeEP6ssl_st
                 U _ZN4bssl14SSLAEADContextD1Ev
                 U _ZN4bssl14ssl_send_alertEP6ssl_stii
                 U _ZN4bssl16dtls1_stop_timerEP6ssl_st
                 U _ZN4bssl17dtls1_add_messageEP6ssl_stNS_5ArrayIhEE
                 U _ZN4bssl17dtls1_get_messageEPK6ssl_stPNS_10SSLMessageE
                 U _ZN4bssl18dtls1_flush_flightEP6ssl_st
                 U _ZN4bssl18dtls1_init_messageEPK6ssl_stP6cbb_stS4_h
                 U _ZN4bssl18dtls1_next_messageEP6ssl_st
                 U _ZN4bssl19dtls1_open_app_dataEP6ssl_stPNS_4SpanIhEEPmPhS3_
                 U _ZN4bssl20dtls1_dispatch_alertEP6ssl_st
                 U _ZN4bssl20dtls1_finish_messageEPK6ssl_stP6cbb_stPNS_5ArrayIhEE
                 U _ZN4bssl20dtls1_open_handshakeEP6ssl_stPmPhNS_4SpanIhEE
                 U _ZN4bssl20dtls1_write_app_dataEP6ssl_stPbPmNS_4SpanIKhEE
                 U _ZN4bssl20ssl_noop_x509_methodE
                 U _ZN4bssl22ssl_crypto_x509_methodE
                 U _ZN4bssl28dtls1_add_change_cipher_specEP6ssl_st
                 U _ZN4bssl28dtls_clear_outgoing_messagesEP6ssl_st
                 U _ZN4bssl29dtls1_open_change_cipher_specEP6ssl_stPmPhNS_4SpanIhEE
                 U _ZN4bssl35dtls_has_unprocessed_handshake_dataEPK6ssl_st
0000000000000000 W _ZN4bssl6DeleteINS_14SSLAEADContextEEEvPT_
0000000000000000 W _ZN4bssl8internal11DeleterImplINS_14SSLAEADContextEvE4FreeEPS2_
0000000000000000 W _ZN4bssl8internal7DeleterclINS_14SSLAEADContextEEEvPT_
                 U _ZN4bssl9dtls1_newEP6ssl_st
0000000000000000 r _ZN4bsslL11kMaxTicketsE
0000000000000000 r _ZN4bsslL21kMaxEarlyDataAcceptedE
0000000000000000 r _ZN9__gnu_cxxL21__default_lock_policyE
0000000000000000 W _ZNK4bssl4SpanIKhE5emptyEv
0000000000000000 W _ZNKSt10unique_ptrIN4bssl14SSLAEADContextENS0_8internal7DeleterEE3getEv
0000000000000000 W _ZNKSt15__uniq_ptr_implIN4bssl14SSLAEADContextENS0_8internal7DeleterEE6_M_ptrEv
0000000000000000 W _ZNSt10_Head_baseILm0EPN4bssl14SSLAEADContextELb0EE7_M_headERKS3_
0000000000000000 W _ZNSt10_Head_baseILm0EPN4bssl14SSLAEADContextELb0EE7_M_headERS3_
0000000000000000 W _ZNSt10_Head_baseILm1EN4bssl8internal7DeleterELb1EE7_M_headERS3_
0000000000000000 W _ZNSt10unique_ptrIN4bssl14SSLAEADContextENS0_8internal7DeleterEE11get_deleterEv
0000000000000000 W _ZNSt10unique_ptrIN4bssl14SSLAEADContextENS0_8internal7DeleterEE5resetEPS1_
0000000000000000 W _ZNSt10unique_ptrIN4bssl14SSLAEADContextENS0_8internal7DeleterEE7releaseEv
0000000000000000 W _ZNSt10unique_ptrIN4bssl14SSLAEADContextENS0_8internal7DeleterEEaSEOS4_
0000000000000000 W _ZNSt11_Tuple_implILm0EJPN4bssl14SSLAEADContextENS0_8internal7DeleterEEE7_M_headERKS5_
0000000000000000 W _ZNSt11_Tuple_implILm0EJPN4bssl14SSLAEADContextENS0_8internal7DeleterEEE7_M_headERS5_
0000000000000000 W _ZNSt11_Tuple_implILm1EJN4bssl8internal7DeleterEEE7_M_headERS3_
0000000000000000 W _ZNSt15__uniq_ptr_implIN4bssl14SSLAEADContextENS0_8internal7DeleterEE10_M_deleterEv
0000000000000000 W _ZNSt15__uniq_ptr_implIN4bssl14SSLAEADContextENS0_8internal7DeleterEE6_M_ptrEv
0000000000000000 W _ZSt12__get_helperILm0EPN4bssl14SSLAEADContextEJNS0_8internal7DeleterEEERKT0_RKSt11_Tuple_implIXT_EJS5_DpT1_EE
0000000000000000 W _ZSt12__get_helperILm0EPN4bssl14SSLAEADContextEJNS0_8internal7DeleterEEERT0_RSt11_Tuple_implIXT_EJS5_DpT1_EE
0000000000000000 W _ZSt12__get_helperILm1EN4bssl8internal7DeleterEJEERT0_RSt11_Tuple_implIXT_EJS3_DpT1_EE
0000000000000000 W _ZSt3getILm0EJPN4bssl14SSLAEADContextENS0_8internal7DeleterEEERKNSt13tuple_elementIXT_ESt5tupleIJDpT0_EEE4typeERKS9_
0000000000000000 W _ZSt3getILm0EJPN4bssl14SSLAEADContextENS0_8internal7DeleterEEERNSt13tuple_elementIXT_ESt5tupleIJDpT0_EEE4typeERS9_
0000000000000000 W _ZSt3getILm1EJPN4bssl14SSLAEADContextENS0_8internal7DeleterEEERNSt13tuple_elementIXT_ESt5tupleIJDpT0_EEE4typeERS9_
0000000000000000 W _ZSt4moveIRPN4bssl14SSLAEADContextEEONSt16remove_referenceIT_E4typeEOS5_
0000000000000000 W _ZSt4moveIRSt10unique_ptrIN4bssl14SSLAEADContextENS1_8internal7DeleterEEEONSt16remove_referenceIT_E4typeEOS8_
0000000000000000 W _ZSt4swapIPN4bssl14SSLAEADContextEENSt9enable_ifIXsrSt6__and_IJSt6__not_ISt15__is_tuple_likeIT_EESt21is_move_constructibleIS7_ESt18is_move_assignableIS7_EEE5valueEvE4typeERS7_SH_
0000000000000000 W _ZSt7forwardIN4bssl8internal7DeleterEEOT_RNSt16remove_referenceIS3_E4typeE
0000000000000000 r _ZStL13allocator_arg
0000000000000000 r _ZStL19piecewise_construct
0000000000000000 r _ZStL6ignore
0000000000000000 d _ZZ11DTLS_methodE7kMethod
0000000000000000 d _ZZ13DTLSv1_methodE7kMethod
0000000000000000 d _ZZ15DTLSv1_2_methodE7kMethod
0000000000000000 d _ZZ24DTLS_with_buffers_methodE7kMethod
0000000000000000 r _ZZL20dtls1_set_read_stateP6ssl_st22ssl_encryption_level_tSt10unique_ptrIN4bssl14SSLAEADContextENS3_8internal7DeleterEENS3_4SpanIKhEEE19__PRETTY_FUNCTION__
0000000000000000 r _ZZL21dtls1_set_write_stateP6ssl_st22ssl_encryption_level_tSt10unique_ptrIN4bssl14SSLAEADContextENS3_8internal7DeleterEENS3_4SpanIKhEEE19__PRETTY_FUNCTION__

dtls_record.cc.o:
                 U abort
                 U __assert_fail
0000000000000000 b .bss
0000000000000000 t buffers_alias
                 U CBS_copy_bytes
                 U CBS_data
                 U CBS_get_u16
                 U CBS_get_u16_length_prefixed
                 U CBS_get_u8
                 U CBS_len
0000000000000000 n .comment
0000000000000000 t CRYPTO_bswap8
0000000000000000 t CRYPTO_load_u64_be
0000000000000000 t CRYPTO_store_u64_be
0000000000000000 d .data
0000000000000000 N .debug_abbrev
0000000000000000 N .debug_aranges
0000000000000000 N .debug_info
0000000000000000 N .debug_line
0000000000000000 N .debug_ranges
0000000000000000 N .debug_str
0000000000000000 a dtls_record.cc
0000000000000000 r .eh_frame
                 U ERR_clear_error
                 U ERR_put_error
0000000000000000 n .group
0000000000000000 n .group
0000000000000000 n .group
0000000000000000 n .group
0000000000000000 n .group
0000000000000000 n .group
0000000000000000 n .group
0000000000000000 n .group
0000000000000000 n .group
0000000000000000 n .group
0000000000000000 n .group
0000000000000000 n .group
0000000000000000 n .group
0000000000000000 n .group
0000000000000000 n .group
0000000000000000 n .group
0000000000000000 n .group
0000000000000000 n .group
0000000000000000 n .group
0000000000000000 n .group
0000000000000000 n .group
                 U memcpy
0000000000000000 n .note.GNU-stack
0000000000000000 t OPENSSL_memcpy
0000000000000000 r .rodata
0000000000000000 r .rodata._ZN4bsslL11kMaxTicketsE
0000000000000000 r .rodata._ZN4bsslL21kMaxEarlyDataAcceptedE
0000000000000000 r .rodata._ZN9__gnu_cxxL21__default_lock_policyE
0000000000000000 r .rodata._ZStL13allocator_arg
0000000000000000 r .rodata._ZStL19piecewise_construct
0000000000000000 r .rodata._ZStL6ignore
0000000000000000 r .rodata._ZZN4bssl16dtls_seal_recordEP6ssl_stPhPmmhPKhmNS_17dtls1_use_epoch_tEE19__PRETTY_FUNCTION__
0000000000000000 r .rodata._ZZN4bsslL14get_write_aeadEPK6ssl_stNS_17dtls1_use_epoch_tEE19__PRETTY_FUNCTION__
0000000000000000 t .text
0000000000000000 t .text.buffers_alias
0000000000000000 t .text.CRYPTO_bswap8
0000000000000000 t .text.CRYPTO_load_u64_be
0000000000000000 t .text.CRYPTO_store_u64_be
0000000000000000 t .text.OPENSSL_memcpy
0000000000000000 t .text._ZN4bssl13MakeConstSpanIhEENS_4SpanIKT_EEPS2_m
0000000000000000 t .text._ZN4bssl16dtls_open_recordEP6ssl_stPhPNS_4SpanIhEEPmS2_S4_
0000000000000000 t .text._ZN4bssl16dtls_seal_recordEP6ssl_stPhPmmhPKhmNS_17dtls1_use_epoch_tE
0000000000000000 t .text._ZN4bssl20dtls_seal_prefix_lenEPK6ssl_stNS_17dtls1_use_epoch_tE
0000000000000000 t .text._ZN4bssl22dtls_max_seal_overheadEPK6ssl_stNS_17dtls1_use_epoch_tE
0000000000000000 t .text._ZN4bssl4SpanIhEC2EPhm
0000000000000000 t .text._ZN4bssl4SpanIKhEC2EPS1_m
0000000000000000 t .text._ZN4bssl4SpanIKhEC2INS0_IhEEvS4_EERKT_
0000000000000000 t .text._ZN4bssl8MakeSpanIhEENS_4SpanIT_EEPS2_m
0000000000000000 t .text._ZN4bsslL14get_write_aeadEPK6ssl_stNS_17dtls1_use_epoch_tE
0000000000000000 t .text._ZN4bsslL19dtls1_bitmap_recordEPNS_12DTLS1_BITMAPEm
0000000000000000 t .text._ZN4bsslL27dtls1_bitmap_should_discardEPNS_12DTLS1_BITMAPEm
0000000000000000 t .text._ZN6cbs_stC2EN4bssl4SpanIKhEE
0000000000000000 t .text._ZNK4bssl14SSLAEADContext14is_null_cipherEv
0000000000000000 t .text._ZNK4bssl4SpanIhE4dataEv
0000000000000000 t .text._ZNK4bssl4SpanIhE4sizeEv
0000000000000000 t .text._ZNK4bssl4SpanIhE5emptyEv
0000000000000000 t .text._ZNK4bssl4SpanIhE7subspanEmm
0000000000000000 t .text._ZNK4bssl4SpanIKhE4dataEv
0000000000000000 t .text._ZNK4bssl4SpanIKhE4sizeEv
0000000000000000 t .text._ZNKSt10unique_ptrIN4bssl14SSLAEADContextENS0_8internal7DeleterEE3getEv
0000000000000000 t .text._ZNKSt10unique_ptrIN4bssl14SSLAEADContextENS0_8internal7DeleterEEptEv
0000000000000000 t .text._ZNKSt15__uniq_ptr_implIN4bssl14SSLAEADContextENS0_8internal7DeleterEE6_M_ptrEv
0000000000000000 t .text._ZNSt10_Head_baseILm0EPN4bssl14SSLAEADContextELb0EE7_M_headERKS3_
0000000000000000 t .text._ZNSt11_Tuple_implILm0EJPN4bssl14SSLAEADContextENS0_8internal7DeleterEEE7_M_headERKS5_
0000000000000000 t .text._ZSt12__get_helperILm0EPN4bssl14SSLAEADContextEJNS0_8internal7DeleterEEERKT0_RKSt11_Tuple_implIXT_EJS5_DpT1_EE
0000000000000000 t .text._ZSt3getILm0EJPN4bssl14SSLAEADContextENS0_8internal7DeleterEEERKNSt13tuple_elementIXT_ESt5tupleIJDpT0_EEE4typeERKS9_
0000000000000000 t .text._ZSt3minImERKT_S2_S2_
0000000000000000 W _ZN4bssl13MakeConstSpanIhEENS_4SpanIKT_EEPS2_m
                 U _ZN4bssl14SSLAEADContext4OpenEPNS_4SpanIhEEhtmNS1_IKhEES2_
                 U _ZN4bssl14SSLAEADContext4SealEPhPmmhtmNS_4SpanIKhEEPS4_m
0000000000000000 T _ZN4bssl16dtls_open_recordEP6ssl_stPhPNS_4SpanIhEEPmS2_S4_
0000000000000000 T _ZN4bssl16dtls_seal_recordEP6ssl_stPhPmmhPKhmNS_17dtls1_use_epoch_tE
                 U _ZN4bssl17ssl_process_alertEP6ssl_stPhNS_4SpanIKhEE
                 U _ZN4bssl19ssl_do_msg_callbackEPK6ssl_stiiNS_4SpanIKhEE
0000000000000000 T _ZN4bssl20dtls_seal_prefix_lenEPK6ssl_stNS_17dtls1_use_epoch_tE
0000000000000000 T _ZN4bssl22dtls_max_seal_overheadEPK6ssl_stNS_17dtls1_use_epoch_tE
0000000000000000 W _ZN4bssl4SpanIhEC1EPhm
0000000000000000 W _ZN4bssl4SpanIhEC2EPhm
0000000000000000 n _ZN4bssl4SpanIhEC5EPhm
0000000000000000 W _ZN4bssl4SpanIKhEC1EPS1_m
0000000000000000 W _ZN4bssl4SpanIKhEC1INS0_IhEEvS4_EERKT_
0000000000000000 W _ZN4bssl4SpanIKhEC2EPS1_m
0000000000000000 W _ZN4bssl4SpanIKhEC2INS0_IhEEvS4_EERKT_
0000000000000000 n _ZN4bssl4SpanIKhEC5EPS1_m
0000000000000000 n _ZN4bssl4SpanIKhEC5INS0_IhEEvS4_EERKT_
0000000000000000 W _ZN4bssl8MakeSpanIhEENS_4SpanIT_EEPS2_m
0000000000000000 r _ZN4bsslL11kMaxTicketsE
0000000000000000 t _ZN4bsslL14get_write_aeadEPK6ssl_stNS_17dtls1_use_epoch_tE
0000000000000000 t _ZN4bsslL19dtls1_bitmap_recordEPNS_12DTLS1_BITMAPEm
0000000000000000 r _ZN4bsslL21kMaxEarlyDataAcceptedE
0000000000000000 t _ZN4bsslL27dtls1_bitmap_should_discardEPNS_12DTLS1_BITMAPEm
0000000000000000 W _ZN6cbs_stC1EN4bssl4SpanIKhEE
0000000000000000 W _ZN6cbs_stC2EN4bssl4SpanIKhEE
0000000000000000 n _ZN6cbs_stC5EN4bssl4SpanIKhEE
0000000000000000 r _ZN9__gnu_cxxL21__default_lock_policyE
                 U _ZNK4bssl14SSLAEADContext11MaxOverheadEv
                 U _ZNK4bssl14SSLAEADContext13CiphertextLenEPmmm
                 U _ZNK4bssl14SSLAEADContext13RecordVersionEv
0000000000000000 W _ZNK4bssl14SSLAEADContext14is_null_cipherEv
                 U _ZNK4bssl14SSLAEADContext16ExplicitNonceLenEv
0000000000000000 W _ZNK4bssl4SpanIhE4dataEv
0000000000000000 W _ZNK4bssl4SpanIhE4sizeEv
0000000000000000 W _ZNK4bssl4SpanIhE5emptyEv
0000000000000000 W _ZNK4bssl4SpanIhE7subspanEmm
0000000000000000 W _ZNK4bssl4SpanIKhE4dataEv
0000000000000000 W _ZNK4bssl4SpanIKhE4sizeEv
0000000000000000 W _ZNKSt10unique_ptrIN4bssl14SSLAEADContextENS0_8internal7DeleterEE3getEv
0000000000000000 W _ZNKSt10unique_ptrIN4bssl14SSLAEADContextENS0_8internal7DeleterEEptEv
0000000000000000 W _ZNKSt15__uniq_ptr_implIN4bssl14SSLAEADContextENS0_8internal7DeleterEE6_M_ptrEv
0000000000000000 W _ZNSt10_Head_baseILm0EPN4bssl14SSLAEADContextELb0EE7_M_headERKS3_
0000000000000000 W _ZNSt11_Tuple_implILm0EJPN4bssl14SSLAEADContextENS0_8internal7DeleterEEE7_M_headERKS5_
0000000000000000 W _ZSt12__get_helperILm0EPN4bssl14SSLAEADContextEJNS0_8internal7DeleterEEERKT0_RKSt11_Tuple_implIXT_EJS5_DpT1_EE
0000000000000000 W _ZSt3getILm0EJPN4bssl14SSLAEADContextENS0_8internal7DeleterEEERKNSt13tuple_elementIXT_ESt5tupleIJDpT0_EEE4typeERKS9_
0000000000000000 W _ZSt3minImERKT_S2_S2_
0000000000000000 r _ZStL13allocator_arg
0000000000000000 r _ZStL19piecewise_construct
0000000000000000 r _ZStL6ignore
0000000000000000 r _ZZN4bssl16dtls_seal_recordEP6ssl_stPhPmmhPKhmNS_17dtls1_use_epoch_tEE19__PRETTY_FUNCTION__
0000000000000000 r _ZZN4bsslL14get_write_aeadEPK6ssl_stNS_17dtls1_use_epoch_tEE19__PRETTY_FUNCTION__

encrypted_client_hello.cc.o:
                 U abort
                 U __assert_fail
0000000000000000 b .bss
                 U CBB_add_bytes
                 U CBB_add_space
                 U CBB_add_u16
                 U CBB_add_u16_length_prefixed
                 U CBB_add_u8
                 U CBB_add_u8_length_prefixed
                 U CBB_add_zeros
                 U CBB_cleanup
                 U CBB_data
                 U CBB_did_write
                 U CBB_finish
                 U CBB_flush
                 U CBB_init
                 U CBB_len
                 U CBB_reserve
                 U CBB_zero
                 U CBS_data
                 U CBS_get_u16
                 U CBS_get_u16_length_prefixed
                 U CBS_get_u8
                 U CBS_get_u8_length_prefixed
                 U CBS_init
                 U CBS_len
                 U CBS_skip
0000000000000000 n .comment
                 U CRYPTO_MUTEX_lock_write
                 U CRYPTO_MUTEX_unlock_write
                 U CRYPTO_refcount_dec_and_test_zero
                 U CRYPTO_refcount_inc
0000000000000000 d .data
0000000000000000 d .data.rel.ro._ZN4bsslL15kSupportedAEADsE
0000000000000000 N .debug_abbrev
0000000000000000 N .debug_aranges
0000000000000000 N .debug_info
0000000000000000 N .debug_line
0000000000000000 N .debug_ranges
0000000000000000 N .debug_str
0000000000000000 r .eh_frame
0000000000000000 a encrypted_client_hello.cc
                 U ERR_put_error
                 U EVP_AEAD_max_overhead
                 U EVP_has_aes_hardware
                 U EVP_HPKE_AEAD_aead
                 U EVP_HPKE_AEAD_id
                 U EVP_hpke_aes_128_gcm
                 U EVP_hpke_aes_256_gcm
                 U EVP_hpke_chacha20_poly1305
                 U EVP_HPKE_CTX_aead
                 U EVP_HPKE_CTX_kdf
                 U EVP_HPKE_CTX_open
                 U EVP_HPKE_CTX_seal
                 U EVP_HPKE_CTX_setup_recipient
                 U EVP_HPKE_CTX_setup_sender
                 U EVP_hpke_hkdf_sha256
                 U EVP_HPKE_KDF_id
                 U EVP_HPKE_KEM_id
                 U EVP_HPKE_KEY_cleanup
                 U EVP_HPKE_KEY_copy
                 U EVP_HPKE_KEY_kem
                 U EVP_HPKE_KEY_public_key
                 U EVP_HPKE_KEY_zero
                 U EVP_hpke_x25519_hkdf_sha256
0000000000000000 n .group
0000000000000000 n .group
0000000000000000 n .group
0000000000000000 n .group
0000000000000000 n .group
0000000000000000 n .group
0000000000000000 n .group
0000000000000000 n .group
0000000000000000 n .group
0000000000000000 n .group
0000000000000000 n .group
0000000000000000 n .group
0000000000000000 n .group
0000000000000000 n .group
0000000000000000 n .group
0000000000000000 n .group
0000000000000000 n .group
0000000000000000 n .group
0000000000000000 n .group
0000000000000000 n .group
0000000000000000 n .group
0000000000000000 n .group
0000000000000000 n .group
0000000000000000 n .group
0000000000000000 n .group
0000000000000000 n .group
0000000000000000 n .group
0000000000000000 n .group
0000000000000000 n .group
0000000000000000 n .group
0000000000000000 n .group
0000000000000000 n .group
0000000000000000 n .group
0000000000000000 n .group
0000000000000000 n .group
0000000000000000 n .group
0000000000000000 n .group
0000000000000000 n .group
0000000000000000 n .group
0000000000000000 n .group
0000000000000000 n .group
0000000000000000 n .group
0000000000000000 n .group
0000000000000000 n .group
0000000000000000 n .group
0000000000000000 n .group
0000000000000000 n .group
0000000000000000 n .group
0000000000000000 n .group
0000000000000000 n .group
0000000000000000 n .group
0000000000000000 n .group
0000000000000000 n .group
0000000000000000 n .group
0000000000000000 n .group
0000000000000000 n .group
0000000000000000 n .group
0000000000000000 n .group
0000000000000000 n .group
0000000000000000 n .group
0000000000000000 n .group
0000000000000000 n .group
0000000000000000 n .group
0000000000000000 n .group
0000000000000000 n .group
0000000000000000 n .group
0000000000000000 n .group
0000000000000000 n .group
0000000000000000 n .group
0000000000000000 n .group
0000000000000000 n .group
0000000000000000 n .group
0000000000000000 n .group
0000000000000000 n .group
0000000000000000 n .group
0000000000000000 n .group
0000000000000000 n .group
0000000000000000 n .group
0000000000000000 n .group
0000000000000000 n .group
0000000000000000 n .group
0000000000000000 n .group
0000000000000000 n .group
0000000000000000 n .group
0000000000000000 n .group
0000000000000000 n .group
0000000000000000 n .group
0000000000000000 n .group
0000000000000000 n .group
0000000000000000 n .group
0000000000000000 n .group
0000000000000000 n .group
0000000000000000 n .group
0000000000000000 n .group
0000000000000000 n .group
0000000000000000 n .group
0000000000000000 n .group
0000000000000000 n .group
0000000000000000 n .group
0000000000000000 n .group
0000000000000000 n .group
0000000000000000 n .group
0000000000000000 n .group
0000000000000000 n .group
0000000000000000 n .group
0000000000000000 n .group
0000000000000000 n .group
0000000000000000 n .group
0000000000000000 n .group
0000000000000000 n .group
0000000000000000 n .group
0000000000000000 n .group
0000000000000000 n .group
0000000000000000 n .group
0000000000000000 n .group
0000000000000000 n .group
0000000000000000 n .group
0000000000000000 n .group
0000000000000000 n .group
0000000000000000 n .group
0000000000000000 n .group
0000000000000000 n .group
0000000000000000 n .group
0000000000000000 n .group
0000000000000000 n .group
0000000000000000 n .group
0000000000000000 n .group
0000000000000000 n .group
0000000000000000 n .group
0000000000000000 n .group
0000000000000000 n .group
0000000000000000 n .group
0000000000000000 n .group
0000000000000000 n .group
0000000000000000 n .group
0000000000000000 n .group
0000000000000000 n .group
0000000000000000 n .group
0000000000000000 n .group
0000000000000000 n .group
0000000000000000 n .group
0000000000000000 n .group
0000000000000000 n .group
0000000000000000 n .group
0000000000000000 n .group
0000000000000000 n .group
0000000000000000 n .group
0000000000000000 n .group
0000000000000000 n .group
0000000000000000 n .group
0000000000000000 n .group
0000000000000000 n .group
0000000000000000 n .group
0000000000000000 n .group
0000000000000000 n .group
0000000000000000 n .group
0000000000000000 n .group
0000000000000000 n .group
0000000000000000 n .group
0000000000000000 n .group
0000000000000000 n .group
0000000000000000 n .group
0000000000000000 n .group
0000000000000000 n .group
0000000000000000 n .group
0000000000000000 n .group
0000000000000000 n .group
0000000000000000 n .group
0000000000000000 n .group
0000000000000000 n .group
0000000000000000 n .group
0000000000000000 n .group
0000000000000000 n .group
0000000000000000 n .group
0000000000000000 n .group
0000000000000000 n .group
0000000000000000 n .group
0000000000000000 n .group
0000000000000000 n .group
0000000000000000 n .group
0000000000000000 n .group
0000000000000000 n .group
0000000000000000 n .group
0000000000000000 n .group
0000000000000000 n .group
0000000000000000 n .group
0000000000000000 n .group
0000000000000000 n .group
0000000000000000 n .group
0000000000000000 n .group
0000000000000000 n .group
0000000000000000 n .group
0000000000000000 n .group
0000000000000000 n .group
0000000000000000 n .group
0000000000000000 n .group
0000000000000000 n .group
0000000000000000 n .group
0000000000000000 n .group
0000000000000000 n .group
0000000000000000 n .group
0000000000000000 n .group
0000000000000000 n .group
0000000000000000 n .group
0000000000000000 n .group
0000000000000000 n .group
0000000000000000 n .group
0000000000000000 n .group
0000000000000000 n .group
0000000000000000 n .group
0000000000000000 n .group
0000000000000000 n .group
0000000000000000 n .group
0000000000000000 n .group
0000000000000000 n .group
0000000000000000 n .group
0000000000000000 n .group
0000000000000000 n .group
0000000000000000 n .group
0000000000000000 n .group
0000000000000000 n .group
                 U memcpy
                 U memset
0000000000000000 n .note.GNU-stack
                 U OPENSSL_free
                 U OPENSSL_isalnum
                 U OPENSSL_isxdigit
                 U OPENSSL_malloc
0000000000000000 t OPENSSL_memcpy
0000000000000000 t OPENSSL_memset
                 U RAND_bytes
0000000000000000 r .rodata
0000000000000000 r .rodata._ZN4bsslL11kMaxTicketsE
0000000000000000 r .rodata._ZN4bsslL17kECHConfigVersionE
0000000000000000 r .rodata._ZN4bsslL21kMaxEarlyDataAcceptedE
0000000000000000 r .rodata._ZN9__gnu_cxxL21__default_lock_policyE
0000000000000000 r .rodata._ZStL13allocator_arg
0000000000000000 r .rodata._ZStL19piecewise_construct
0000000000000000 r .rodata._ZStL6ignore
0000000000000000 r .rodata._ZZ26SSL_get0_ech_retry_configsE12kPlaceholder
0000000000000000 r .rodata._ZZ26SSL_get0_ech_retry_configsE19__PRETTY_FUNCTION__
0000000000000000 r .rodata._ZZN4bssl21ssl_select_ech_configEPNS_13SSL_HANDSHAKEENS_4SpanIhEEPmE10kInfoLabel
0000000000000000 r .rodata._ZZN4bssl24ssl_client_hello_decryptEPNS_13SSL_HANDSHAKEEPhPbPNS_5ArrayIhEEPK22ssl_early_callback_ctxNS_4SpanIKhEEE19__PRETTY_FUNCTION__
0000000000000000 r .rodata._ZZN4bssl24ssl_encrypt_client_helloEPNS_13SSL_HANDSHAKEENS_4SpanIKhEEE19__PRETTY_FUNCTION__
0000000000000000 r .rodata._ZZN4bssl8internal13MutexLockBaseIXadL_Z23CRYPTO_MUTEX_lock_writeEEXadL_Z25CRYPTO_MUTEX_unlock_writeEEEC4EP15crypto_mutex_stE19__PRETTY_FUNCTION__
0000000000000000 r .rodata._ZZN4bsslL11random_sizeEmmE19__PRETTY_FUNCTION__
0000000000000000 r .rodata._ZZN4bsslL16setup_ech_greaseEPNS_13SSL_HANDSHAKEEE19__PRETTY_FUNCTION__
0000000000000000 r .rodata._ZZNK4bssl15ECHServerConfig12SetupContextEP15evp_hpke_ctx_stttNS_4SpanIKhEEE10kInfoLabel
0000000000000000 r .rodata._ZZNK4bssl15ECHServerConfig12SetupContextEP15evp_hpke_ctx_stttNS_4SpanIKhEEE19__PRETTY_FUNCTION__
0000000000000000 T SSL_CTX_set1_ech_keys
0000000000000000 T SSL_ech_accepted
0000000000000000 T SSL_ECH_KEYS_add
0000000000000000 T SSL_ECH_KEYS_free
0000000000000000 T SSL_ECH_KEYS_has_duplicate_config_id
0000000000000000 T SSL_ECH_KEYS_marshal_retry_configs
0000000000000000 T SSL_ECH_KEYS_new
0000000000000000 T SSL_ECH_KEYS_up_ref
0000000000000000 T SSL_get0_ech_name_override
0000000000000000 T SSL_get0_ech_retry_configs
                 U SSL_in_early_data
0000000000000000 T SSL_marshal_ech_config
0000000000000000 T SSL_set1_ech_config_list
0000000000000000 T SSL_set_enable_ech_grease
                 U strlen
0000000000000000 t .text
0000000000000000 t .text.OPENSSL_memcpy
0000000000000000 t .text.OPENSSL_memset
0000000000000000 t .text.SSL_CTX_set1_ech_keys
0000000000000000 t .text.SSL_ech_accepted
0000000000000000 t .text.SSL_ECH_KEYS_add
0000000000000000 t .text.SSL_ECH_KEYS_free
0000000000000000 t .text.SSL_ECH_KEYS_has_duplicate_config_id
0000000000000000 t .text.SSL_ECH_KEYS_marshal_retry_configs
0000000000000000 t .text.SSL_ECH_KEYS_new
0000000000000000 t .text.SSL_ECH_KEYS_up_ref
0000000000000000 t .text.SSL_get0_ech_name_override
0000000000000000 t .text.SSL_get0_ech_retry_configs
0000000000000000 t .text.SSL_marshal_ech_config
0000000000000000 t .text.SSL_set1_ech_config_list
0000000000000000 t .text.SSL_set_enable_ech_grease
0000000000000000 t .text._ZN15ssl_ech_keys_stC2Ev
0000000000000000 t .text._ZN15ssl_ech_keys_stD2Ev
0000000000000000 t .text._ZN4bssl10MakeUniqueINS_15ECHServerConfigEJEEESt10unique_ptrIT_NS_8internal7DeleterEEDpOT0_
0000000000000000 t .text._ZN4bssl10MakeUniqueINS_9ECHConfigEJS1_EEESt10unique_ptrIT_NS_8internal7DeleterEEDpOT0_
0000000000000000 t .text._ZN4bssl13GrowableArrayISt10unique_ptrINS_15ECHServerConfigENS_8internal7DeleterEEE3endEv
0000000000000000 t .text._ZN4bssl13GrowableArrayISt10unique_ptrINS_15ECHServerConfigENS_8internal7DeleterEEE4PushES5_
0000000000000000 t .text._ZN4bssl13GrowableArrayISt10unique_ptrINS_15ECHServerConfigENS_8internal7DeleterEEE5beginEv
0000000000000000 t .text._ZN4bssl13GrowableArrayISt10unique_ptrINS_15ECHServerConfigENS_8internal7DeleterEEE9MaybeGrowEv
0000000000000000 t .text._ZN4bssl13GrowableArrayISt10unique_ptrINS_15ECHServerConfigENS_8internal7DeleterEEEC2Ev
0000000000000000 t .text._ZN4bssl13GrowableArrayISt10unique_ptrINS_15ECHServerConfigENS_8internal7DeleterEEED2Ev
0000000000000000 t .text._ZN4bssl13MakeConstSpanIhEENS_4SpanIKT_EEPS2_m
0000000000000000 t .text._ZN4bssl13MakeConstSpanIKhEENS_4SpanIKT_EEPS3_m
0000000000000000 t .text._ZN4bssl13MakeConstSpanINS_5ArrayIhEEEEDTcl13MakeConstSpancldtfp_4dataEcldtfp_4sizeEEERKT_
0000000000000000 t .text._ZN4bssl15ECHServerConfig4InitENS_4SpanIKhEEPK15evp_hpke_key_stb
0000000000000000 t .text._ZN4bssl15ECHServerConfigC2Ev
0000000000000000 t .text._ZN4bssl15ECHServerConfigD2Ev
0000000000000000 t .text._ZN4bssl21ssl_select_ech_configEPNS_13SSL_HANDSHAKEENS_4SpanIhEEPm
0000000000000000 t .text._ZN4bssl24ssl_client_hello_decryptEPNS_13SSL_HANDSHAKEEPhPbPNS_5ArrayIhEEPK22ssl_early_callback_ctxNS_4SpanIKhEE
0000000000000000 t .text._ZN4bssl24ssl_encrypt_client_helloEPNS_13SSL_HANDSHAKEENS_4SpanIKhEE
0000000000000000 t .text._ZN4bssl28ssl_is_valid_ech_config_listENS_4SpanIKhEE
0000000000000000 t .text._ZN4bssl28ssl_is_valid_ech_public_nameENS_4SpanIKhEE
0000000000000000 t .text._ZN4bssl29ssl_decode_client_hello_innerEP6ssl_stPhPNS_5ArrayIhEENS_4SpanIKhEEPK22ssl_early_callback_ctx
0000000000000000 t .text._ZN4bssl3NewI15ssl_ech_keys_stJEEEPT_DpOT0_
0000000000000000 t .text._ZN4bssl3NewINS_15ECHServerConfigEJEEEPT_DpOT0_
0000000000000000 t .text._ZN4bssl3NewINS_9ECHConfigEJS1_EEEPT_DpOT0_
0000000000000000 t .text._ZN4bssl4SpanIhE4lastEm
0000000000000000 t .text._ZN4bssl4SpanIhEC2EPhm
0000000000000000 t .text._ZN4bssl4SpanIKhE4lastEm
0000000000000000 t .text._ZN4bssl4SpanIKhEC1EPS1_m
0000000000000000 t .text._ZN4bssl4SpanIKhEC1Ev
0000000000000000 t .text._ZN4bssl4SpanIKhEC2INS_5ArrayIhEEvS5_EERKT_
0000000000000000 t .text._ZN4bssl5ArrayIhE4dataEv
0000000000000000 t .text._ZN4bssl5ArrayIhE4InitEm
0000000000000000 t .text._ZN4bssl5ArrayIhE5ResetEPhm
0000000000000000 t .text._ZN4bssl5ArrayIhE5ResetEv
0000000000000000 t .text._ZN4bssl5ArrayIhE6ShrinkEm
0000000000000000 t .text._ZN4bssl5ArrayIhE7ReleaseEPPhPm
0000000000000000 t .text._ZN4bssl5ArrayIhE8CopyFromENS_4SpanIKhEE
0000000000000000 t .text._ZN4bssl5ArrayIhEaSEOS1_
0000000000000000 t .text._ZN4bssl5ArrayIhEC2EOS1_
0000000000000000 t .text._ZN4bssl5ArrayIhEC2Ev
0000000000000000 t .text._ZN4bssl5ArrayIhED2Ev
0000000000000000 t .text._ZN4bssl5ArrayISt10unique_ptrINS_15ECHServerConfigENS_8internal7DeleterEEE4dataEv
0000000000000000 t .text._ZN4bssl5ArrayISt10unique_ptrINS_15ECHServerConfigENS_8internal7DeleterEEE4InitEm
0000000000000000 t .text._ZN4bssl5ArrayISt10unique_ptrINS_15ECHServerConfigENS_8internal7DeleterEEE5ResetEPS5_m
0000000000000000 t .text._ZN4bssl5ArrayISt10unique_ptrINS_15ECHServerConfigENS_8internal7DeleterEEE5ResetEv
0000000000000000 t .text._ZN4bssl5ArrayISt10unique_ptrINS_15ECHServerConfigENS_8internal7DeleterEEE7ReleaseEPPS5_Pm
0000000000000000 t .text._ZN4bssl5ArrayISt10unique_ptrINS_15ECHServerConfigENS_8internal7DeleterEEEaSEOS6_
0000000000000000 t .text._ZN4bssl5ArrayISt10unique_ptrINS_15ECHServerConfigENS_8internal7DeleterEEEC2Ev
0000000000000000 t .text._ZN4bssl5ArrayISt10unique_ptrINS_15ECHServerConfigENS_8internal7DeleterEEED2Ev
0000000000000000 t .text._ZN4bssl5ArrayISt10unique_ptrINS_15ECHServerConfigENS_8internal7DeleterEEEixEm
0000000000000000 t .text._ZN4bssl5UpRefEP15ssl_ech_keys_st
0000000000000000 t .text._ZN4bssl6DeleteINS_15ECHServerConfigEEEvPT_
0000000000000000 t .text._ZN4bssl6DeleteINS_9ECHConfigEEEvPT_
0000000000000000 t .text._ZN4bssl8internal11DeleterImplI15ssl_ech_keys_stvE4FreeEPS2_
0000000000000000 t .text._ZN4bssl8internal11DeleterImplINS_15ECHServerConfigEvE4FreeEPS2_
0000000000000000 t .text._ZN4bssl8internal11DeleterImplINS_9ECHConfigEvE4FreeEPS2_
0000000000000000 t .text._ZN4bssl8internal13MutexLockBaseIXadL_Z23CRYPTO_MUTEX_lock_writeEEXadL_Z25CRYPTO_MUTEX_unlock_writeEEEC2EP15crypto_mutex_st
0000000000000000 t .text._ZN4bssl8internal13MutexLockBaseIXadL_Z23CRYPTO_MUTEX_lock_writeEEXadL_Z25CRYPTO_MUTEX_unlock_writeEEED2Ev
0000000000000000 t .text._ZN4bssl8internal14StackAllocatedI15evp_hpke_ctx_stvXadL_Z17EVP_HPKE_CTX_zeroEEXadL_Z20EVP_HPKE_CTX_cleanupEEE3getEv
0000000000000000 t .text._ZN4bssl8internal14StackAllocatedI15evp_hpke_key_stvXadL_Z17EVP_HPKE_KEY_zeroEEXadL_Z20EVP_HPKE_KEY_cleanupEEE3getEv
0000000000000000 t .text._ZN4bssl8internal14StackAllocatedI15evp_hpke_key_stvXadL_Z17EVP_HPKE_KEY_zeroEEXadL_Z20EVP_HPKE_KEY_cleanupEEEC2Ev
0000000000000000 t .text._ZN4bssl8internal14StackAllocatedI15evp_hpke_key_stvXadL_Z17EVP_HPKE_KEY_zeroEEXadL_Z20EVP_HPKE_KEY_cleanupEEED2Ev
0000000000000000 t .text._ZN4bssl8internal14StackAllocatedI6cbb_stvXadL_Z8CBB_zeroEEXadL_Z11CBB_cleanupEEE3getEv
0000000000000000 t .text._ZN4bssl8internal14StackAllocatedI6cbb_stvXadL_Z8CBB_zeroEEXadL_Z11CBB_cleanupEEEC2Ev
0000000000000000 t .text._ZN4bssl8internal14StackAllocatedI6cbb_stvXadL_Z8CBB_zeroEEXadL_Z11CBB_cleanupEEED2Ev
0000000000000000 t .text._ZN4bssl8internal7DeleterclI15ssl_ech_keys_stEEvPT_
0000000000000000 t .text._ZN4bssl8internal7DeleterclINS_15ECHServerConfigEEEvPT_
0000000000000000 t .text._ZN4bssl8internal7DeleterclINS_9ECHConfigEEEvPT_
0000000000000000 t .text._ZN4bssl8internaleqENS_4SpanIKhEES3_
0000000000000000 t .text._ZN4bssl8internalneENS_4SpanIKhEES3_
0000000000000000 t .text._ZN4bssl8MakeSpanIhEENS_4SpanIT_EEPS2_m
0000000000000000 t .text._ZN4bssl8MakeSpanINS_5ArrayIhEEEEDTcl8MakeSpancldtfp_4dataEcldtfp_4sizeEEERT_
0000000000000000 t .text._ZN4bssl9ECHConfigC2EOS0_
0000000000000000 t .text._ZN4bssl9ECHConfigC2Ev
0000000000000000 t .text._ZN4bssl9ECHConfigD2Ev
0000000000000000 t .text._ZN4bsslL11random_sizeEmm
0000000000000000 t .text._ZN4bsslL12get_ech_aeadEt
0000000000000000 t .text._ZN4bsslL13aead_overheadEPK16evp_hpke_aead_st
0000000000000000 t .text._ZN4bsslL16is_hex_componentENS_4SpanIKhEE
0000000000000000 t .text._ZN4bsslL16parse_ech_configEP6cbs_stPNS_9ECHConfigEPbb
0000000000000000 t .text._ZN4bsslL16setup_ech_greaseEPNS_13SSL_HANDSHAKEE
0000000000000000 t .text._ZN4bsslL20is_decimal_componentENS_4SpanIKhEE
0000000000000000 t .text._ZN4bsslL23select_ech_cipher_suiteEPPK15evp_hpke_kdf_stPPK16evp_hpke_aead_stNS_4SpanIKhEEb
0000000000000000 t .text._ZN4bsslL27is_valid_client_hello_innerEP6ssl_stPhNS_4SpanIKhEE
0000000000000000 t .text._ZN4bsslL41ssl_client_hello_write_without_extensionsEPK22ssl_early_callback_ctxP6cbb_st
0000000000000000 t .text._ZN6cbs_stC2EN4bssl4SpanIKhEE
0000000000000000 t .text._ZN9__gnu_cxx5__ops16_Iter_equals_valIKcEC2ERS2_
0000000000000000 t .text._ZN9__gnu_cxx5__ops16_Iter_equals_valIKcEclIPKhEEbT_
0000000000000000 t .text._ZN9__gnu_cxx5__ops17__iter_equals_valIKcEENS0_16_Iter_equals_valIT_EERS4_
0000000000000000 t .text._ZNK4bssl13GrowableArrayISt10unique_ptrINS_15ECHServerConfigENS_8internal7DeleterEEE3endEv
0000000000000000 t .text._ZNK4bssl13GrowableArrayISt10unique_ptrINS_15ECHServerConfigENS_8internal7DeleterEEE5beginEv
0000000000000000 t .text._ZNK4bssl15ECHServerConfig10ech_configEv
0000000000000000 t .text._ZNK4bssl15ECHServerConfig12SetupContextEP15evp_hpke_ctx_stttNS_4SpanIKhEE
0000000000000000 t .text._ZNK4bssl15ECHServerConfig15is_retry_configEv
0000000000000000 t .text._ZNK4bssl4SpanIhE4dataEv
0000000000000000 t .text._ZNK4bssl4SpanIhE4sizeEv
0000000000000000 t .text._ZNK4bssl4SpanIhE7subspanEmm
0000000000000000 t .text._ZNK4bssl4SpanIKhE3endEv
0000000000000000 t .text._ZNK4bssl4SpanIKhE4backEv
0000000000000000 t .text._ZNK4bssl4SpanIKhE4dataEv
0000000000000000 t .text._ZNK4bssl4SpanIKhE4sizeEv
0000000000000000 t .text._ZNK4bssl4SpanIKhE5beginEv
0000000000000000 t .text._ZNK4bssl4SpanIKhE5emptyEv
0000000000000000 t .text._ZNK4bssl4SpanIKhE5frontEv
0000000000000000 t .text._ZNK4bssl4SpanIKhE7subspanEmm
0000000000000000 t .text._ZNK4bssl4SpanIKhEixEm
0000000000000000 t .text._ZNK4bssl5ArrayIhE4dataEv
0000000000000000 t .text._ZNK4bssl5ArrayIhE4sizeEv
0000000000000000 t .text._ZNK4bssl5ArrayIhE5emptyEv
0000000000000000 t .text._ZNK4bssl5ArrayISt10unique_ptrINS_15ECHServerConfigENS_8internal7DeleterEEE4dataEv
0000000000000000 t .text._ZNK4bssl5ArrayISt10unique_ptrINS_15ECHServerConfigENS_8internal7DeleterEEE4sizeEv
0000000000000000 t .text._ZNK4bssl8internal14StackAllocatedI15evp_hpke_key_stvXadL_Z17EVP_HPKE_KEY_zeroEEXadL_Z20EVP_HPKE_KEY_cleanupEEE3getEv
0000000000000000 t .text._ZNK6cbs_stcvN4bssl4SpanIKhEEEv
0000000000000000 t .text._ZNKSt10unique_ptrIcN4bssl8internal7DeleterEE3getEv
0000000000000000 t .text._ZNKSt10unique_ptrIcN4bssl8internal7DeleterEEcvbEv
0000000000000000 t .text._ZNKSt10unique_ptrIN4bssl10SSL_CONFIGENS0_8internal7DeleterEE3getEv
0000000000000000 t .text._ZNKSt10unique_ptrIN4bssl10SSL_CONFIGENS0_8internal7DeleterEEcvbEv
0000000000000000 t .text._ZNKSt10unique_ptrIN4bssl10SSL_CONFIGENS0_8internal7DeleterEEptEv
0000000000000000 t .text._ZNKSt10unique_ptrIN4bssl13SSL_HANDSHAKEENS0_8internal7DeleterEE3getEv
0000000000000000 t .text._ZNKSt10unique_ptrIN4bssl13SSL_HANDSHAKEENS0_8internal7DeleterEEptEv
0000000000000000 t .text._ZNKSt10unique_ptrIN4bssl15ECHServerConfigENS0_8internal7DeleterEE3getEv
0000000000000000 t .text._ZNKSt10unique_ptrIN4bssl15ECHServerConfigENS0_8internal7DeleterEEcvbEv
0000000000000000 t .text._ZNKSt10unique_ptrIN4bssl15ECHServerConfigENS0_8internal7DeleterEEptEv
0000000000000000 t .text._ZNKSt10unique_ptrIN4bssl9ECHConfigENS0_8internal7DeleterEE3getEv
0000000000000000 t .text._ZNKSt10unique_ptrIN4bssl9ECHConfigENS0_8internal7DeleterEEcvbEv
0000000000000000 t .text._ZNKSt10unique_ptrIN4bssl9ECHConfigENS0_8internal7DeleterEEptEv
0000000000000000 t .text._ZNKSt15__uniq_ptr_implIcN4bssl8internal7DeleterEE6_M_ptrEv
0000000000000000 t .text._ZNKSt15__uniq_ptr_implIN4bssl10SSL_CONFIGENS0_8internal7DeleterEE6_M_ptrEv
0000000000000000 t .text._ZNKSt15__uniq_ptr_implIN4bssl13SSL_HANDSHAKEENS0_8internal7DeleterEE6_M_ptrEv
0000000000000000 t .text._ZNKSt15__uniq_ptr_implIN4bssl15ECHServerConfigENS0_8internal7DeleterEE6_M_ptrEv
0000000000000000 t .text._ZNKSt15__uniq_ptr_implIN4bssl9ECHConfigENS0_8internal7DeleterEE6_M_ptrEv
0000000000000000 t .text._ZNSt10_Head_baseILm0EP15ssl_ech_keys_stLb0EE7_M_headERS2_
0000000000000000 t .text._ZNSt10_Head_baseILm0EP15ssl_ech_keys_stLb0EEC2Ev
0000000000000000 t .text._ZNSt10_Head_baseILm0EPcLb0EE7_M_headERKS1_
0000000000000000 t .text._ZNSt10_Head_baseILm0EPN4bssl10SSL_CONFIGELb0EE7_M_headERKS3_
0000000000000000 t .text._ZNSt10_Head_baseILm0EPN4bssl13SSL_HANDSHAKEELb0EE7_M_headERKS3_
0000000000000000 t .text._ZNSt10_Head_baseILm0EPN4bssl15ECHServerConfigELb0EE7_M_headERKS3_
0000000000000000 t .text._ZNSt10_Head_baseILm0EPN4bssl15ECHServerConfigELb0EE7_M_headERS3_
0000000000000000 t .text._ZNSt10_Head_baseILm0EPN4bssl15ECHServerConfigELb0EEC2Ev
0000000000000000 t .text._ZNSt10_Head_baseILm0EPN4bssl15ECHServerConfigELb0EEC2IRS2_EEOT_
0000000000000000 t .text._ZNSt10_Head_baseILm0EPN4bssl9ECHConfigELb0EE7_M_headERKS3_
0000000000000000 t .text._ZNSt10_Head_baseILm0EPN4bssl9ECHConfigELb0EE7_M_headERS3_
0000000000000000 t .text._ZNSt10_Head_baseILm0EPN4bssl9ECHConfigELb0EEC2Ev
0000000000000000 t .text._ZNSt10_Head_baseILm1EN4bssl8internal7DeleterELb1EE7_M_headERS3_
0000000000000000 t .text._ZNSt10_Head_baseILm1EN4bssl8internal7DeleterELb1EEC2Ev
0000000000000000 t .text._ZNSt10_Head_baseILm1EN4bssl8internal7DeleterELb1EEC2IS2_EEOT_
0000000000000000 t .text._ZNSt10unique_ptrI15ssl_ech_keys_stN4bssl8internal7DeleterEE11get_deleterEv
0000000000000000 t .text._ZNSt10unique_ptrI15ssl_ech_keys_stN4bssl8internal7DeleterEE4swapERS4_
0000000000000000 t .text._ZNSt10unique_ptrI15ssl_ech_keys_stN4bssl8internal7DeleterEEC2IS3_vEEPS0_
0000000000000000 t .text._ZNSt10unique_ptrI15ssl_ech_keys_stN4bssl8internal7DeleterEED2Ev
0000000000000000 t .text._ZNSt10unique_ptrIN4bssl15ECHServerConfigENS0_8internal7DeleterEE11get_deleterEv
0000000000000000 t .text._ZNSt10unique_ptrIN4bssl15ECHServerConfigENS0_8internal7DeleterEE5resetEPS1_
0000000000000000 t .text._ZNSt10unique_ptrIN4bssl15ECHServerConfigENS0_8internal7DeleterEE7releaseEv
0000000000000000 t .text._ZNSt10unique_ptrIN4bssl15ECHServerConfigENS0_8internal7DeleterEEaSEOS4_
0000000000000000 t .text._ZNSt10unique_ptrIN4bssl15ECHServerConfigENS0_8internal7DeleterEEC2EOS4_
0000000000000000 t .text._ZNSt10unique_ptrIN4bssl15ECHServerConfigENS0_8internal7DeleterEEC2IS3_vEEPS1_
0000000000000000 t .text._ZNSt10unique_ptrIN4bssl15ECHServerConfigENS0_8internal7DeleterEEC2IS3_vEEv
0000000000000000 t .text._ZNSt10unique_ptrIN4bssl15ECHServerConfigENS0_8internal7DeleterEED2Ev
0000000000000000 t .text._ZNSt10unique_ptrIN4bssl9ECHConfigENS0_8internal7DeleterEE11get_deleterEv
0000000000000000 t .text._ZNSt10unique_ptrIN4bssl9ECHConfigENS0_8internal7DeleterEE5resetEPS1_
0000000000000000 t .text._ZNSt10unique_ptrIN4bssl9ECHConfigENS0_8internal7DeleterEE7releaseEv
0000000000000000 t .text._ZNSt10unique_ptrIN4bssl9ECHConfigENS0_8internal7DeleterEEaSEOS4_
0000000000000000 t .text._ZNSt10unique_ptrIN4bssl9ECHConfigENS0_8internal7DeleterEEC2IS3_vEEPS1_
0000000000000000 t .text._ZNSt10unique_ptrIN4bssl9ECHConfigENS0_8internal7DeleterEED2Ev
0000000000000000 t .text._ZNSt11_Tuple_implILm0EJP15ssl_ech_keys_stN4bssl8internal7DeleterEEE7_M_headERS5_
0000000000000000 t .text._ZNSt11_Tuple_implILm0EJP15ssl_ech_keys_stN4bssl8internal7DeleterEEEC2Ev
0000000000000000 t .text._ZNSt11_Tuple_implILm0EJPcN4bssl8internal7DeleterEEE7_M_headERKS4_
0000000000000000 t .text._ZNSt11_Tuple_implILm0EJPN4bssl10SSL_CONFIGENS0_8internal7DeleterEEE7_M_headERKS5_
0000000000000000 t .text._ZNSt11_Tuple_implILm0EJPN4bssl13SSL_HANDSHAKEENS0_8internal7DeleterEEE7_M_headERKS5_
0000000000000000 t .text._ZNSt11_Tuple_implILm0EJPN4bssl15ECHServerConfigENS0_8internal7DeleterEEE7_M_headERKS5_
0000000000000000 t .text._ZNSt11_Tuple_implILm0EJPN4bssl15ECHServerConfigENS0_8internal7DeleterEEE7_M_headERS5_
0000000000000000 t .text._ZNSt11_Tuple_implILm0EJPN4bssl15ECHServerConfigENS0_8internal7DeleterEEEC2Ev
0000000000000000 t .text._ZNSt11_Tuple_implILm0EJPN4bssl15ECHServerConfigENS0_8internal7DeleterEEEC2IRS2_JS4_EvEEOT_DpOT0_
0000000000000000 t .text._ZNSt11_Tuple_implILm0EJPN4bssl9ECHConfigENS0_8internal7DeleterEEE7_M_headERKS5_
0000000000000000 t .text._ZNSt11_Tuple_implILm0EJPN4bssl9ECHConfigENS0_8internal7DeleterEEE7_M_headERS5_
0000000000000000 t .text._ZNSt11_Tuple_implILm0EJPN4bssl9ECHConfigENS0_8internal7DeleterEEEC2Ev
0000000000000000 t .text._ZNSt11_Tuple_implILm1EJN4bssl8internal7DeleterEEE7_M_headERS3_
0000000000000000 t .text._ZNSt11_Tuple_implILm1EJN4bssl8internal7DeleterEEEC2Ev
0000000000000000 t .text._ZNSt11_Tuple_implILm1EJN4bssl8internal7DeleterEEEC2IS2_EEOT_
0000000000000000 t .text._ZNSt14numeric_limitsImE3maxEv
0000000000000000 t .text._ZNSt15__uniq_ptr_implI15ssl_ech_keys_stN4bssl8internal7DeleterEE10_M_deleterEv
0000000000000000 t .text._ZNSt15__uniq_ptr_implI15ssl_ech_keys_stN4bssl8internal7DeleterEE4swapERS4_
0000000000000000 t .text._ZNSt15__uniq_ptr_implI15ssl_ech_keys_stN4bssl8internal7DeleterEE6_M_ptrEv
0000000000000000 t .text._ZNSt15__uniq_ptr_implI15ssl_ech_keys_stN4bssl8internal7DeleterEEC2EPS0_
0000000000000000 t .text._ZNSt15__uniq_ptr_implIN4bssl15ECHServerConfigENS0_8internal7DeleterEE10_M_deleterEv
0000000000000000 t .text._ZNSt15__uniq_ptr_implIN4bssl15ECHServerConfigENS0_8internal7DeleterEE6_M_ptrEv
0000000000000000 t .text._ZNSt15__uniq_ptr_implIN4bssl15ECHServerConfigENS0_8internal7DeleterEEC2EPS1_
0000000000000000 t .text._ZNSt15__uniq_ptr_implIN4bssl15ECHServerConfigENS0_8internal7DeleterEEC2Ev
0000000000000000 t .text._ZNSt15__uniq_ptr_implIN4bssl15ECHServerConfigENS0_8internal7DeleterEEC2IS3_EEPS1_OT_
0000000000000000 t .text._ZNSt15__uniq_ptr_implIN4bssl9ECHConfigENS0_8internal7DeleterEE10_M_deleterEv
0000000000000000 t .text._ZNSt15__uniq_ptr_implIN4bssl9ECHConfigENS0_8internal7DeleterEE6_M_ptrEv
0000000000000000 t .text._ZNSt15__uniq_ptr_implIN4bssl9ECHConfigENS0_8internal7DeleterEEC2EPS1_
0000000000000000 t .text._ZNSt5tupleIJP15ssl_ech_keys_stN4bssl8internal7DeleterEEEC2IS1_S4_Lb1EEEv
0000000000000000 t .text._ZNSt5tupleIJPN4bssl15ECHServerConfigENS0_8internal7DeleterEEEC2IRS2_S4_Lb1EEEOT_OT0_
0000000000000000 t .text._ZNSt5tupleIJPN4bssl15ECHServerConfigENS0_8internal7DeleterEEEC2IS2_S4_Lb1EEEv
0000000000000000 t .text._ZNSt5tupleIJPN4bssl9ECHConfigENS0_8internal7DeleterEEEC2IS2_S4_Lb1EEEv
0000000000000000 t .text._ZnwmPv
0000000000000000 t .text._ZSt12__get_helperILm0EP15ssl_ech_keys_stJN4bssl8internal7DeleterEEERT0_RSt11_Tuple_implIXT_EJS5_DpT1_EE
0000000000000000 t .text._ZSt12__get_helperILm0EPcJN4bssl8internal7DeleterEEERKT0_RKSt11_Tuple_implIXT_EJS4_DpT1_EE
0000000000000000 t .text._ZSt12__get_helperILm0EPN4bssl10SSL_CONFIGEJNS0_8internal7DeleterEEERKT0_RKSt11_Tuple_implIXT_EJS5_DpT1_EE
0000000000000000 t .text._ZSt12__get_helperILm0EPN4bssl13SSL_HANDSHAKEEJNS0_8internal7DeleterEEERKT0_RKSt11_Tuple_implIXT_EJS5_DpT1_EE
0000000000000000 t .text._ZSt12__get_helperILm0EPN4bssl15ECHServerConfigEJNS0_8internal7DeleterEEERKT0_RKSt11_Tuple_implIXT_EJS5_DpT1_EE
0000000000000000 t .text._ZSt12__get_helperILm0EPN4bssl15ECHServerConfigEJNS0_8internal7DeleterEEERT0_RSt11_Tuple_implIXT_EJS5_DpT1_EE
0000000000000000 t .text._ZSt12__get_helperILm0EPN4bssl9ECHConfigEJNS0_8internal7DeleterEEERKT0_RKSt11_Tuple_implIXT_EJS5_DpT1_EE
0000000000000000 t .text._ZSt12__get_helperILm0EPN4bssl9ECHConfigEJNS0_8internal7DeleterEEERT0_RSt11_Tuple_implIXT_EJS5_DpT1_EE
0000000000000000 t .text._ZSt12__get_helperILm1EN4bssl8internal7DeleterEJEERT0_RSt11_Tuple_implIXT_EJS3_DpT1_EE
0000000000000000 t .text._ZSt19__iterator_categoryIPKhENSt15iterator_traitsIT_E17iterator_categoryERKS3_
0000000000000000 t .text._ZSt3getILm0EJP15ssl_ech_keys_stN4bssl8internal7DeleterEEERNSt13tuple_elementIXT_ESt5tupleIJDpT0_EEE4typeERS9_
0000000000000000 t .text._ZSt3getILm0EJPcN4bssl8internal7DeleterEEERKNSt13tuple_elementIXT_ESt5tupleIJDpT0_EEE4typeERKS8_
0000000000000000 t .text._ZSt3getILm0EJPN4bssl10SSL_CONFIGENS0_8internal7DeleterEEERKNSt13tuple_elementIXT_ESt5tupleIJDpT0_EEE4typeERKS9_
0000000000000000 t .text._ZSt3getILm0EJPN4bssl13SSL_HANDSHAKEENS0_8internal7DeleterEEERKNSt13tuple_elementIXT_ESt5tupleIJDpT0_EEE4typeERKS9_
0000000000000000 t .text._ZSt3getILm0EJPN4bssl15ECHServerConfigENS0_8internal7DeleterEEERKNSt13tuple_elementIXT_ESt5tupleIJDpT0_EEE4typeERKS9_
0000000000000000 t .text._ZSt3getILm0EJPN4bssl15ECHServerConfigENS0_8internal7DeleterEEERNSt13tuple_elementIXT_ESt5tupleIJDpT0_EEE4typeERS9_
0000000000000000 t .text._ZSt3getILm0EJPN4bssl9ECHConfigENS0_8internal7DeleterEEERKNSt13tuple_elementIXT_ESt5tupleIJDpT0_EEE4typeERKS9_
0000000000000000 t .text._ZSt3getILm0EJPN4bssl9ECHConfigENS0_8internal7DeleterEEERNSt13tuple_elementIXT_ESt5tupleIJDpT0_EEE4typeERS9_
0000000000000000 t .text._ZSt3getILm1EJP15ssl_ech_keys_stN4bssl8internal7DeleterEEERNSt13tuple_elementIXT_ESt5tupleIJDpT0_EEE4typeERS9_
0000000000000000 t .text._ZSt3getILm1EJPN4bssl15ECHServerConfigENS0_8internal7DeleterEEERNSt13tuple_elementIXT_ESt5tupleIJDpT0_EEE4typeERS9_
0000000000000000 t .text._ZSt3getILm1EJPN4bssl9ECHConfigENS0_8internal7DeleterEEERNSt13tuple_elementIXT_ESt5tupleIJDpT0_EEE4typeERS9_
0000000000000000 t .text._ZSt3minImERKT_S2_S2_
0000000000000000 t .text._ZSt4findIPKhcET_S2_S2_RKT0_
0000000000000000 t .text._ZSt4moveIRN4bssl5ArrayIhEEEONSt16remove_referenceIT_E4typeEOS5_
0000000000000000 t .text._ZSt4moveIRN4bssl5ArrayISt10unique_ptrINS0_15ECHServerConfigENS0_8internal7DeleterEEEEEONSt16remove_referenceIT_E4typeEOSA_
0000000000000000 t .text._ZSt4moveIRN4bssl8internal7DeleterEEONSt16remove_referenceIT_E4typeEOS5_
0000000000000000 t .text._ZSt4moveIRN4bssl9ECHConfigEEONSt16remove_referenceIT_E4typeEOS4_
0000000000000000 t .text._ZSt4moveIRP15ssl_ech_keys_stEONSt16remove_referenceIT_E4typeEOS4_
0000000000000000 t .text._ZSt4moveIRPN4bssl15ECHServerConfigEEONSt16remove_referenceIT_E4typeEOS5_
0000000000000000 t .text._ZSt4moveIRPN4bssl9ECHConfigEEONSt16remove_referenceIT_E4typeEOS5_
0000000000000000 t .text._ZSt4moveIRSt10unique_ptrIN4bssl15ECHServerConfigENS1_8internal7DeleterEEEONSt16remove_referenceIT_E4typeEOS8_
0000000000000000 t .text._ZSt4swapIN4bssl8internal7DeleterEENSt9enable_ifIXsrSt6__and_IJSt6__not_ISt15__is_tuple_likeIT_EESt21is_move_constructibleIS7_ESt18is_move_assignableIS7_EEE5valueEvE4typeERS7_SH_
0000000000000000 t .text._ZSt4swapIP15ssl_ech_keys_stENSt9enable_ifIXsrSt6__and_IJSt6__not_ISt15__is_tuple_likeIT_EESt21is_move_constructibleIS6_ESt18is_move_assignableIS6_EEE5valueEvE4typeERS6_SG_
0000000000000000 t .text._ZSt4swapIPN4bssl15ECHServerConfigEENSt9enable_ifIXsrSt6__and_IJSt6__not_ISt15__is_tuple_likeIT_EESt21is_move_constructibleIS7_ESt18is_move_assignableIS7_EEE5valueEvE4typeERS7_SH_
0000000000000000 t .text._ZSt4swapIPN4bssl9ECHConfigEENSt9enable_ifIXsrSt6__and_IJSt6__not_ISt15__is_tuple_likeIT_EESt21is_move_constructibleIS7_ESt18is_move_assignableIS7_EEE5valueEvE4typeERS7_SH_
0000000000000000 t .text._ZSt7forwardIN4bssl8internal7DeleterEEOT_RNSt16remove_referenceIS3_E4typeE
0000000000000000 t .text._ZSt7forwardIN4bssl9ECHConfigEEOT_RNSt16remove_referenceIS2_E4typeE
0000000000000000 t .text._ZSt7forwardIRPN4bssl15ECHServerConfigEEOT_RNSt16remove_referenceIS4_E4typeE
0000000000000000 t .text._ZSt9__find_ifIPKhN9__gnu_cxx5__ops16_Iter_equals_valIKcEEET_S7_S7_T0_
0000000000000000 t .text._ZSt9__find_ifIPKhN9__gnu_cxx5__ops16_Iter_equals_valIKcEEET_S7_S7_T0_St26random_access_iterator_tag
0000000000000000 t .text._ZStneIN4bssl9ECHConfigENS0_8internal7DeleterEEbRKSt10unique_ptrIT_T0_EDn
                 U X25519_keypair
0000000000000000 W _ZN15ssl_ech_keys_stC1Ev
0000000000000000 W _ZN15ssl_ech_keys_stC2Ev
0000000000000000 n _ZN15ssl_ech_keys_stC5Ev
0000000000000000 W _ZN15ssl_ech_keys_stD1Ev
0000000000000000 W _ZN15ssl_ech_keys_stD2Ev
0000000000000000 n _ZN15ssl_ech_keys_stD5Ev
0000000000000000 W _ZN4bssl10MakeUniqueINS_15ECHServerConfigEJEEESt10unique_ptrIT_NS_8internal7DeleterEEDpOT0_
0000000000000000 W _ZN4bssl10MakeUniqueINS_9ECHConfigEJS1_EEESt10unique_ptrIT_NS_8internal7DeleterEEDpOT0_
0000000000000000 W _ZN4bssl13GrowableArrayISt10unique_ptrINS_15ECHServerConfigENS_8internal7DeleterEEE3endEv
0000000000000000 W _ZN4bssl13GrowableArrayISt10unique_ptrINS_15ECHServerConfigENS_8internal7DeleterEEE4PushES5_
0000000000000000 W _ZN4bssl13GrowableArrayISt10unique_ptrINS_15ECHServerConfigENS_8internal7DeleterEEE5beginEv
0000000000000000 W _ZN4bssl13GrowableArrayISt10unique_ptrINS_15ECHServerConfigENS_8internal7DeleterEEE9MaybeGrowEv
0000000000000000 W _ZN4bssl13GrowableArrayISt10unique_ptrINS_15ECHServerConfigENS_8internal7DeleterEEEC1Ev
0000000000000000 W _ZN4bssl13GrowableArrayISt10unique_ptrINS_15ECHServerConfigENS_8internal7DeleterEEEC2Ev
0000000000000000 n _ZN4bssl13GrowableArrayISt10unique_ptrINS_15ECHServerConfigENS_8internal7DeleterEEEC5Ev
0000000000000000 W _ZN4bssl13GrowableArrayISt10unique_ptrINS_15ECHServerConfigENS_8internal7DeleterEEED1Ev
0000000000000000 W _ZN4bssl13GrowableArrayISt10unique_ptrINS_15ECHServerConfigENS_8internal7DeleterEEED2Ev
0000000000000000 n _ZN4bssl13GrowableArrayISt10unique_ptrINS_15ECHServerConfigENS_8internal7DeleterEEED5Ev
0000000000000000 W _ZN4bssl13MakeConstSpanIhEENS_4SpanIKT_EEPS2_m
0000000000000000 W _ZN4bssl13MakeConstSpanIKhEENS_4SpanIKT_EEPS3_m
0000000000000000 W _ZN4bssl13MakeConstSpanINS_5ArrayIhEEEEDTcl13MakeConstSpancldtfp_4dataEcldtfp_4sizeEEERKT_
                 U _ZN4bssl13SSLTranscript4InitEv
                 U _ZN4bssl13SSLTranscript6UpdateENS_4SpanIKhEE
                 U _ZN4bssl14CBBFinishArrayEP6cbb_stPNS_5ArrayIhEE
0000000000000000 T _ZN4bssl15ECHServerConfig4InitENS_4SpanIKhEEPK15evp_hpke_key_stb
0000000000000000 W _ZN4bssl15ECHServerConfigC1Ev
0000000000000000 W _ZN4bssl15ECHServerConfigC2Ev
0000000000000000 n _ZN4bssl15ECHServerConfigC5Ev
0000000000000000 W _ZN4bssl15ECHServerConfigD1Ev
0000000000000000 W _ZN4bssl15ECHServerConfigD2Ev
0000000000000000 n _ZN4bssl15ECHServerConfigD5Ev
                 U _ZN4bssl19ssl_do_msg_callbackEPK6ssl_stiiNS_4SpanIKhEE
                 U _ZN4bssl21ssl_client_hello_initEPK6ssl_stP22ssl_early_callback_ctxNS_4SpanIKhEE
0000000000000000 T _ZN4bssl21ssl_select_ech_configEPNS_13SSL_HANDSHAKEENS_4SpanIhEEPm
                 U _ZN4bssl22tls13_write_psk_binderEPKNS_13SSL_HANDSHAKEERKNS_13SSLTranscriptENS_4SpanIhEEPm
0000000000000000 T _ZN4bssl24ssl_client_hello_decryptEPNS_13SSL_HANDSHAKEEPhPbPNS_5ArrayIhEEPK22ssl_early_callback_ctxNS_4SpanIKhEE
0000000000000000 T _ZN4bssl24ssl_encrypt_client_helloEPNS_13SSL_HANDSHAKEENS_4SpanIKhEE
                 U _ZN4bssl26ssl_add_clienthello_tlsextEPNS_13SSL_HANDSHAKEEP6cbb_stS3_PbNS_23ssl_client_hello_type_tEm
0000000000000000 T _ZN4bssl28ssl_is_valid_ech_config_listENS_4SpanIKhEE
0000000000000000 T _ZN4bssl28ssl_is_valid_ech_public_nameENS_4SpanIKhEE
0000000000000000 T _ZN4bssl29ssl_decode_client_hello_innerEP6ssl_stPhPNS_5ArrayIhEENS_4SpanIKhEEPK22ssl_early_callback_ctx
                 U _ZN4bssl30ssl_client_hello_get_extensionEPK22ssl_early_callback_ctxP6cbs_stt
0000000000000000 W _ZN4bssl3NewI15ssl_ech_keys_stJEEEPT_DpOT0_
0000000000000000 W _ZN4bssl3NewINS_15ECHServerConfigEJEEEPT_DpOT0_
0000000000000000 W _ZN4bssl3NewINS_9ECHConfigEJS1_EEEPT_DpOT0_
                 U _ZN4bssl41ssl_parse_client_hello_with_trailing_dataEPK6ssl_stP6cbs_stP22ssl_early_callback_ctx
                 U _ZN4bssl41ssl_write_client_hello_without_extensionsEPKNS_13SSL_HANDSHAKEEP6cbb_stNS_23ssl_client_hello_type_tEb
0000000000000000 W _ZN4bssl4SpanIhE4lastEm
0000000000000000 W _ZN4bssl4SpanIhEC1EPhm
0000000000000000 W _ZN4bssl4SpanIhEC2EPhm
0000000000000000 n _ZN4bssl4SpanIhEC5EPhm
0000000000000000 W _ZN4bssl4SpanIKhE4lastEm
0000000000000000 W _ZN4bssl4SpanIKhEC1EPS1_m
0000000000000000 W _ZN4bssl4SpanIKhEC1Ev
0000000000000000 W _ZN4bssl4SpanIKhEC1INS_5ArrayIhEEvS5_EERKT_
0000000000000000 W _ZN4bssl4SpanIKhEC2INS_5ArrayIhEEvS5_EERKT_
0000000000000000 n _ZN4bssl4SpanIKhEC5INS_5ArrayIhEEvS5_EERKT_
0000000000000000 W _ZN4bssl5ArrayIhE4dataEv
0000000000000000 W _ZN4bssl5ArrayIhE4InitEm
0000000000000000 W _ZN4bssl5ArrayIhE5ResetEPhm
0000000000000000 W _ZN4bssl5ArrayIhE5ResetEv
0000000000000000 W _ZN4bssl5ArrayIhE6ShrinkEm
0000000000000000 W _ZN4bssl5ArrayIhE7ReleaseEPPhPm
0000000000000000 W _ZN4bssl5ArrayIhE8CopyFromENS_4SpanIKhEE
0000000000000000 W _ZN4bssl5ArrayIhEaSEOS1_
0000000000000000 W _ZN4bssl5ArrayIhEC1EOS1_
0000000000000000 W _ZN4bssl5ArrayIhEC1Ev
0000000000000000 W _ZN4bssl5ArrayIhEC2EOS1_
0000000000000000 W _ZN4bssl5ArrayIhEC2Ev
0000000000000000 n _ZN4bssl5ArrayIhEC5EOS1_
0000000000000000 n _ZN4bssl5ArrayIhEC5Ev
0000000000000000 W _ZN4bssl5ArrayIhED1Ev
0000000000000000 W _ZN4bssl5ArrayIhED2Ev
0000000000000000 n _ZN4bssl5ArrayIhED5Ev
0000000000000000 W _ZN4bssl5ArrayISt10unique_ptrINS_15ECHServerConfigENS_8internal7DeleterEEE4dataEv
0000000000000000 W _ZN4bssl5ArrayISt10unique_ptrINS_15ECHServerConfigENS_8internal7DeleterEEE4InitEm
0000000000000000 W _ZN4bssl5ArrayISt10unique_ptrINS_15ECHServerConfigENS_8internal7DeleterEEE5ResetEPS5_m
0000000000000000 W _ZN4bssl5ArrayISt10unique_ptrINS_15ECHServerConfigENS_8internal7DeleterEEE5ResetEv
0000000000000000 W _ZN4bssl5ArrayISt10unique_ptrINS_15ECHServerConfigENS_8internal7DeleterEEE7ReleaseEPPS5_Pm
0000000000000000 W _ZN4bssl5ArrayISt10unique_ptrINS_15ECHServerConfigENS_8internal7DeleterEEEaSEOS6_
0000000000000000 W _ZN4bssl5ArrayISt10unique_ptrINS_15ECHServerConfigENS_8internal7DeleterEEEC1Ev
0000000000000000 W _ZN4bssl5ArrayISt10unique_ptrINS_15ECHServerConfigENS_8internal7DeleterEEEC2Ev
0000000000000000 n _ZN4bssl5ArrayISt10unique_ptrINS_15ECHServerConfigENS_8internal7DeleterEEEC5Ev
0000000000000000 W _ZN4bssl5ArrayISt10unique_ptrINS_15ECHServerConfigENS_8internal7DeleterEEED1Ev
0000000000000000 W _ZN4bssl5ArrayISt10unique_ptrINS_15ECHServerConfigENS_8internal7DeleterEEED2Ev
0000000000000000 n _ZN4bssl5ArrayISt10unique_ptrINS_15ECHServerConfigENS_8internal7DeleterEEED5Ev
0000000000000000 W _ZN4bssl5ArrayISt10unique_ptrINS_15ECHServerConfigENS_8internal7DeleterEEEixEm
0000000000000000 W _ZN4bssl5UpRefEP15ssl_ech_keys_st
0000000000000000 W _ZN4bssl6DeleteINS_15ECHServerConfigEEEvPT_
0000000000000000 W _ZN4bssl6DeleteINS_9ECHConfigEEEvPT_
0000000000000000 W _ZN4bssl8internal11DeleterImplI15ssl_ech_keys_stvE4FreeEPS2_
0000000000000000 W _ZN4bssl8internal11DeleterImplINS_15ECHServerConfigEvE4FreeEPS2_
0000000000000000 W _ZN4bssl8internal11DeleterImplINS_9ECHConfigEvE4FreeEPS2_
0000000000000000 W _ZN4bssl8internal13MutexLockBaseIXadL_Z23CRYPTO_MUTEX_lock_writeEEXadL_Z25CRYPTO_MUTEX_unlock_writeEEEC1EP15crypto_mutex_st
0000000000000000 W _ZN4bssl8internal13MutexLockBaseIXadL_Z23CRYPTO_MUTEX_lock_writeEEXadL_Z25CRYPTO_MUTEX_unlock_writeEEEC2EP15crypto_mutex_st
0000000000000000 n _ZN4bssl8internal13MutexLockBaseIXadL_Z23CRYPTO_MUTEX_lock_writeEEXadL_Z25CRYPTO_MUTEX_unlock_writeEEEC5EP15crypto_mutex_st
0000000000000000 W _ZN4bssl8internal13MutexLockBaseIXadL_Z23CRYPTO_MUTEX_lock_writeEEXadL_Z25CRYPTO_MUTEX_unlock_writeEEED1Ev
0000000000000000 W _ZN4bssl8internal13MutexLockBaseIXadL_Z23CRYPTO_MUTEX_lock_writeEEXadL_Z25CRYPTO_MUTEX_unlock_writeEEED2Ev
0000000000000000 n _ZN4bssl8internal13MutexLockBaseIXadL_Z23CRYPTO_MUTEX_lock_writeEEXadL_Z25CRYPTO_MUTEX_unlock_writeEEED5Ev
0000000000000000 W _ZN4bssl8internal14StackAllocatedI15evp_hpke_ctx_stvXadL_Z17EVP_HPKE_CTX_zeroEEXadL_Z20EVP_HPKE_CTX_cleanupEEE3getEv
0000000000000000 W _ZN4bssl8internal14StackAllocatedI15evp_hpke_key_stvXadL_Z17EVP_HPKE_KEY_zeroEEXadL_Z20EVP_HPKE_KEY_cleanupEEE3getEv
0000000000000000 W _ZN4bssl8internal14StackAllocatedI15evp_hpke_key_stvXadL_Z17EVP_HPKE_KEY_zeroEEXadL_Z20EVP_HPKE_KEY_cleanupEEEC1Ev
0000000000000000 W _ZN4bssl8internal14StackAllocatedI15evp_hpke_key_stvXadL_Z17EVP_HPKE_KEY_zeroEEXadL_Z20EVP_HPKE_KEY_cleanupEEEC2Ev
0000000000000000 n _ZN4bssl8internal14StackAllocatedI15evp_hpke_key_stvXadL_Z17EVP_HPKE_KEY_zeroEEXadL_Z20EVP_HPKE_KEY_cleanupEEEC5Ev
0000000000000000 W _ZN4bssl8internal14StackAllocatedI15evp_hpke_key_stvXadL_Z17EVP_HPKE_KEY_zeroEEXadL_Z20EVP_HPKE_KEY_cleanupEEED1Ev
0000000000000000 W _ZN4bssl8internal14StackAllocatedI15evp_hpke_key_stvXadL_Z17EVP_HPKE_KEY_zeroEEXadL_Z20EVP_HPKE_KEY_cleanupEEED2Ev
0000000000000000 n _ZN4bssl8internal14StackAllocatedI15evp_hpke_key_stvXadL_Z17EVP_HPKE_KEY_zeroEEXadL_Z20EVP_HPKE_KEY_cleanupEEED5Ev
0000000000000000 W _ZN4bssl8internal14StackAllocatedI6cbb_stvXadL_Z8CBB_zeroEEXadL_Z11CBB_cleanupEEE3getEv
0000000000000000 W _ZN4bssl8internal14StackAllocatedI6cbb_stvXadL_Z8CBB_zeroEEXadL_Z11CBB_cleanupEEEC1Ev
0000000000000000 W _ZN4bssl8internal14StackAllocatedI6cbb_stvXadL_Z8CBB_zeroEEXadL_Z11CBB_cleanupEEEC2Ev
0000000000000000 n _ZN4bssl8internal14StackAllocatedI6cbb_stvXadL_Z8CBB_zeroEEXadL_Z11CBB_cleanupEEEC5Ev
0000000000000000 W _ZN4bssl8internal14StackAllocatedI6cbb_stvXadL_Z8CBB_zeroEEXadL_Z11CBB_cleanupEEED1Ev
0000000000000000 W _ZN4bssl8internal14StackAllocatedI6cbb_stvXadL_Z8CBB_zeroEEXadL_Z11CBB_cleanupEEED2Ev
0000000000000000 n _ZN4bssl8internal14StackAllocatedI6cbb_stvXadL_Z8CBB_zeroEEXadL_Z11CBB_cleanupEEED5Ev
0000000000000000 W _ZN4bssl8internal7DeleterclI15ssl_ech_keys_stEEvPT_
0000000000000000 W _ZN4bssl8internal7DeleterclINS_15ECHServerConfigEEEvPT_
0000000000000000 W _ZN4bssl8internal7DeleterclINS_9ECHConfigEEEvPT_
0000000000000000 W _ZN4bssl8internaleqENS_4SpanIKhEES3_
0000000000000000 W _ZN4bssl8internalneENS_4SpanIKhEES3_
0000000000000000 W _ZN4bssl8MakeSpanIhEENS_4SpanIT_EEPS2_m
0000000000000000 W _ZN4bssl8MakeSpanINS_5ArrayIhEEEEDTcl8MakeSpancldtfp_4dataEcldtfp_4sizeEEERT_
0000000000000000 W _ZN4bssl9ECHConfigC1EOS0_
0000000000000000 W _ZN4bssl9ECHConfigC1Ev
0000000000000000 W _ZN4bssl9ECHConfigC2EOS0_
0000000000000000 W _ZN4bssl9ECHConfigC2Ev
0000000000000000 n _ZN4bssl9ECHConfigC5EOS0_
0000000000000000 n _ZN4bssl9ECHConfigC5Ev
0000000000000000 W _ZN4bssl9ECHConfigD1Ev
0000000000000000 W _ZN4bssl9ECHConfigD2Ev
0000000000000000 n _ZN4bssl9ECHConfigD5Ev
0000000000000000 r _ZN4bsslL11kMaxTicketsE
0000000000000000 t _ZN4bsslL11random_sizeEmm
0000000000000000 t _ZN4bsslL12get_ech_aeadEt
0000000000000000 t _ZN4bsslL13aead_overheadEPK16evp_hpke_aead_st
0000000000000000 d _ZN4bsslL15kSupportedAEADsE
0000000000000000 t _ZN4bsslL16is_hex_componentENS_4SpanIKhEE
0000000000000000 t _ZN4bsslL16parse_ech_configEP6cbs_stPNS_9ECHConfigEPbb
0000000000000000 t _ZN4bsslL16setup_ech_greaseEPNS_13SSL_HANDSHAKEE
0000000000000000 r _ZN4bsslL17kECHConfigVersionE
0000000000000000 t _ZN4bsslL20is_decimal_componentENS_4SpanIKhEE
0000000000000000 r _ZN4bsslL21kMaxEarlyDataAcceptedE
0000000000000000 t _ZN4bsslL23select_ech_cipher_suiteEPPK15evp_hpke_kdf_stPPK16evp_hpke_aead_stNS_4SpanIKhEEb
0000000000000000 t _ZN4bsslL27is_valid_client_hello_innerEP6ssl_stPhNS_4SpanIKhEE
0000000000000000 t _ZN4bsslL41ssl_client_hello_write_without_extensionsEPK22ssl_early_callback_ctxP6cbb_st
0000000000000000 W _ZN6cbs_stC1EN4bssl4SpanIKhEE
0000000000000000 W _ZN6cbs_stC2EN4bssl4SpanIKhEE
0000000000000000 n _ZN6cbs_stC5EN4bssl4SpanIKhEE
0000000000000000 W _ZN9__gnu_cxx5__ops16_Iter_equals_valIKcEC1ERS2_
0000000000000000 W _ZN9__gnu_cxx5__ops16_Iter_equals_valIKcEC2ERS2_
0000000000000000 n _ZN9__gnu_cxx5__ops16_Iter_equals_valIKcEC5ERS2_
0000000000000000 W _ZN9__gnu_cxx5__ops16_Iter_equals_valIKcEclIPKhEEbT_
0000000000000000 W _ZN9__gnu_cxx5__ops17__iter_equals_valIKcEENS0_16_Iter_equals_valIT_EERS4_
0000000000000000 r _ZN9__gnu_cxxL21__default_lock_policyE
0000000000000000 W _ZNK4bssl13GrowableArrayISt10unique_ptrINS_15ECHServerConfigENS_8internal7DeleterEEE3endEv
0000000000000000 W _ZNK4bssl13GrowableArrayISt10unique_ptrINS_15ECHServerConfigENS_8internal7DeleterEEE5beginEv
0000000000000000 W _ZNK4bssl15ECHServerConfig10ech_configEv
0000000000000000 T _ZNK4bssl15ECHServerConfig12SetupContextEP15evp_hpke_ctx_stttNS_4SpanIKhEE
0000000000000000 W _ZNK4bssl15ECHServerConfig15is_retry_configEv
0000000000000000 W _ZNK4bssl4SpanIhE4dataEv
0000000000000000 W _ZNK4bssl4SpanIhE4sizeEv
0000000000000000 W _ZNK4bssl4SpanIhE7subspanEmm
0000000000000000 W _ZNK4bssl4SpanIKhE3endEv
0000000000000000 W _ZNK4bssl4SpanIKhE4backEv
0000000000000000 W _ZNK4bssl4SpanIKhE4dataEv
0000000000000000 W _ZNK4bssl4SpanIKhE4sizeEv
0000000000000000 W _ZNK4bssl4SpanIKhE5beginEv
0000000000000000 W _ZNK4bssl4SpanIKhE5emptyEv
0000000000000000 W _ZNK4bssl4SpanIKhE5frontEv
0000000000000000 W _ZNK4bssl4SpanIKhE7subspanEmm
0000000000000000 W _ZNK4bssl4SpanIKhEixEm
0000000000000000 W _ZNK4bssl5ArrayIhE4dataEv
0000000000000000 W _ZNK4bssl5ArrayIhE4sizeEv
0000000000000000 W _ZNK4bssl5ArrayIhE5emptyEv
0000000000000000 W _ZNK4bssl5ArrayISt10unique_ptrINS_15ECHServerConfigENS_8internal7DeleterEEE4dataEv
0000000000000000 W _ZNK4bssl5ArrayISt10unique_ptrINS_15ECHServerConfigENS_8internal7DeleterEEE4sizeEv
0000000000000000 W _ZNK4bssl8internal14StackAllocatedI15evp_hpke_key_stvXadL_Z17EVP_HPKE_KEY_zeroEEXadL_Z20EVP_HPKE_KEY_cleanupEEE3getEv
0000000000000000 W _ZNK6cbs_stcvN4bssl4SpanIKhEEEv
0000000000000000 W _ZNKSt10unique_ptrIcN4bssl8internal7DeleterEE3getEv
0000000000000000 W _ZNKSt10unique_ptrIcN4bssl8internal7DeleterEEcvbEv
0000000000000000 W _ZNKSt10unique_ptrIN4bssl10SSL_CONFIGENS0_8internal7DeleterEE3getEv
0000000000000000 W _ZNKSt10unique_ptrIN4bssl10SSL_CONFIGENS0_8internal7DeleterEEcvbEv
0000000000000000 W _ZNKSt10unique_ptrIN4bssl10SSL_CONFIGENS0_8internal7DeleterEEptEv
0000000000000000 W _ZNKSt10unique_ptrIN4bssl13SSL_HANDSHAKEENS0_8internal7DeleterEE3getEv
0000000000000000 W _ZNKSt10unique_ptrIN4bssl13SSL_HANDSHAKEENS0_8internal7DeleterEEptEv
0000000000000000 W _ZNKSt10unique_ptrIN4bssl15ECHServerConfigENS0_8internal7DeleterEE3getEv
0000000000000000 W _ZNKSt10unique_ptrIN4bssl15ECHServerConfigENS0_8internal7DeleterEEcvbEv
0000000000000000 W _ZNKSt10unique_ptrIN4bssl15ECHServerConfigENS0_8internal7DeleterEEptEv
0000000000000000 W _ZNKSt10unique_ptrIN4bssl9ECHConfigENS0_8internal7DeleterEE3getEv
0000000000000000 W _ZNKSt10unique_ptrIN4bssl9ECHConfigENS0_8internal7DeleterEEcvbEv
0000000000000000 W _ZNKSt10unique_ptrIN4bssl9ECHConfigENS0_8internal7DeleterEEptEv
0000000000000000 W _ZNKSt15__uniq_ptr_implIcN4bssl8internal7DeleterEE6_M_ptrEv
0000000000000000 W _ZNKSt15__uniq_ptr_implIN4bssl10SSL_CONFIGENS0_8internal7DeleterEE6_M_ptrEv
0000000000000000 W _ZNKSt15__uniq_ptr_implIN4bssl13SSL_HANDSHAKEENS0_8internal7DeleterEE6_M_ptrEv
0000000000000000 W _ZNKSt15__uniq_ptr_implIN4bssl15ECHServerConfigENS0_8internal7DeleterEE6_M_ptrEv
0000000000000000 W _ZNKSt15__uniq_ptr_implIN4bssl9ECHConfigENS0_8internal7DeleterEE6_M_ptrEv
0000000000000000 W _ZNSt10_Head_baseILm0EP15ssl_ech_keys_stLb0EE7_M_headERS2_
0000000000000000 W _ZNSt10_Head_baseILm0EP15ssl_ech_keys_stLb0EEC1Ev
0000000000000000 W _ZNSt10_Head_baseILm0EP15ssl_ech_keys_stLb0EEC2Ev
0000000000000000 n _ZNSt10_Head_baseILm0EP15ssl_ech_keys_stLb0EEC5Ev
0000000000000000 W _ZNSt10_Head_baseILm0EPcLb0EE7_M_headERKS1_
0000000000000000 W _ZNSt10_Head_baseILm0EPN4bssl10SSL_CONFIGELb0EE7_M_headERKS3_
0000000000000000 W _ZNSt10_Head_baseILm0EPN4bssl13SSL_HANDSHAKEELb0EE7_M_headERKS3_
0000000000000000 W _ZNSt10_Head_baseILm0EPN4bssl15ECHServerConfigELb0EE7_M_headERKS3_
0000000000000000 W _ZNSt10_Head_baseILm0EPN4bssl15ECHServerConfigELb0EE7_M_headERS3_
0000000000000000 W _ZNSt10_Head_baseILm0EPN4bssl15ECHServerConfigELb0EEC1Ev
0000000000000000 W _ZNSt10_Head_baseILm0EPN4bssl15ECHServerConfigELb0EEC1IRS2_EEOT_
0000000000000000 W _ZNSt10_Head_baseILm0EPN4bssl15ECHServerConfigELb0EEC2Ev
0000000000000000 W _ZNSt10_Head_baseILm0EPN4bssl15ECHServerConfigELb0EEC2IRS2_EEOT_
0000000000000000 n _ZNSt10_Head_baseILm0EPN4bssl15ECHServerConfigELb0EEC5Ev
0000000000000000 n _ZNSt10_Head_baseILm0EPN4bssl15ECHServerConfigELb0EEC5IRS2_EEOT_
0000000000000000 W _ZNSt10_Head_baseILm0EPN4bssl9ECHConfigELb0EE7_M_headERKS3_
0000000000000000 W _ZNSt10_Head_baseILm0EPN4bssl9ECHConfigELb0EE7_M_headERS3_
0000000000000000 W _ZNSt10_Head_baseILm0EPN4bssl9ECHConfigELb0EEC1Ev
0000000000000000 W _ZNSt10_Head_baseILm0EPN4bssl9ECHConfigELb0EEC2Ev
0000000000000000 n _ZNSt10_Head_baseILm0EPN4bssl9ECHConfigELb0EEC5Ev
0000000000000000 W _ZNSt10_Head_baseILm1EN4bssl8internal7DeleterELb1EE7_M_headERS3_
0000000000000000 W _ZNSt10_Head_baseILm1EN4bssl8internal7DeleterELb1EEC1Ev
0000000000000000 W _ZNSt10_Head_baseILm1EN4bssl8internal7DeleterELb1EEC1IS2_EEOT_
0000000000000000 W _ZNSt10_Head_baseILm1EN4bssl8internal7DeleterELb1EEC2Ev
0000000000000000 W _ZNSt10_Head_baseILm1EN4bssl8internal7DeleterELb1EEC2IS2_EEOT_
0000000000000000 n _ZNSt10_Head_baseILm1EN4bssl8internal7DeleterELb1EEC5Ev
0000000000000000 n _ZNSt10_Head_baseILm1EN4bssl8internal7DeleterELb1EEC5IS2_EEOT_
0000000000000000 W _ZNSt10unique_ptrI15ssl_ech_keys_stN4bssl8internal7DeleterEE11get_deleterEv
0000000000000000 W _ZNSt10unique_ptrI15ssl_ech_keys_stN4bssl8internal7DeleterEE4swapERS4_
0000000000000000 W _ZNSt10unique_ptrI15ssl_ech_keys_stN4bssl8internal7DeleterEEC1IS3_vEEPS0_
0000000000000000 W _ZNSt10unique_ptrI15ssl_ech_keys_stN4bssl8internal7DeleterEEC2IS3_vEEPS0_
0000000000000000 n _ZNSt10unique_ptrI15ssl_ech_keys_stN4bssl8internal7DeleterEEC5IS3_vEEPS0_
0000000000000000 W _ZNSt10unique_ptrI15ssl_ech_keys_stN4bssl8internal7DeleterEED1Ev
0000000000000000 W _ZNSt10unique_ptrI15ssl_ech_keys_stN4bssl8internal7DeleterEED2Ev
0000000000000000 n _ZNSt10unique_ptrI15ssl_ech_keys_stN4bssl8internal7DeleterEED5Ev
0000000000000000 W _ZNSt10unique_ptrIN4bssl15ECHServerConfigENS0_8internal7DeleterEE11get_deleterEv
0000000000000000 W _ZNSt10unique_ptrIN4bssl15ECHServerConfigENS0_8internal7DeleterEE5resetEPS1_
0000000000000000 W _ZNSt10unique_ptrIN4bssl15ECHServerConfigENS0_8internal7DeleterEE7releaseEv
0000000000000000 W _ZNSt10unique_ptrIN4bssl15ECHServerConfigENS0_8internal7DeleterEEaSEOS4_
0000000000000000 W _ZNSt10unique_ptrIN4bssl15ECHServerConfigENS0_8internal7DeleterEEC1EOS4_
0000000000000000 W _ZNSt10unique_ptrIN4bssl15ECHServerConfigENS0_8internal7DeleterEEC1IS3_vEEPS1_
0000000000000000 W _ZNSt10unique_ptrIN4bssl15ECHServerConfigENS0_8internal7DeleterEEC1IS3_vEEv
0000000000000000 W _ZNSt10unique_ptrIN4bssl15ECHServerConfigENS0_8internal7DeleterEEC2EOS4_
0000000000000000 W _ZNSt10unique_ptrIN4bssl15ECHServerConfigENS0_8internal7DeleterEEC2IS3_vEEPS1_
0000000000000000 W _ZNSt10unique_ptrIN4bssl15ECHServerConfigENS0_8internal7DeleterEEC2IS3_vEEv
0000000000000000 n _ZNSt10unique_ptrIN4bssl15ECHServerConfigENS0_8internal7DeleterEEC5EOS4_
0000000000000000 n _ZNSt10unique_ptrIN4bssl15ECHServerConfigENS0_8internal7DeleterEEC5IS3_vEEPS1_
0000000000000000 n _ZNSt10unique_ptrIN4bssl15ECHServerConfigENS0_8internal7DeleterEEC5IS3_vEEv
0000000000000000 W _ZNSt10unique_ptrIN4bssl15ECHServerConfigENS0_8internal7DeleterEED1Ev
0000000000000000 W _ZNSt10unique_ptrIN4bssl15ECHServerConfigENS0_8internal7DeleterEED2Ev
0000000000000000 n _ZNSt10unique_ptrIN4bssl15ECHServerConfigENS0_8internal7DeleterEED5Ev
0000000000000000 W _ZNSt10unique_ptrIN4bssl9ECHConfigENS0_8internal7DeleterEE11get_deleterEv
0000000000000000 W _ZNSt10unique_ptrIN4bssl9ECHConfigENS0_8internal7DeleterEE5resetEPS1_
0000000000000000 W _ZNSt10unique_ptrIN4bssl9ECHConfigENS0_8internal7DeleterEE7releaseEv
0000000000000000 W _ZNSt10unique_ptrIN4bssl9ECHConfigENS0_8internal7DeleterEEaSEOS4_
0000000000000000 W _ZNSt10unique_ptrIN4bssl9ECHConfigENS0_8internal7DeleterEEC1IS3_vEEPS1_
0000000000000000 W _ZNSt10unique_ptrIN4bssl9ECHConfigENS0_8internal7DeleterEEC2IS3_vEEPS1_
0000000000000000 n _ZNSt10unique_ptrIN4bssl9ECHConfigENS0_8internal7DeleterEEC5IS3_vEEPS1_
0000000000000000 W _ZNSt10unique_ptrIN4bssl9ECHConfigENS0_8internal7DeleterEED1Ev
0000000000000000 W _ZNSt10unique_ptrIN4bssl9ECHConfigENS0_8internal7DeleterEED2Ev
0000000000000000 n _ZNSt10unique_ptrIN4bssl9ECHConfigENS0_8internal7DeleterEED5Ev
0000000000000000 W _ZNSt11_Tuple_implILm0EJP15ssl_ech_keys_stN4bssl8internal7DeleterEEE7_M_headERS5_
0000000000000000 W _ZNSt11_Tuple_implILm0EJP15ssl_ech_keys_stN4bssl8internal7DeleterEEEC1Ev
0000000000000000 W _ZNSt11_Tuple_implILm0EJP15ssl_ech_keys_stN4bssl8internal7DeleterEEEC2Ev
0000000000000000 n _ZNSt11_Tuple_implILm0EJP15ssl_ech_keys_stN4bssl8internal7DeleterEEEC5Ev
0000000000000000 W _ZNSt11_Tuple_implILm0EJPcN4bssl8internal7DeleterEEE7_M_headERKS4_
0000000000000000 W _ZNSt11_Tuple_implILm0EJPN4bssl10SSL_CONFIGENS0_8internal7DeleterEEE7_M_headERKS5_
0000000000000000 W _ZNSt11_Tuple_implILm0EJPN4bssl13SSL_HANDSHAKEENS0_8internal7DeleterEEE7_M_headERKS5_
0000000000000000 W _ZNSt11_Tuple_implILm0EJPN4bssl15ECHServerConfigENS0_8internal7DeleterEEE7_M_headERKS5_
0000000000000000 W _ZNSt11_Tuple_implILm0EJPN4bssl15ECHServerConfigENS0_8internal7DeleterEEE7_M_headERS5_
0000000000000000 W _ZNSt11_Tuple_implILm0EJPN4bssl15ECHServerConfigENS0_8internal7DeleterEEEC1Ev
0000000000000000 W _ZNSt11_Tuple_implILm0EJPN4bssl15ECHServerConfigENS0_8internal7DeleterEEEC1IRS2_JS4_EvEEOT_DpOT0_
0000000000000000 W _ZNSt11_Tuple_implILm0EJPN4bssl15ECHServerConfigENS0_8internal7DeleterEEEC2Ev
0000000000000000 W _ZNSt11_Tuple_implILm0EJPN4bssl15ECHServerConfigENS0_8internal7DeleterEEEC2IRS2_JS4_EvEEOT_DpOT0_
0000000000000000 n _ZNSt11_Tuple_implILm0EJPN4bssl15ECHServerConfigENS0_8internal7DeleterEEEC5Ev
0000000000000000 n _ZNSt11_Tuple_implILm0EJPN4bssl15ECHServerConfigENS0_8internal7DeleterEEEC5IRS2_JS4_EvEEOT_DpOT0_
0000000000000000 W _ZNSt11_Tuple_implILm0EJPN4bssl9ECHConfigENS0_8internal7DeleterEEE7_M_headERKS5_
0000000000000000 W _ZNSt11_Tuple_implILm0EJPN4bssl9ECHConfigENS0_8internal7DeleterEEE7_M_headERS5_
0000000000000000 W _ZNSt11_Tuple_implILm0EJPN4bssl9ECHConfigENS0_8internal7DeleterEEEC1Ev
0000000000000000 W _ZNSt11_Tuple_implILm0EJPN4bssl9ECHConfigENS0_8internal7DeleterEEEC2Ev
0000000000000000 n _ZNSt11_Tuple_implILm0EJPN4bssl9ECHConfigENS0_8internal7DeleterEEEC5Ev
0000000000000000 W _ZNSt11_Tuple_implILm1EJN4bssl8internal7DeleterEEE7_M_headERS3_
0000000000000000 W _ZNSt11_Tuple_implILm1EJN4bssl8internal7DeleterEEEC1Ev
0000000000000000 W _ZNSt11_Tuple_implILm1EJN4bssl8internal7DeleterEEEC1IS2_EEOT_
0000000000000000 W _ZNSt11_Tuple_implILm1EJN4bssl8internal7DeleterEEEC2Ev
0000000000000000 W _ZNSt11_Tuple_implILm1EJN4bssl8internal7DeleterEEEC2IS2_EEOT_
0000000000000000 n _ZNSt11_Tuple_implILm1EJN4bssl8internal7DeleterEEEC5Ev
0000000000000000 n _ZNSt11_Tuple_implILm1EJN4bssl8internal7DeleterEEEC5IS2_EEOT_
0000000000000000 W _ZNSt14numeric_limitsImE3maxEv
0000000000000000 W _ZNSt15__uniq_ptr_implI15ssl_ech_keys_stN4bssl8internal7DeleterEE10_M_deleterEv
0000000000000000 W _ZNSt15__uniq_ptr_implI15ssl_ech_keys_stN4bssl8internal7DeleterEE4swapERS4_
0000000000000000 W _ZNSt15__uniq_ptr_implI15ssl_ech_keys_stN4bssl8internal7DeleterEE6_M_ptrEv
0000000000000000 W _ZNSt15__uniq_ptr_implI15ssl_ech_keys_stN4bssl8internal7DeleterEEC1EPS0_
0000000000000000 W _ZNSt15__uniq_ptr_implI15ssl_ech_keys_stN4bssl8internal7DeleterEEC2EPS0_
0000000000000000 n _ZNSt15__uniq_ptr_implI15ssl_ech_keys_stN4bssl8internal7DeleterEEC5EPS0_
0000000000000000 W _ZNSt15__uniq_ptr_implIN4bssl15ECHServerConfigENS0_8internal7DeleterEE10_M_deleterEv
0000000000000000 W _ZNSt15__uniq_ptr_implIN4bssl15ECHServerConfigENS0_8internal7DeleterEE6_M_ptrEv
0000000000000000 W _ZNSt15__uniq_ptr_implIN4bssl15ECHServerConfigENS0_8internal7DeleterEEC1EPS1_
0000000000000000 W _ZNSt15__uniq_ptr_implIN4bssl15ECHServerConfigENS0_8internal7DeleterEEC1Ev
0000000000000000 W _ZNSt15__uniq_ptr_implIN4bssl15ECHServerConfigENS0_8internal7DeleterEEC1IS3_EEPS1_OT_
0000000000000000 W _ZNSt15__uniq_ptr_implIN4bssl15ECHServerConfigENS0_8internal7DeleterEEC2EPS1_
0000000000000000 W _ZNSt15__uniq_ptr_implIN4bssl15ECHServerConfigENS0_8internal7DeleterEEC2Ev
0000000000000000 W _ZNSt15__uniq_ptr_implIN4bssl15ECHServerConfigENS0_8internal7DeleterEEC2IS3_EEPS1_OT_
0000000000000000 n _ZNSt15__uniq_ptr_implIN4bssl15ECHServerConfigENS0_8internal7DeleterEEC5EPS1_
0000000000000000 n _ZNSt15__uniq_ptr_implIN4bssl15ECHServerConfigENS0_8internal7DeleterEEC5Ev
0000000000000000 n _ZNSt15__uniq_ptr_implIN4bssl15ECHServerConfigENS0_8internal7DeleterEEC5IS3_EEPS1_OT_
0000000000000000 W _ZNSt15__uniq_ptr_implIN4bssl9ECHConfigENS0_8internal7DeleterEE10_M_deleterEv
0000000000000000 W _ZNSt15__uniq_ptr_implIN4bssl9ECHConfigENS0_8internal7DeleterEE6_M_ptrEv
0000000000000000 W _ZNSt15__uniq_ptr_implIN4bssl9ECHConfigENS0_8internal7DeleterEEC1EPS1_
0000000000000000 W _ZNSt15__uniq_ptr_implIN4bssl9ECHConfigENS0_8internal7DeleterEEC2EPS1_
0000000000000000 n _ZNSt15__uniq_ptr_implIN4bssl9ECHConfigENS0_8internal7DeleterEEC5EPS1_
0000000000000000 W _ZNSt5tupleIJP15ssl_ech_keys_stN4bssl8internal7DeleterEEEC1IS1_S4_Lb1EEEv
0000000000000000 W _ZNSt5tupleIJP15ssl_ech_keys_stN4bssl8internal7DeleterEEEC2IS1_S4_Lb1EEEv
0000000000000000 n _ZNSt5tupleIJP15ssl_ech_keys_stN4bssl8internal7DeleterEEEC5IS1_S4_Lb1EEEv
0000000000000000 W _ZNSt5tupleIJPN4bssl15ECHServerConfigENS0_8internal7DeleterEEEC1IRS2_S4_Lb1EEEOT_OT0_
0000000000000000 W _ZNSt5tupleIJPN4bssl15ECHServerConfigENS0_8internal7DeleterEEEC1IS2_S4_Lb1EEEv
0000000000000000 W _ZNSt5tupleIJPN4bssl15ECHServerConfigENS0_8internal7DeleterEEEC2IRS2_S4_Lb1EEEOT_OT0_
0000000000000000 W _ZNSt5tupleIJPN4bssl15ECHServerConfigENS0_8internal7DeleterEEEC2IS2_S4_Lb1EEEv
0000000000000000 n _ZNSt5tupleIJPN4bssl15ECHServerConfigENS0_8internal7DeleterEEEC5IRS2_S4_Lb1EEEOT_OT0_
0000000000000000 n _ZNSt5tupleIJPN4bssl15ECHServerConfigENS0_8internal7DeleterEEEC5IS2_S4_Lb1EEEv
0000000000000000 W _ZNSt5tupleIJPN4bssl9ECHConfigENS0_8internal7DeleterEEEC1IS2_S4_Lb1EEEv
0000000000000000 W _ZNSt5tupleIJPN4bssl9ECHConfigENS0_8internal7DeleterEEEC2IS2_S4_Lb1EEEv
0000000000000000 n _ZNSt5tupleIJPN4bssl9ECHConfigENS0_8internal7DeleterEEEC5IS2_S4_Lb1EEEv
0000000000000000 W _ZnwmPv
0000000000000000 W _ZSt12__get_helperILm0EP15ssl_ech_keys_stJN4bssl8internal7DeleterEEERT0_RSt11_Tuple_implIXT_EJS5_DpT1_EE
0000000000000000 W _ZSt12__get_helperILm0EPcJN4bssl8internal7DeleterEEERKT0_RKSt11_Tuple_implIXT_EJS4_DpT1_EE
0000000000000000 W _ZSt12__get_helperILm0EPN4bssl10SSL_CONFIGEJNS0_8internal7DeleterEEERKT0_RKSt11_Tuple_implIXT_EJS5_DpT1_EE
0000000000000000 W _ZSt12__get_helperILm0EPN4bssl13SSL_HANDSHAKEEJNS0_8internal7DeleterEEERKT0_RKSt11_Tuple_implIXT_EJS5_DpT1_EE
0000000000000000 W _ZSt12__get_helperILm0EPN4bssl15ECHServerConfigEJNS0_8internal7DeleterEEERKT0_RKSt11_Tuple_implIXT_EJS5_DpT1_EE
0000000000000000 W _ZSt12__get_helperILm0EPN4bssl15ECHServerConfigEJNS0_8internal7DeleterEEERT0_RSt11_Tuple_implIXT_EJS5_DpT1_EE
0000000000000000 W _ZSt12__get_helperILm0EPN4bssl9ECHConfigEJNS0_8internal7DeleterEEERKT0_RKSt11_Tuple_implIXT_EJS5_DpT1_EE
0000000000000000 W _ZSt12__get_helperILm0EPN4bssl9ECHConfigEJNS0_8internal7DeleterEEERT0_RSt11_Tuple_implIXT_EJS5_DpT1_EE
0000000000000000 W _ZSt12__get_helperILm1EN4bssl8internal7DeleterEJEERT0_RSt11_Tuple_implIXT_EJS3_DpT1_EE
0000000000000000 W _ZSt19__iterator_categoryIPKhENSt15iterator_traitsIT_E17iterator_categoryERKS3_
0000000000000000 W _ZSt3getILm0EJP15ssl_ech_keys_stN4bssl8internal7DeleterEEERNSt13tuple_elementIXT_ESt5tupleIJDpT0_EEE4typeERS9_
0000000000000000 W _ZSt3getILm0EJPcN4bssl8internal7DeleterEEERKNSt13tuple_elementIXT_ESt5tupleIJDpT0_EEE4typeERKS8_
0000000000000000 W _ZSt3getILm0EJPN4bssl10SSL_CONFIGENS0_8internal7DeleterEEERKNSt13tuple_elementIXT_ESt5tupleIJDpT0_EEE4typeERKS9_
0000000000000000 W _ZSt3getILm0EJPN4bssl13SSL_HANDSHAKEENS0_8internal7DeleterEEERKNSt13tuple_elementIXT_ESt5tupleIJDpT0_EEE4typeERKS9_
0000000000000000 W _ZSt3getILm0EJPN4bssl15ECHServerConfigENS0_8internal7DeleterEEERKNSt13tuple_elementIXT_ESt5tupleIJDpT0_EEE4typeERKS9_
0000000000000000 W _ZSt3getILm0EJPN4bssl15ECHServerConfigENS0_8internal7DeleterEEERNSt13tuple_elementIXT_ESt5tupleIJDpT0_EEE4typeERS9_
0000000000000000 W _ZSt3getILm0EJPN4bssl9ECHConfigENS0_8internal7DeleterEEERKNSt13tuple_elementIXT_ESt5tupleIJDpT0_EEE4typeERKS9_
0000000000000000 W _ZSt3getILm0EJPN4bssl9ECHConfigENS0_8internal7DeleterEEERNSt13tuple_elementIXT_ESt5tupleIJDpT0_EEE4typeERS9_
0000000000000000 W _ZSt3getILm1EJP15ssl_ech_keys_stN4bssl8internal7DeleterEEERNSt13tuple_elementIXT_ESt5tupleIJDpT0_EEE4typeERS9_
0000000000000000 W _ZSt3getILm1EJPN4bssl15ECHServerConfigENS0_8internal7DeleterEEERNSt13tuple_elementIXT_ESt5tupleIJDpT0_EEE4typeERS9_
0000000000000000 W _ZSt3getILm1EJPN4bssl9ECHConfigENS0_8internal7DeleterEEERNSt13tuple_elementIXT_ESt5tupleIJDpT0_EEE4typeERS9_
0000000000000000 W _ZSt3minImERKT_S2_S2_
0000000000000000 W _ZSt4findIPKhcET_S2_S2_RKT0_
0000000000000000 W _ZSt4moveIRN4bssl5ArrayIhEEEONSt16remove_referenceIT_E4typeEOS5_
0000000000000000 W _ZSt4moveIRN4bssl5ArrayISt10unique_ptrINS0_15ECHServerConfigENS0_8internal7DeleterEEEEEONSt16remove_referenceIT_E4typeEOSA_
0000000000000000 W _ZSt4moveIRN4bssl8internal7DeleterEEONSt16remove_referenceIT_E4typeEOS5_
0000000000000000 W _ZSt4moveIRN4bssl9ECHConfigEEONSt16remove_referenceIT_E4typeEOS4_
0000000000000000 W _ZSt4moveIRP15ssl_ech_keys_stEONSt16remove_referenceIT_E4typeEOS4_
0000000000000000 W _ZSt4moveIRPN4bssl15ECHServerConfigEEONSt16remove_referenceIT_E4typeEOS5_
0000000000000000 W _ZSt4moveIRPN4bssl9ECHConfigEEONSt16remove_referenceIT_E4typeEOS5_
0000000000000000 W _ZSt4moveIRSt10unique_ptrIN4bssl15ECHServerConfigENS1_8internal7DeleterEEEONSt16remove_referenceIT_E4typeEOS8_
0000000000000000 W _ZSt4swapIN4bssl8internal7DeleterEENSt9enable_ifIXsrSt6__and_IJSt6__not_ISt15__is_tuple_likeIT_EESt21is_move_constructibleIS7_ESt18is_move_assignableIS7_EEE5valueEvE4typeERS7_SH_
0000000000000000 W _ZSt4swapIP15ssl_ech_keys_stENSt9enable_ifIXsrSt6__and_IJSt6__not_ISt15__is_tuple_likeIT_EESt21is_move_constructibleIS6_ESt18is_move_assignableIS6_EEE5valueEvE4typeERS6_SG_
0000000000000000 W _ZSt4swapIPN4bssl15ECHServerConfigEENSt9enable_ifIXsrSt6__and_IJSt6__not_ISt15__is_tuple_likeIT_EESt21is_move_constructibleIS7_ESt18is_move_assignableIS7_EEE5valueEvE4typeERS7_SH_
0000000000000000 W _ZSt4swapIPN4bssl9ECHConfigEENSt9enable_ifIXsrSt6__and_IJSt6__not_ISt15__is_tuple_likeIT_EESt21is_move_constructibleIS7_ESt18is_move_assignableIS7_EEE5valueEvE4typeERS7_SH_
0000000000000000 W _ZSt7forwardIN4bssl8internal7DeleterEEOT_RNSt16remove_referenceIS3_E4typeE
0000000000000000 W _ZSt7forwardIN4bssl9ECHConfigEEOT_RNSt16remove_referenceIS2_E4typeE
0000000000000000 W _ZSt7forwardIRPN4bssl15ECHServerConfigEEOT_RNSt16remove_referenceIS4_E4typeE
0000000000000000 W _ZSt9__find_ifIPKhN9__gnu_cxx5__ops16_Iter_equals_valIKcEEET_S7_S7_T0_
0000000000000000 W _ZSt9__find_ifIPKhN9__gnu_cxx5__ops16_Iter_equals_valIKcEEET_S7_S7_T0_St26random_access_iterator_tag
0000000000000000 r _ZStL13allocator_arg
0000000000000000 r _ZStL19piecewise_construct
0000000000000000 r _ZStL6ignore
0000000000000000 W _ZStneIN4bssl9ECHConfigENS0_8internal7DeleterEEbRKSt10unique_ptrIT_T0_EDn
0000000000000000 r _ZZ26SSL_get0_ech_retry_configsE12kPlaceholder
0000000000000000 r _ZZ26SSL_get0_ech_retry_configsE19__PRETTY_FUNCTION__
0000000000000000 r _ZZN4bssl21ssl_select_ech_configEPNS_13SSL_HANDSHAKEENS_4SpanIhEEPmE10kInfoLabel
0000000000000000 r _ZZN4bssl24ssl_client_hello_decryptEPNS_13SSL_HANDSHAKEEPhPbPNS_5ArrayIhEEPK22ssl_early_callback_ctxNS_4SpanIKhEEE19__PRETTY_FUNCTION__
0000000000000000 r _ZZN4bssl24ssl_encrypt_client_helloEPNS_13SSL_HANDSHAKEENS_4SpanIKhEEE19__PRETTY_FUNCTION__
0000000000000000 r _ZZN4bssl8internal13MutexLockBaseIXadL_Z23CRYPTO_MUTEX_lock_writeEEXadL_Z25CRYPTO_MUTEX_unlock_writeEEEC4EP15crypto_mutex_stE19__PRETTY_FUNCTION__
0000000000000000 r _ZZN4bsslL11random_sizeEmmE19__PRETTY_FUNCTION__
0000000000000000 r _ZZN4bsslL16setup_ech_greaseEPNS_13SSL_HANDSHAKEEE19__PRETTY_FUNCTION__
0000000000000000 r _ZZNK4bssl15ECHServerConfig12SetupContextEP15evp_hpke_ctx_stttNS_4SpanIKhEEE10kInfoLabel
0000000000000000 r _ZZNK4bssl15ECHServerConfig12SetupContextEP15evp_hpke_ctx_stttNS_4SpanIKhEEE19__PRETTY_FUNCTION__

extensions.cc.o:
                 U abort
                 U __assert_fail
                 U BN_bin2bn
                 U BN_bn2cbb_padded
                 U BN_free
                 U BN_new
0000000000000000 b .bss
                 U CBB_add_bytes
                 U CBB_add_u16
                 U CBB_add_u16_length_prefixed
                 U CBB_add_u32
                 U CBB_add_u8
                 U CBB_add_u8_length_prefixed
                 U CBB_add_zeros
                 U CBB_cleanup
                 U CBB_data
                 U CBB_discard_child
                 U CBB_flush
                 U CBB_init
                 U CBB_len
                 U CBB_zero
                 U CBS_data
                 U CBS_get_bytes
                 U CBS_get_u16
                 U CBS_get_u16_length_prefixed
                 U CBS_get_u32
                 U CBS_get_u8
                 U CBS_get_u8_length_prefixed
                 U CBS_init
                 U CBS_len
0000000000000000 n .comment
                 U CRYPTO_BUFFER_data
                 U CRYPTO_BUFFER_free
                 U CRYPTO_BUFFER_len
                 U CRYPTO_BUFFER_new_from_CBS
                 U CRYPTO_memcmp
                 U CRYPTO_MUTEX_lock_read
                 U CRYPTO_MUTEX_unlock_read
0000000000000000 d .data
0000000000000000 d .data.rel.ro.local._ZN4bsslL11kExtensionsE
0000000000000000 N .debug_abbrev
0000000000000000 N .debug_aranges
0000000000000000 N .debug_info
0000000000000000 N .debug_line
0000000000000000 N .debug_ranges
0000000000000000 N .debug_str
                 U ECDSA_do_sign
                 U ECDSA_do_verify
                 U ECDSA_SIG_free
                 U ECDSA_SIG_new
                 U EC_GROUP_free
                 U EC_GROUP_new_by_curve_name
                 U EC_KEY_free
                 U EC_KEY_get0_group
                 U EC_KEY_get0_public_key
                 U EC_KEY_new
                 U EC_KEY_set_group
                 U EC_KEY_set_public_key
                 U EC_POINT_free
                 U EC_POINT_get_affine_coordinates_GFp
                 U EC_POINT_new
                 U EC_POINT_set_affine_coordinates_GFp
0000000000000000 r .eh_frame
                 U ERR_add_error_dataf
                 U ERR_clear_error
                 U ERR_put_error
                 U EVP_aes_128_cbc
                 U EVP_CIPHER_CTX_cleanup
                 U EVP_CIPHER_CTX_init
                 U EVP_CIPHER_CTX_iv_length
                 U EVP_CIPHER_iv_length
                 U EVP_DecryptFinal_ex
                 U EVP_DecryptInit_ex
                 U EVP_DecryptUpdate
                 U EVP_MD_size
                 U EVP_PKEY_get0_EC_KEY
                 U EVP_PKEY_id
                 U EVP_sha256
0000000000000000 a extensions.cc
0000000000000000 n .group
0000000000000000 n .group
0000000000000000 n .group
0000000000000000 n .group
0000000000000000 n .group
0000000000000000 n .group
0000000000000000 n .group
0000000000000000 n .group
0000000000000000 n .group
0000000000000000 n .group
0000000000000000 n .group
0000000000000000 n .group
0000000000000000 n .group
0000000000000000 n .group
0000000000000000 n .group
0000000000000000 n .group
0000000000000000 n .group
0000000000000000 n .group
0000000000000000 n .group
0000000000000000 n .group
0000000000000000 n .group
0000000000000000 n .group
0000000000000000 n .group
0000000000000000 n .group
0000000000000000 n .group
0000000000000000 n .group
0000000000000000 n .group
0000000000000000 n .group
0000000000000000 n .group
0000000000000000 n .group
0000000000000000 n .group
0000000000000000 n .group
0000000000000000 n .group
0000000000000000 n .group
0000000000000000 n .group
0000000000000000 n .group
0000000000000000 n .group
0000000000000000 n .group
0000000000000000 n .group
0000000000000000 n .group
0000000000000000 n .group
0000000000000000 n .group
0000000000000000 n .group
0000000000000000 n .group
0000000000000000 n .group
0000000000000000 n .group
0000000000000000 n .group
0000000000000000 n .group
0000000000000000 n .group
0000000000000000 n .group
0000000000000000 n .group
0000000000000000 n .group
0000000000000000 n .group
0000000000000000 n .group
0000000000000000 n .group
0000000000000000 n .group
0000000000000000 n .group
0000000000000000 n .group
0000000000000000 n .group
0000000000000000 n .group
0000000000000000 n .group
0000000000000000 n .group
0000000000000000 n .group
0000000000000000 n .group
0000000000000000 n .group
0000000000000000 n .group
0000000000000000 n .group
0000000000000000 n .group
0000000000000000 n .group
0000000000000000 n .group
0000000000000000 n .group
0000000000000000 n .group
0000000000000000 n .group
0000000000000000 n .group
0000000000000000 n .group
0000000000000000 n .group
0000000000000000 n .group
0000000000000000 n .group
0000000000000000 n .group
0000000000000000 n .group
0000000000000000 n .group
0000000000000000 n .group
0000000000000000 n .group
0000000000000000 n .group
0000000000000000 n .group
0000000000000000 n .group
0000000000000000 n .group
0000000000000000 n .group
0000000000000000 n .group
0000000000000000 n .group
0000000000000000 n .group
0000000000000000 n .group
0000000000000000 n .group
0000000000000000 n .group
0000000000000000 n .group
0000000000000000 n .group
0000000000000000 n .group
0000000000000000 n .group
0000000000000000 n .group
0000000000000000 n .group
0000000000000000 n .group
0000000000000000 n .group
0000000000000000 n .group
0000000000000000 n .group
0000000000000000 n .group
0000000000000000 n .group
0000000000000000 n .group
0000000000000000 n .group
0000000000000000 n .group
0000000000000000 n .group
0000000000000000 n .group
0000000000000000 n .group
0000000000000000 n .group
0000000000000000 n .group
0000000000000000 n .group
0000000000000000 n .group
0000000000000000 n .group
0000000000000000 n .group
0000000000000000 n .group
0000000000000000 n .group
0000000000000000 n .group
0000000000000000 n .group
0000000000000000 n .group
0000000000000000 n .group
0000000000000000 n .group
0000000000000000 n .group
0000000000000000 n .group
0000000000000000 n .group
0000000000000000 n .group
0000000000000000 n .group
0000000000000000 n .group
0000000000000000 n .group
0000000000000000 n .group
0000000000000000 n .group
0000000000000000 n .group
0000000000000000 n .group
0000000000000000 n .group
0000000000000000 n .group
0000000000000000 n .group
0000000000000000 n .group
0000000000000000 n .group
0000000000000000 n .group
0000000000000000 n .group
0000000000000000 n .group
0000000000000000 n .group
0000000000000000 n .group
0000000000000000 n .group
0000000000000000 n .group
0000000000000000 n .group
0000000000000000 n .group
0000000000000000 n .group
0000000000000000 n .group
0000000000000000 n .group
0000000000000000 n .group
0000000000000000 n .group
0000000000000000 n .group
0000000000000000 n .group
0000000000000000 n .group
0000000000000000 n .group
0000000000000000 n .group
0000000000000000 n .group
0000000000000000 n .group
0000000000000000 n .group
0000000000000000 n .group
0000000000000000 n .group
0000000000000000 n .group
0000000000000000 n .group
0000000000000000 n .group
0000000000000000 n .group
0000000000000000 n .group
0000000000000000 n .group
0000000000000000 n .group
0000000000000000 n .group
0000000000000000 n .group
0000000000000000 n .group
0000000000000000 n .group
0000000000000000 n .group
0000000000000000 n .group
0000000000000000 n .group
0000000000000000 n .group
0000000000000000 n .group
0000000000000000 n .group
0000000000000000 n .group
0000000000000000 n .group
0000000000000000 n .group
0000000000000000 n .group
0000000000000000 n .group
0000000000000000 n .group
0000000000000000 n .group
0000000000000000 n .group
0000000000000000 n .group
0000000000000000 n .group
0000000000000000 n .group
0000000000000000 n .group
0000000000000000 n .group
0000000000000000 n .group
0000000000000000 n .group
0000000000000000 n .group
0000000000000000 n .group
0000000000000000 n .group
0000000000000000 n .group
0000000000000000 n .group
0000000000000000 n .group
0000000000000000 n .group
0000000000000000 n .group
0000000000000000 n .group
0000000000000000 n .group
0000000000000000 n .group
0000000000000000 n .group
0000000000000000 n .group
0000000000000000 n .group
0000000000000000 n .group
0000000000000000 n .group
0000000000000000 n .group
0000000000000000 n .group
0000000000000000 n .group
0000000000000000 n .group
0000000000000000 n .group
0000000000000000 n .group
0000000000000000 n .group
0000000000000000 n .group
0000000000000000 n .group
0000000000000000 n .group
0000000000000000 n .group
0000000000000000 n .group
0000000000000000 n .group
0000000000000000 n .group
0000000000000000 n .group
0000000000000000 n .group
0000000000000000 n .group
0000000000000000 n .group
0000000000000000 n .group
0000000000000000 n .group
0000000000000000 n .group
0000000000000000 n .group
0000000000000000 n .group
0000000000000000 n .group
0000000000000000 n .group
0000000000000000 n .group
0000000000000000 n .group
0000000000000000 n .group
0000000000000000 n .group
0000000000000000 n .group
0000000000000000 n .group
0000000000000000 n .group
0000000000000000 n .group
0000000000000000 n .group
0000000000000000 n .group
0000000000000000 n .group
0000000000000000 n .group
0000000000000000 n .group
0000000000000000 n .group
0000000000000000 n .group
0000000000000000 n .group
0000000000000000 n .group
0000000000000000 n .group
0000000000000000 n .group
0000000000000000 n .group
0000000000000000 n .group
0000000000000000 n .group
0000000000000000 n .group
0000000000000000 n .group
0000000000000000 n .group
0000000000000000 n .group
0000000000000000 n .group
0000000000000000 n .group
0000000000000000 n .group
0000000000000000 n .group
0000000000000000 n .group
0000000000000000 n .group
0000000000000000 n .group
0000000000000000 n .group
0000000000000000 n .group
0000000000000000 n .group
0000000000000000 n .group
0000000000000000 n .group
0000000000000000 n .group
0000000000000000 n .group
0000000000000000 n .group
0000000000000000 n .group
0000000000000000 n .group
0000000000000000 n .group
0000000000000000 n .group
0000000000000000 n .group
0000000000000000 n .group
0000000000000000 n .group
0000000000000000 n .group
0000000000000000 n .group
0000000000000000 n .group
0000000000000000 n .group
0000000000000000 n .group
0000000000000000 n .group
0000000000000000 n .group
0000000000000000 n .group
0000000000000000 n .group
0000000000000000 n .group
0000000000000000 n .group
0000000000000000 n .group
0000000000000000 n .group
0000000000000000 n .group
0000000000000000 n .group
0000000000000000 n .group
0000000000000000 n .group
0000000000000000 n .group
0000000000000000 n .group
0000000000000000 n .group
0000000000000000 n .group
0000000000000000 n .group
0000000000000000 n .group
0000000000000000 n .group
0000000000000000 n .group
0000000000000000 n .group
0000000000000000 n .group
0000000000000000 n .group
0000000000000000 n .group
0000000000000000 n .group
0000000000000000 n .group
0000000000000000 n .group
0000000000000000 n .group
0000000000000000 n .group
0000000000000000 n .group
0000000000000000 n .group
0000000000000000 n .group
0000000000000000 n .group
0000000000000000 n .group
0000000000000000 n .group
0000000000000000 n .group
0000000000000000 n .group
0000000000000000 n .group
0000000000000000 n .group
0000000000000000 n .group
0000000000000000 n .group
0000000000000000 n .group
0000000000000000 n .group
0000000000000000 n .group
0000000000000000 n .group
0000000000000000 n .group
0000000000000000 n .group
0000000000000000 n .group
0000000000000000 n .group
0000000000000000 n .group
0000000000000000 n .group
0000000000000000 n .group
0000000000000000 n .group
0000000000000000 n .group
0000000000000000 n .group
0000000000000000 n .group
0000000000000000 n .group
0000000000000000 n .group
0000000000000000 n .group
0000000000000000 n .group
0000000000000000 n .group
0000000000000000 n .group
0000000000000000 n .group
0000000000000000 n .group
0000000000000000 n .group
0000000000000000 n .group
0000000000000000 n .group
0000000000000000 n .group
0000000000000000 n .group
0000000000000000 n .group
0000000000000000 n .group
0000000000000000 n .group
0000000000000000 n .group
0000000000000000 n .group
0000000000000000 n .group
0000000000000000 n .group
0000000000000000 n .group
                 U HMAC_CTX_cleanup
                 U HMAC_CTX_init
                 U HMAC_Final
                 U HMAC_Init_ex
                 U HMAC_size
                 U HMAC_Update
                 U memchr
                 U memcpy
                 U memset
0000000000000000 n .note.GNU-stack
                 U OPENSSL_free
                 U OPENSSL_malloc
0000000000000000 t OPENSSL_memcpy
0000000000000000 t OPENSSL_memset
                 U qsort
                 U RAND_bytes
0000000000000000 r .rodata
0000000000000000 r .rodata._ZN4bsslL11kMaxTicketsE
0000000000000000 r .rodata._ZN4bsslL14kDefaultGroupsE
0000000000000000 r .rodata._ZN4bsslL21kMaxEarlyDataAcceptedE
0000000000000000 r .rodata._ZN4bsslL24kSignSignatureAlgorithmsE
0000000000000000 r .rodata._ZN4bsslL26kVerifySignatureAlgorithmsE
0000000000000000 r .rodata._ZN9__gnu_cxxL21__default_lock_policyE
0000000000000000 r .rodata._ZStL13allocator_arg
0000000000000000 r .rodata._ZStL19piecewise_construct
0000000000000000 r .rodata._ZStL6ignore
0000000000000000 r .rodata._ZZN4bssl20ssl_setup_key_sharesEPNS_13SSL_HANDSHAKEEtE19__PRETTY_FUNCTION__
0000000000000000 r .rodata._ZZN4bssl20tls1_channel_id_hashEPNS_13SSL_HANDSHAKEEPhPmE14kClientIDMagic
0000000000000000 r .rodata._ZZN4bssl20tls1_channel_id_hashEPNS_13SSL_HANDSHAKEEPhPmE16kResumptionMagic
0000000000000000 r .rodata._ZZN4bssl20tls1_set_curves_listEPNS_5ArrayItEEPKcE19__PRETTY_FUNCTION__
0000000000000000 r .rodata._ZZN4bssl21tls1_get_shared_groupEPNS_13SSL_HANDSHAKEEPtE19__PRETTY_FUNCTION__
0000000000000000 r .rodata._ZZN4bssl26ssl_add_clienthello_tlsextEPNS_13SSL_HANDSHAKEEP6cbb_stS3_PbNS_23ssl_client_hello_type_tEmE19__PRETTY_FUNCTION__
0000000000000000 r .rodata._ZZN4bssl31tls1_get_peer_verify_algorithmsEPKNS_13SSL_HANDSHAKEEE22kDefaultPeerAlgorithms
0000000000000000 r .rodata._ZZN4bssl8internal13MutexLockBaseIXadL_Z22CRYPTO_MUTEX_lock_readEEXadL_Z24CRYPTO_MUTEX_unlock_readEEEC4EP15crypto_mutex_stE19__PRETTY_FUNCTION__
0000000000000000 r .rodata._ZZN4bsslL15parse_u16_arrayEPK6cbs_stPNS_5ArrayItEEE19__PRETTY_FUNCTION__
0000000000000000 r .rodata._ZZN4bsslL22ext_ri_add_clienthelloEPKNS_13SSL_HANDSHAKEEP6cbb_stS4_NS_23ssl_client_hello_type_tEE19__PRETTY_FUNCTION__
0000000000000000 r .rodata._ZZN4bsslL22ext_ri_add_serverhelloEPNS_13SSL_HANDSHAKEEP6cbb_stE19__PRETTY_FUNCTION__
0000000000000000 r .rodata._ZZN4bsslL24ext_ri_parse_clienthelloEPNS_13SSL_HANDSHAKEEPhP6cbs_stE19__PRETTY_FUNCTION__
0000000000000000 r .rodata._ZZN4bsslL24ext_ri_parse_serverhelloEPNS_13SSL_HANDSHAKEEPhP6cbs_stE19__PRETTY_FUNCTION__
0000000000000000 r .rodata._ZZN4bsslL24ext_srtp_add_serverhelloEPNS_13SSL_HANDSHAKEEP6cbb_stE19__PRETTY_FUNCTION__
0000000000000000 r .rodata._ZZN4bsslL25ext_npn_parse_serverhelloEPNS_13SSL_HANDSHAKEEPhP6cbs_stE19__PRETTY_FUNCTION__
0000000000000000 r .rodata._ZZN4bsslL25ext_sct_parse_serverhelloEPNS_13SSL_HANDSHAKEEPhP6cbs_stE19__PRETTY_FUNCTION__
0000000000000000 r .rodata._ZZN4bsslL26ext_alpn_parse_serverhelloEPNS_13SSL_HANDSHAKEEPhP6cbs_stE19__PRETTY_FUNCTION__
0000000000000000 r .rodata._ZZN4bsslL26ext_alps_parse_serverhelloEPNS_13SSL_HANDSHAKEEPhP6cbs_stE19__PRETTY_FUNCTION__
0000000000000000 r .rodata._ZZN4bsslL26ext_srtp_parse_serverhelloEPNS_13SSL_HANDSHAKEEPhP6cbs_stE19__PRETTY_FUNCTION__
0000000000000000 r .rodata._ZZN4bsslL26ext_ticket_add_serverhelloEPNS_13SSL_HANDSHAKEEP6cbb_stE19__PRETTY_FUNCTION__
0000000000000000 r .rodata._ZZN4bsslL26ssl_decrypt_ticket_with_cbEPNS_13SSL_HANDSHAKEEPNS_5ArrayIhEEPbNS_4SpanIKhEEE19__PRETTY_FUNCTION__
0000000000000000 r .rodata._ZZN4bsslL27ssl_scan_clienthello_tlsextEPNS_13SSL_HANDSHAKEEPK22ssl_early_callback_ctxPiE25kFakeRenegotiateExtension
0000000000000000 r .rodata._ZZN4bsslL28ext_ticket_parse_serverhelloEPNS_13SSL_HANDSHAKEEPhP6cbs_stE19__PRETTY_FUNCTION__
0000000000000000 r .rodata._ZZN4bsslL29ext_key_share_add_clienthelloEPKNS_13SSL_HANDSHAKEEP6cbb_stS4_NS_23ssl_client_hello_type_tEE19__PRETTY_FUNCTION__
0000000000000000 r .rodata._ZZN4bsslL30decrypt_ticket_with_cipher_ctxEPNS_5ArrayIhEEP17evp_cipher_ctx_stP11hmac_ctx_stNS_4SpanIKhEEE19__PRETTY_FUNCTION__
0000000000000000 r .rodata._ZZN4bsslL30ext_early_data_add_clienthelloEPKNS_13SSL_HANDSHAKEEP6cbb_stS4_NS_23ssl_client_hello_type_tEE19__PRETTY_FUNCTION__
0000000000000000 r .rodata._ZZN4bsslL31tls1_check_duplicate_extensionsEPK6cbs_stE19__PRETTY_FUNCTION__
0000000000000000 r .rodata._ZZN4bsslL32ext_channel_id_parse_serverhelloEPNS_13SSL_HANDSHAKEEPhP6cbs_stE19__PRETTY_FUNCTION__
0000000000000000 r .rodata._ZZN4bsslL32ext_early_data_parse_serverhelloEPNS_13SSL_HANDSHAKEEPhP6cbs_stE19__PRETTY_FUNCTION__
0000000000000000 r .rodata._ZZN4bsslL32ssl_add_clienthello_tlsext_innerEPNS_13SSL_HANDSHAKEEP6cbb_stS3_PbE19__PRETTY_FUNCTION__
0000000000000000 r .rodata._ZZN4bsslL35ssl_decrypt_ticket_with_ticket_keysEPNS_13SSL_HANDSHAKEEPNS_5ArrayIhEENS_4SpanIKhEEE19__PRETTY_FUNCTION__
0000000000000000 r .rodata._ZZN4bsslL46ext_quic_transport_params_add_clienthello_implEPKNS_13SSL_HANDSHAKEEP6cbb_stbE19__PRETTY_FUNCTION__
0000000000000000 r .rodata._ZZN4bsslL46ext_quic_transport_params_add_serverhello_implEPNS_13SSL_HANDSHAKEEP6cbb_stbE19__PRETTY_FUNCTION__
0000000000000000 r .rodata._ZZN4bsslL48ext_quic_transport_params_parse_clienthello_implEPNS_13SSL_HANDSHAKEEPhP6cbs_stbE19__PRETTY_FUNCTION__
0000000000000000 r .rodata._ZZN4bsslL48ext_quic_transport_params_parse_serverhello_implEPNS_13SSL_HANDSHAKEEPhP6cbs_stbE19__PRETTY_FUNCTION__
                 U SHA256
                 U SHA256_Final
                 U SHA256_Init
                 U SHA256_Update
                 U sk_num
0000000000000000 W sk_SRTP_PROTECTION_PROFILE_num
                 U sk_value
0000000000000000 T SSL_early_callback_ctx_extension_get
                 U SSL_get_options
                 U SSL_get_srtp_profiles
                 U SSL_is_dtls
                 U SSL_SESSION_free
                 U SSL_SESSION_from_bytes
                 U strchr
                 U strlen
0000000000000000 t .text
0000000000000000 t .text.OPENSSL_memcpy
0000000000000000 t .text.OPENSSL_memset
0000000000000000 t .text.sk_SRTP_PROTECTION_PROFILE_num
0000000000000000 t .text.SSL_early_callback_ctx_extension_get
0000000000000000 t .text._Z3endI32stack_st_SRTP_PROTECTION_PROFILEENSt9enable_ifIXsrN4bssl8internal11StackTraitsIT_EE8kIsStackENS3_17StackIteratorImplIS5_EEE4typeEPKS5_
0000000000000000 t .text._Z5beginI32stack_st_SRTP_PROTECTION_PROFILEENSt9enable_ifIXsrN4bssl8internal11StackTraitsIT_EE8kIsStackENS3_17StackIteratorImplIS5_EEE4typeEPKS5_
0000000000000000 t .text._ZL14OPENSSL_memchrPKvim
0000000000000000 t .text._ZN4bssl13GrowableArrayINS_10ALPSConfigEE3endEv
0000000000000000 t .text._ZN4bssl13GrowableArrayINS_10ALPSConfigEE5beginEv
0000000000000000 t .text._ZN4bssl13GrowableArrayINS_18CertCompressionAlgEE3endEv
0000000000000000 t .text._ZN4bssl13GrowableArrayINS_18CertCompressionAlgEE5beginEv
0000000000000000 t .text._ZN4bssl13GrowableArrayISt10unique_ptrINS_15ECHServerConfigENS_8internal7DeleterEEE3endEv
0000000000000000 t .text._ZN4bssl13GrowableArrayISt10unique_ptrINS_15ECHServerConfigENS_8internal7DeleterEEE5beginEv
0000000000000000 t .text._ZN4bssl13MakeConstSpanIhEENS_4SpanIKT_EEPS2_m
0000000000000000 t .text._ZN4bssl13MakeConstSpanIKhEENS_4SpanIKT_EEPS3_m
0000000000000000 t .text._ZN4bssl13MakeConstSpanINS_5ArrayIhEEEEDTcl13MakeConstSpancldtfp_4dataEcldtfp_4sizeEEERKT_
0000000000000000 t .text._ZN4bssl13MakeConstSpanItEENS_4SpanIKT_EEPS2_m
0000000000000000 t .text._ZN4bssl15tls1_set_curvesEPNS_5ArrayItEENS_4SpanIKiEE
0000000000000000 t .text._ZN4bssl18ssl_negotiate_alpnEPNS_13SSL_HANDSHAKEEPhPK22ssl_early_callback_ctx
0000000000000000 t .text._ZN4bssl18ssl_negotiate_alpsEPNS_13SSL_HANDSHAKEEPhPK22ssl_early_callback_ctx
0000000000000000 t .text._ZN4bssl18ssl_process_ticketEPNS_13SSL_HANDSHAKEEPSt10unique_ptrI14ssl_session_stNS_8internal7DeleterEEPbNS_4SpanIKhEESB_
0000000000000000 t .text._ZN4bssl18tls1_get_grouplistEPKNS_13SSL_HANDSHAKEE
0000000000000000 t .text._ZN4bssl19tls1_check_group_idEPKNS_13SSL_HANDSHAKEEt
0000000000000000 t .text._ZN4bssl20ssl_setup_key_sharesEPNS_13SSL_HANDSHAKEEt
0000000000000000 t .text._ZN4bssl20tls1_channel_id_hashEPNS_13SSL_HANDSHAKEEPhPm
0000000000000000 t .text._ZN4bssl20tls1_set_curves_listEPNS_5ArrayItEEPKc
0000000000000000 t .text._ZN4bssl21ssl_client_hello_initEPK6ssl_stP22ssl_early_callback_ctxNS_4SpanIKhEE
0000000000000000 t .text._ZN4bssl21ssl_is_sct_list_validEPK6cbs_st
0000000000000000 t .text._ZN4bssl21tls1_get_shared_groupEPNS_13SSL_HANDSHAKEEPt
0000000000000000 t .text._ZN4bssl21tls1_write_channel_idEPNS_13SSL_HANDSHAKEEP6cbb_st
0000000000000000 t .text._ZN4bssl22ssl_is_valid_alpn_listENS_4SpanIKhEE
0000000000000000 t .text._ZN4bssl22tls1_verify_channel_idEPNS_13SSL_HANDSHAKEERKNS_10SSLMessageE
0000000000000000 t .text._ZN4bssl23tls12_check_peer_sigalgEPKNS_13SSL_HANDSHAKEEPht
0000000000000000 t .text._ZN4bssl23tls1_parse_peer_sigalgsEPNS_13SSL_HANDSHAKEEPK6cbs_st
0000000000000000 t .text._ZN4bssl24tls12_add_verify_sigalgsEPKNS_13SSL_HANDSHAKEEP6cbb_st
0000000000000000 t .text._ZN4bssl26ssl_add_clienthello_tlsextEPNS_13SSL_HANDSHAKEEP6cbb_stS3_PbNS_23ssl_client_hello_type_tEm
0000000000000000 t .text._ZN4bssl26ssl_add_serverhello_tlsextEPNS_13SSL_HANDSHAKEEP6cbb_st
0000000000000000 t .text._ZN4bssl28ssl_is_alpn_protocol_allowedEPKNS_13SSL_HANDSHAKEENS_4SpanIKhEE
0000000000000000 t .text._ZN4bssl28ssl_parse_clienthello_tlsextEPNS_13SSL_HANDSHAKEEPK22ssl_early_callback_ctx
0000000000000000 t .text._ZN4bssl28ssl_parse_serverhello_tlsextEPNS_13SSL_HANDSHAKEEPK6cbs_st
0000000000000000 t .text._ZN4bssl30ssl_client_hello_get_extensionEPK22ssl_early_callback_ctxP6cbs_stt
0000000000000000 t .text._ZN4bssl31ssl_setup_extension_permutationEPNS_13SSL_HANDSHAKEE
0000000000000000 t .text._ZN4bssl31tls1_choose_signature_algorithmEPNS_13SSL_HANDSHAKEEPt
0000000000000000 t .text._ZN4bssl31tls1_get_peer_verify_algorithmsEPKNS_13SSL_HANDSHAKEE
0000000000000000 t .text._ZN4bssl33ssl_ext_key_share_add_serverhelloEPNS_13SSL_HANDSHAKEEP6cbb_st
0000000000000000 t .text._ZN4bssl34ssl_get_local_application_settingsEPKNS_13SSL_HANDSHAKEEPNS_4SpanIKhEES5_
0000000000000000 t .text._ZN4bssl35ssl_ext_key_share_parse_clienthelloEPNS_13SSL_HANDSHAKEEPbPNS_4SpanIKhEEPhPK22ssl_early_callback_ctx
0000000000000000 t .text._ZN4bssl35ssl_ext_key_share_parse_serverhelloEPNS_13SSL_HANDSHAKEEPNS_5ArrayIhEEPhP6cbs_st
0000000000000000 t .text._ZN4bssl35tls1_get_legacy_signature_algorithmEPtPK11evp_pkey_st
0000000000000000 t .text._ZN4bssl38ssl_ext_pre_shared_key_add_serverhelloEPNS_13SSL_HANDSHAKEEP6cbb_st
0000000000000000 t .text._ZN4bssl40ssl_ext_pre_shared_key_parse_clienthelloEPNS_13SSL_HANDSHAKEEP6cbs_stS3_PjPhPK22ssl_early_callback_ctxS3_
0000000000000000 t .text._ZN4bssl40ssl_ext_pre_shared_key_parse_serverhelloEPNS_13SSL_HANDSHAKEEPhP6cbs_st
0000000000000000 t .text._ZN4bssl41ssl_parse_client_hello_with_trailing_dataEPK6ssl_stP6cbs_stP22ssl_early_callback_ctx
0000000000000000 t .text._ZN4bssl43tls1_record_handshake_hashes_for_channel_idEPNS_13SSL_HANDSHAKEE
0000000000000000 t .text._ZN4bssl4SpanIKhE4lastEm
0000000000000000 t .text._ZN4bssl4SpanIKhE5firstEm
0000000000000000 t .text._ZN4bssl4SpanIKhEC1EPS1_m
0000000000000000 t .text._ZN4bssl4SpanIKhEC2ILm16EEERAT__S1_
0000000000000000 t .text._ZN4bssl4SpanIKhEC2INS_5ArrayIhEEvS5_EERKT_
0000000000000000 t .text._ZN4bssl4SpanIKtEC1EPS1_m
0000000000000000 t .text._ZN4bssl4SpanIKtEC2ILm2EEERAT__S1_
0000000000000000 t .text._ZN4bssl4SpanIKtEC2ILm3EEERAT__S1_
0000000000000000 t .text._ZN4bssl4SpanIKtEC2ILm9EEERAT__S1_
0000000000000000 t .text._ZN4bssl4SpanIKtEC2INS_5ArrayItEEvS5_EERKT_
0000000000000000 t .text._ZN4bssl5ArrayIhE4dataEv
0000000000000000 t .text._ZN4bssl5ArrayIhE4InitEm
0000000000000000 t .text._ZN4bssl5ArrayIhE5ResetEPhm
0000000000000000 t .text._ZN4bssl5ArrayIhE5ResetEv
0000000000000000 t .text._ZN4bssl5ArrayIhE6ShrinkEm
0000000000000000 t .text._ZN4bssl5ArrayIhE7ReleaseEPPhPm
0000000000000000 t .text._ZN4bssl5ArrayIhE8CopyFromENS_4SpanIKhEE
0000000000000000 t .text._ZN4bssl5ArrayIhEaSEOS1_
0000000000000000 t .text._ZN4bssl5ArrayIhEC2Ev
0000000000000000 t .text._ZN4bssl5ArrayIhED2Ev
0000000000000000 t .text._ZN4bssl5ArrayIhEixEm
0000000000000000 t .text._ZN4bssl5ArrayINS_10ALPSConfigEE4dataEv
0000000000000000 t .text._ZN4bssl5ArrayINS_18CertCompressionAlgEE4dataEv
0000000000000000 t .text._ZN4bssl5ArrayISt10unique_ptrINS_15ECHServerConfigENS_8internal7DeleterEEE4dataEv
0000000000000000 t .text._ZN4bssl5ArrayItE4dataEv
0000000000000000 t .text._ZN4bssl5ArrayItE4InitEm
0000000000000000 t .text._ZN4bssl5ArrayItE5ResetEPtm
0000000000000000 t .text._ZN4bssl5ArrayItE5ResetEv
0000000000000000 t .text._ZN4bssl5ArrayItE7ReleaseEPPtPm
0000000000000000 t .text._ZN4bssl5ArrayItEaSEOS1_
0000000000000000 t .text._ZN4bssl5ArrayItEC2Ev
0000000000000000 t .text._ZN4bssl5ArrayItED2Ev
0000000000000000 t .text._ZN4bssl5ArrayItEixEm
0000000000000000 t .text._ZN4bssl6DeleteINS_11SSLKeyShareEEEvPT_
0000000000000000 t .text._ZN4bssl8internal11DeleterImplI11ec_group_stvE4FreeEPS2_
0000000000000000 t .text._ZN4bssl8internal11DeleterImplI11ec_point_stvE4FreeEPS2_
0000000000000000 t .text._ZN4bssl8internal11DeleterImplI12ecdsa_sig_stvE4FreeEPS2_
0000000000000000 t .text._ZN4bssl8internal11DeleterImplI14ssl_session_stvE4FreeEPS2_
0000000000000000 t .text._ZN4bssl8internal11DeleterImplI16crypto_buffer_stvE4FreeEPS2_
0000000000000000 t .text._ZN4bssl8internal11DeleterImplI9bignum_stvE4FreeEPS2_
0000000000000000 t .text._ZN4bssl8internal11DeleterImplI9ec_key_stvE4FreeEPS2_
0000000000000000 t .text._ZN4bssl8internal11DeleterImplINS_11SSLKeyShareEvE4FreeEPS2_
0000000000000000 t .text._ZN4bssl8internal13MutexLockBaseIXadL_Z22CRYPTO_MUTEX_lock_readEEXadL_Z24CRYPTO_MUTEX_unlock_readEEEC2EP15crypto_mutex_st
0000000000000000 t .text._ZN4bssl8internal13MutexLockBaseIXadL_Z22CRYPTO_MUTEX_lock_readEEXadL_Z24CRYPTO_MUTEX_unlock_readEEED2Ev
0000000000000000 t .text._ZN4bssl8internal14StackAllocatedI11hmac_ctx_stvXadL_Z13HMAC_CTX_initEEXadL_Z16HMAC_CTX_cleanupEEE3getEv
0000000000000000 t .text._ZN4bssl8internal14StackAllocatedI11hmac_ctx_stvXadL_Z13HMAC_CTX_initEEXadL_Z16HMAC_CTX_cleanupEEEC2Ev
0000000000000000 t .text._ZN4bssl8internal14StackAllocatedI11hmac_ctx_stvXadL_Z13HMAC_CTX_initEEXadL_Z16HMAC_CTX_cleanupEEED2Ev
0000000000000000 t .text._ZN4bssl8internal14StackAllocatedI17evp_cipher_ctx_stiXadL_Z19EVP_CIPHER_CTX_initEEXadL_Z22EVP_CIPHER_CTX_cleanupEEE3getEv
0000000000000000 t .text._ZN4bssl8internal14StackAllocatedI17evp_cipher_ctx_stiXadL_Z19EVP_CIPHER_CTX_initEEXadL_Z22EVP_CIPHER_CTX_cleanupEEEC2Ev
0000000000000000 t .text._ZN4bssl8internal14StackAllocatedI17evp_cipher_ctx_stiXadL_Z19EVP_CIPHER_CTX_initEEXadL_Z22EVP_CIPHER_CTX_cleanupEEED2Ev
0000000000000000 t .text._ZN4bssl8internal14StackAllocatedI6cbb_stvXadL_Z8CBB_zeroEEXadL_Z11CBB_cleanupEEE3getEv
0000000000000000 t .text._ZN4bssl8internal14StackAllocatedI6cbb_stvXadL_Z8CBB_zeroEEXadL_Z11CBB_cleanupEEEC2Ev
0000000000000000 t .text._ZN4bssl8internal14StackAllocatedI6cbb_stvXadL_Z8CBB_zeroEEXadL_Z11CBB_cleanupEEED2Ev
0000000000000000 t .text._ZN4bssl8internal17StackIteratorImplI32stack_st_SRTP_PROTECTION_PROFILEEC2EPKS2_m
0000000000000000 t .text._ZN4bssl8internal17StackIteratorImplI32stack_st_SRTP_PROTECTION_PROFILEEppEv
0000000000000000 t .text._ZN4bssl8internal7DeleterclI11ec_group_stEEvPT_
0000000000000000 t .text._ZN4bssl8internal7DeleterclI11ec_point_stEEvPT_
0000000000000000 t .text._ZN4bssl8internal7DeleterclI12ecdsa_sig_stEEvPT_
0000000000000000 t .text._ZN4bssl8internal7DeleterclI14ssl_session_stEEvPT_
0000000000000000 t .text._ZN4bssl8internal7DeleterclI16crypto_buffer_stEEvPT_
0000000000000000 t .text._ZN4bssl8internal7DeleterclI9bignum_stEEvPT_
0000000000000000 t .text._ZN4bssl8internal7DeleterclI9ec_key_stEEvPT_
0000000000000000 t .text._ZN4bssl8internal7DeleterclINS_11SSLKeyShareEEEvPT_
0000000000000000 t .text._ZN4bssl8internaleqENS_4SpanIKhEES3_
0000000000000000 t .text._ZN4bsslL15parse_u16_arrayEPK6cbs_stPNS_5ArrayItEE
0000000000000000 t .text._ZN4bsslL16compare_uint16_tEPKvS1_
0000000000000000 t .text._ZN4bsslL16should_offer_pskEPKNS_13SSL_HANDSHAKEENS_23ssl_client_hello_type_tE
0000000000000000 t .text._ZN4bsslL18tls_extension_findEPjt
0000000000000000 t .text._ZN4bsslL20dont_add_serverhelloEPNS_13SSL_HANDSHAKEEP6cbb_st
0000000000000000 t .text._ZN4bsslL21add_padding_extensionEP6cbb_sttm
0000000000000000 t .text._ZN4bsslL21is_post_quantum_groupEt
0000000000000000 t .text._ZN4bsslL22ext_ri_add_clienthelloEPKNS_13SSL_HANDSHAKEEP6cbb_stS4_NS_23ssl_client_hello_type_tE
0000000000000000 t .text._ZN4bsslL22ext_ri_add_serverhelloEPNS_13SSL_HANDSHAKEEP6cbb_st
0000000000000000 t .text._ZN4bsslL23ext_ech_add_clienthelloEPKNS_13SSL_HANDSHAKEEP6cbb_stS4_NS_23ssl_client_hello_type_tE
0000000000000000 t .text._ZN4bsslL23ext_ech_add_serverhelloEPNS_13SSL_HANDSHAKEEP6cbb_st
0000000000000000 t .text._ZN4bsslL23ext_ems_add_clienthelloEPKNS_13SSL_HANDSHAKEEP6cbb_stS4_NS_23ssl_client_hello_type_tE
0000000000000000 t .text._ZN4bsslL23ext_ems_add_serverhelloEPNS_13SSL_HANDSHAKEEP6cbb_st
0000000000000000 t .text._ZN4bsslL23ext_npn_add_clienthelloEPKNS_13SSL_HANDSHAKEEP6cbb_stS4_NS_23ssl_client_hello_type_tE
0000000000000000 t .text._ZN4bsslL23ext_npn_add_serverhelloEPNS_13SSL_HANDSHAKEEP6cbb_st
0000000000000000 t .text._ZN4bsslL23ext_sct_add_clienthelloEPKNS_13SSL_HANDSHAKEEP6cbb_stS4_NS_23ssl_client_hello_type_tE
0000000000000000 t .text._ZN4bsslL23ext_sct_add_serverhelloEPNS_13SSL_HANDSHAKEEP6cbb_st
0000000000000000 t .text._ZN4bsslL23ext_sni_add_clienthelloEPKNS_13SSL_HANDSHAKEEP6cbb_stS4_NS_23ssl_client_hello_type_tE
0000000000000000 t .text._ZN4bsslL23ext_sni_add_serverhelloEPNS_13SSL_HANDSHAKEEP6cbb_st
0000000000000000 t .text._ZN4bsslL24ext_alpn_add_clienthelloEPKNS_13SSL_HANDSHAKEEP6cbb_stS4_NS_23ssl_client_hello_type_tE
0000000000000000 t .text._ZN4bsslL24ext_alpn_add_serverhelloEPNS_13SSL_HANDSHAKEEP6cbb_st
0000000000000000 t .text._ZN4bsslL24ext_alps_add_clienthelloEPKNS_13SSL_HANDSHAKEEP6cbb_stS4_NS_23ssl_client_hello_type_tE
0000000000000000 t .text._ZN4bsslL24ext_alps_add_serverhelloEPNS_13SSL_HANDSHAKEEP6cbb_st
0000000000000000 t .text._ZN4bsslL24ext_ocsp_add_clienthelloEPKNS_13SSL_HANDSHAKEEP6cbb_stS4_NS_23ssl_client_hello_type_tE
0000000000000000 t .text._ZN4bsslL24ext_ocsp_add_serverhelloEPNS_13SSL_HANDSHAKEEP6cbb_st
0000000000000000 t .text._ZN4bsslL24ext_ri_parse_clienthelloEPNS_13SSL_HANDSHAKEEPhP6cbs_st
0000000000000000 t .text._ZN4bsslL24ext_ri_parse_serverhelloEPNS_13SSL_HANDSHAKEEPhP6cbs_st
0000000000000000 t .text._ZN4bsslL24ext_srtp_add_clienthelloEPKNS_13SSL_HANDSHAKEEP6cbb_stS4_NS_23ssl_client_hello_type_tE
0000000000000000 t .text._ZN4bsslL24ext_srtp_add_serverhelloEPNS_13SSL_HANDSHAKEEP6cbb_st
0000000000000000 t .text._ZN4bsslL24forbid_parse_serverhelloEPNS_13SSL_HANDSHAKEEPhP6cbs_st
0000000000000000 t .text._ZN4bsslL24ignore_parse_clienthelloEPNS_13SSL_HANDSHAKEEPhP6cbs_st
0000000000000000 t .text._ZN4bsslL24tls12_get_verify_sigalgsEPKNS_13SSL_HANDSHAKEE
0000000000000000 t .text._ZN4bsslL25ext_ech_parse_clienthelloEPNS_13SSL_HANDSHAKEEPhP6cbs_st
0000000000000000 t .text._ZN4bsslL25ext_ech_parse_serverhelloEPNS_13SSL_HANDSHAKEEPhP6cbs_st
0000000000000000 t .text._ZN4bsslL25ext_ems_parse_clienthelloEPNS_13SSL_HANDSHAKEEPhP6cbs_st
0000000000000000 t .text._ZN4bsslL25ext_ems_parse_serverhelloEPNS_13SSL_HANDSHAKEEPhP6cbs_st
0000000000000000 t .text._ZN4bsslL25ext_npn_parse_clienthelloEPNS_13SSL_HANDSHAKEEPhP6cbs_st
0000000000000000 t .text._ZN4bsslL25ext_npn_parse_serverhelloEPNS_13SSL_HANDSHAKEEPhP6cbs_st
0000000000000000 t .text._ZN4bsslL25ext_sct_parse_clienthelloEPNS_13SSL_HANDSHAKEEPhP6cbs_st
0000000000000000 t .text._ZN4bsslL25ext_sct_parse_serverhelloEPNS_13SSL_HANDSHAKEEPhP6cbs_st
0000000000000000 t .text._ZN4bsslL25ext_sni_parse_clienthelloEPNS_13SSL_HANDSHAKEEPhP6cbs_st
0000000000000000 t .text._ZN4bsslL25ext_sni_parse_serverhelloEPNS_13SSL_HANDSHAKEEPhP6cbs_st
0000000000000000 t .text._ZN4bsslL26ext_alpn_parse_serverhelloEPNS_13SSL_HANDSHAKEEPhP6cbs_st
0000000000000000 t .text._ZN4bsslL26ext_alps_parse_serverhelloEPNS_13SSL_HANDSHAKEEPhP6cbs_st
0000000000000000 t .text._ZN4bsslL26ext_cookie_add_clienthelloEPKNS_13SSL_HANDSHAKEEP6cbb_stS4_NS_23ssl_client_hello_type_tE
0000000000000000 t .text._ZN4bsslL26ext_ec_point_add_extensionEPKNS_13SSL_HANDSHAKEEP6cbb_st
0000000000000000 t .text._ZN4bsslL26ext_ocsp_parse_clienthelloEPNS_13SSL_HANDSHAKEEPhP6cbs_st
0000000000000000 t .text._ZN4bsslL26ext_ocsp_parse_serverhelloEPNS_13SSL_HANDSHAKEEPhP6cbs_st
0000000000000000 t .text._ZN4bsslL26ext_srtp_parse_clienthelloEPNS_13SSL_HANDSHAKEEPhP6cbs_st
0000000000000000 t .text._ZN4bsslL26ext_srtp_parse_serverhelloEPNS_13SSL_HANDSHAKEEPhP6cbs_st
0000000000000000 t .text._ZN4bsslL26ext_ticket_add_clienthelloEPKNS_13SSL_HANDSHAKEEP6cbb_stS4_NS_23ssl_client_hello_type_tE
0000000000000000 t .text._ZN4bsslL26ext_ticket_add_serverhelloEPNS_13SSL_HANDSHAKEEP6cbb_st
0000000000000000 t .text._ZN4bsslL26ssl_decrypt_ticket_with_cbEPNS_13SSL_HANDSHAKEEPNS_5ArrayIhEEPbNS_4SpanIKhEE
0000000000000000 t .text._ZN4bsslL27ext_sigalgs_add_clienthelloEPKNS_13SSL_HANDSHAKEEP6cbb_stS4_NS_23ssl_client_hello_type_tE
0000000000000000 t .text._ZN4bsslL27ssl_scan_clienthello_tlsextEPNS_13SSL_HANDSHAKEEPK22ssl_early_callback_ctxPi
0000000000000000 t .text._ZN4bsslL27ssl_scan_serverhello_tlsextEPNS_13SSL_HANDSHAKEEPK6cbs_stPi
0000000000000000 t .text._ZN4bsslL28ext_ec_point_add_clienthelloEPKNS_13SSL_HANDSHAKEEP6cbb_stS4_NS_23ssl_client_hello_type_tE
0000000000000000 t .text._ZN4bsslL28ext_ec_point_add_serverhelloEPNS_13SSL_HANDSHAKEEP6cbb_st
0000000000000000 t .text._ZN4bsslL28ext_ticket_parse_serverhelloEPNS_13SSL_HANDSHAKEEPhP6cbs_st
0000000000000000 t .text._ZN4bsslL28ssl_check_clienthello_tlsextEPNS_13SSL_HANDSHAKEE
0000000000000000 t .text._ZN4bsslL28ssl_check_serverhello_tlsextEPNS_13SSL_HANDSHAKEE
0000000000000000 t .text._ZN4bsslL29ext_key_share_add_clienthelloEPKNS_13SSL_HANDSHAKEEP6cbb_stS4_NS_23ssl_client_hello_type_tE
0000000000000000 t .text._ZN4bsslL29ext_sigalgs_parse_clienthelloEPNS_13SSL_HANDSHAKEEPhP6cbs_st
0000000000000000 t .text._ZN4bsslL30decrypt_ticket_with_cipher_ctxEPNS_5ArrayIhEEP17evp_cipher_ctx_stP11hmac_ctx_stNS_4SpanIKhEE
0000000000000000 t .text._ZN4bsslL30ext_channel_id_add_clienthelloEPKNS_13SSL_HANDSHAKEEP6cbb_stS4_NS_23ssl_client_hello_type_tE
0000000000000000 t .text._ZN4bsslL30ext_channel_id_add_serverhelloEPNS_13SSL_HANDSHAKEEP6cbb_st
0000000000000000 t .text._ZN4bsslL30ext_early_data_add_clienthelloEPKNS_13SSL_HANDSHAKEEP6cbb_stS4_NS_23ssl_client_hello_type_tE
0000000000000000 t .text._ZN4bsslL30ext_early_data_add_serverhelloEPNS_13SSL_HANDSHAKEEP6cbb_st
0000000000000000 t .text._ZN4bsslL30ext_ec_point_parse_clienthelloEPNS_13SSL_HANDSHAKEEPhP6cbs_st
0000000000000000 t .text._ZN4bsslL30ext_ec_point_parse_serverhelloEPNS_13SSL_HANDSHAKEEPhP6cbs_st
0000000000000000 t .text._ZN4bsslL30ssl_decrypt_ticket_with_methodEPNS_13SSL_HANDSHAKEEPNS_5ArrayIhEEPbNS_4SpanIKhEE
0000000000000000 t .text._ZN4bsslL31tls1_check_duplicate_extensionsEPK6cbs_st
0000000000000000 t .text._ZN4bsslL32cert_compression_add_clienthelloEPKNS_13SSL_HANDSHAKEEP6cbb_stS4_NS_23ssl_client_hello_type_tE
0000000000000000 t .text._ZN4bsslL32cert_compression_add_serverhelloEPNS_13SSL_HANDSHAKEEP6cbb_st
0000000000000000 t .text._ZN4bsslL32ext_channel_id_parse_clienthelloEPNS_13SSL_HANDSHAKEEPhP6cbs_st
0000000000000000 t .text._ZN4bsslL32ext_channel_id_parse_serverhelloEPNS_13SSL_HANDSHAKEEPhP6cbs_st
0000000000000000 t .text._ZN4bsslL32ext_early_data_parse_clienthelloEPNS_13SSL_HANDSHAKEEPhP6cbs_st
0000000000000000 t .text._ZN4bsslL32ext_early_data_parse_serverhelloEPNS_13SSL_HANDSHAKEEPhP6cbs_st
0000000000000000 t .text._ZN4bsslL32ssl_add_clienthello_tlsext_innerEPNS_13SSL_HANDSHAKEEP6cbb_stS3_Pb
0000000000000000 t .text._ZN4bsslL34cert_compression_parse_clienthelloEPNS_13SSL_HANDSHAKEEPhP6cbs_st
0000000000000000 t .text._ZN4bsslL34cert_compression_parse_serverhelloEPNS_13SSL_HANDSHAKEEPhP6cbs_st
0000000000000000 t .text._ZN4bsslL34ext_pre_shared_key_add_clienthelloEPKNS_13SSL_HANDSHAKEEP6cbb_stPbNS_23ssl_client_hello_type_tE
0000000000000000 t .text._ZN4bsslL35ssl_decrypt_ticket_with_ticket_keysEPNS_13SSL_HANDSHAKEEPNS_5ArrayIhEENS_4SpanIKhEE
0000000000000000 t .text._ZN4bsslL36ext_supported_groups_add_clienthelloEPKNS_13SSL_HANDSHAKEEP6cbb_stS4_NS_23ssl_client_hello_type_tE
0000000000000000 t .text._ZN4bsslL37ext_pre_shared_key_clienthello_lengthEPKNS_13SSL_HANDSHAKEENS_23ssl_client_hello_type_tE
0000000000000000 t .text._ZN4bsslL38ext_supported_groups_parse_clienthelloEPNS_13SSL_HANDSHAKEEPhP6cbs_st
0000000000000000 t .text._ZN4bsslL38ext_supported_groups_parse_serverhelloEPNS_13SSL_HANDSHAKEEPhP6cbs_st
0000000000000000 t .text._ZN4bsslL38ext_supported_versions_add_clienthelloEPKNS_13SSL_HANDSHAKEEP6cbb_stS4_NS_23ssl_client_hello_type_tE
0000000000000000 t .text._ZN4bsslL40ext_delegated_credential_add_clienthelloEPKNS_13SSL_HANDSHAKEEP6cbb_stS4_NS_23ssl_client_hello_type_tE
0000000000000000 t .text._ZN4bsslL41ext_quic_transport_params_add_clienthelloEPKNS_13SSL_HANDSHAKEEP6cbb_stS4_NS_23ssl_client_hello_type_tE
0000000000000000 t .text._ZN4bsslL41ext_quic_transport_params_add_serverhelloEPNS_13SSL_HANDSHAKEEP6cbb_st
0000000000000000 t .text._ZN4bsslL42ext_delegated_credential_parse_clienthelloEPNS_13SSL_HANDSHAKEEPhP6cbs_st
0000000000000000 t .text._ZN4bsslL42ext_psk_key_exchange_modes_add_clienthelloEPKNS_13SSL_HANDSHAKEEP6cbb_stS4_NS_23ssl_client_hello_type_tE
0000000000000000 t .text._ZN4bsslL43ext_quic_transport_params_parse_clienthelloEPNS_13SSL_HANDSHAKEEPhP6cbs_st
0000000000000000 t .text._ZN4bsslL43ext_quic_transport_params_parse_serverhelloEPNS_13SSL_HANDSHAKEEPhP6cbs_st
0000000000000000 t .text._ZN4bsslL44ext_psk_key_exchange_modes_parse_clienthelloEPNS_13SSL_HANDSHAKEEPhP6cbs_st
0000000000000000 t .text._ZN4bsslL46ext_quic_transport_params_add_clienthello_implEPKNS_13SSL_HANDSHAKEEP6cbb_stb
0000000000000000 t .text._ZN4bsslL46ext_quic_transport_params_add_serverhello_implEPNS_13SSL_HANDSHAKEEP6cbb_stb
0000000000000000 t .text._ZN4bsslL48ext_quic_transport_params_add_clienthello_legacyEPKNS_13SSL_HANDSHAKEEP6cbb_stS4_NS_23ssl_client_hello_type_tE
0000000000000000 t .text._ZN4bsslL48ext_quic_transport_params_add_serverhello_legacyEPNS_13SSL_HANDSHAKEEP6cbb_st
0000000000000000 t .text._ZN4bsslL48ext_quic_transport_params_parse_clienthello_implEPNS_13SSL_HANDSHAKEEPhP6cbs_stb
0000000000000000 t .text._ZN4bsslL48ext_quic_transport_params_parse_serverhello_implEPNS_13SSL_HANDSHAKEEPhP6cbs_stb
0000000000000000 t .text._ZN4bsslL50ext_quic_transport_params_parse_clienthello_legacyEPNS_13SSL_HANDSHAKEEPhP6cbs_st
0000000000000000 t .text._ZN4bsslL50ext_quic_transport_params_parse_serverhello_legacyEPNS_13SSL_HANDSHAKEEPhP6cbs_st
0000000000000000 t .text._ZN6cbs_stC2EN4bssl4SpanIKhEE
0000000000000000 t .text._ZNK4bssl13GrowableArrayINS_10ALPSConfigEE5emptyEv
0000000000000000 t .text._ZNK4bssl13GrowableArrayINS_18CertCompressionAlgEE4sizeEv
0000000000000000 t .text._ZNK4bssl13GrowableArrayINS_18CertCompressionAlgEEixEm
0000000000000000 t .text._ZNK4bssl15ECHServerConfig10ech_configEv
0000000000000000 t .text._ZNK4bssl15ECHServerConfig15is_retry_configEv
0000000000000000 t .text._ZNK4bssl4SpanIKhE3endEv
0000000000000000 t .text._ZNK4bssl4SpanIKhE4dataEv
0000000000000000 t .text._ZNK4bssl4SpanIKhE4sizeEv
0000000000000000 t .text._ZNK4bssl4SpanIKhE5beginEv
0000000000000000 t .text._ZNK4bssl4SpanIKhE7subspanEmm
0000000000000000 t .text._ZNK4bssl4SpanIKiE4sizeEv
0000000000000000 t .text._ZNK4bssl4SpanIKiEixEm
0000000000000000 t .text._ZNK4bssl4SpanIKtE3endEv
0000000000000000 t .text._ZNK4bssl4SpanIKtE4sizeEv
0000000000000000 t .text._ZNK4bssl4SpanIKtE5beginEv
0000000000000000 t .text._ZNK4bssl4SpanIKtE5emptyEv
0000000000000000 t .text._ZNK4bssl4SpanIKtEixEm
0000000000000000 t .text._ZNK4bssl5ArrayIhE4dataEv
0000000000000000 t .text._ZNK4bssl5ArrayIhE4sizeEv
0000000000000000 t .text._ZNK4bssl5ArrayIhE5emptyEv
0000000000000000 t .text._ZNK4bssl5ArrayINS_18CertCompressionAlgEEixEm
0000000000000000 t .text._ZNK4bssl5ArrayItE4dataEv
0000000000000000 t .text._ZNK4bssl5ArrayItE4sizeEv
0000000000000000 t .text._ZNK4bssl5ArrayItE5emptyEv
0000000000000000 t .text._ZNK4bssl8internal17StackIteratorImplI32stack_st_SRTP_PROTECTION_PROFILEEdeEv
0000000000000000 t .text._ZNK4bssl8internal17StackIteratorImplI32stack_st_SRTP_PROTECTION_PROFILEEeqES3_
0000000000000000 t .text._ZNK4bssl8internal17StackIteratorImplI32stack_st_SRTP_PROTECTION_PROFILEEneES3_
0000000000000000 t .text._ZNK6cbs_stcvN4bssl4SpanIKhEEEv
0000000000000000 t .text._ZNKSt10unique_ptrI10ssl_ctx_stN4bssl8internal7DeleterEE3getEv
0000000000000000 t .text._ZNKSt10unique_ptrI10ssl_ctx_stN4bssl8internal7DeleterEEptEv
0000000000000000 t .text._ZNKSt10unique_ptrI11ec_group_stN4bssl8internal7DeleterEE3getEv
0000000000000000 t .text._ZNKSt10unique_ptrI11ec_group_stN4bssl8internal7DeleterEEcvbEv
0000000000000000 t .text._ZNKSt10unique_ptrI11ec_point_stN4bssl8internal7DeleterEE3getEv
0000000000000000 t .text._ZNKSt10unique_ptrI11ec_point_stN4bssl8internal7DeleterEEcvbEv
0000000000000000 t .text._ZNKSt10unique_ptrI11evp_pkey_stN4bssl8internal7DeleterEE3getEv
0000000000000000 t .text._ZNKSt10unique_ptrI11evp_pkey_stN4bssl8internal7DeleterEEcvbEv
0000000000000000 t .text._ZNKSt10unique_ptrI12ecdsa_sig_stN4bssl8internal7DeleterEE3getEv
0000000000000000 t .text._ZNKSt10unique_ptrI12ecdsa_sig_stN4bssl8internal7DeleterEEcvbEv
0000000000000000 t .text._ZNKSt10unique_ptrI12ecdsa_sig_stN4bssl8internal7DeleterEEptEv
0000000000000000 t .text._ZNKSt10unique_ptrI14ssl_session_stN4bssl8internal7DeleterEE3getEv
0000000000000000 t .text._ZNKSt10unique_ptrI14ssl_session_stN4bssl8internal7DeleterEEcvbEv
0000000000000000 t .text._ZNKSt10unique_ptrI14ssl_session_stN4bssl8internal7DeleterEEptEv
0000000000000000 t .text._ZNKSt10unique_ptrI15ssl_ech_keys_stN4bssl8internal7DeleterEE3getEv
0000000000000000 t .text._ZNKSt10unique_ptrI15ssl_ech_keys_stN4bssl8internal7DeleterEEcvbEv
0000000000000000 t .text._ZNKSt10unique_ptrI15ssl_ech_keys_stN4bssl8internal7DeleterEEptEv
0000000000000000 t .text._ZNKSt10unique_ptrI16crypto_buffer_stN4bssl8internal7DeleterEE3getEv
0000000000000000 t .text._ZNKSt10unique_ptrI16crypto_buffer_stN4bssl8internal7DeleterEEcvbEv
0000000000000000 t .text._ZNKSt10unique_ptrI9bignum_stN4bssl8internal7DeleterEE3getEv
0000000000000000 t .text._ZNKSt10unique_ptrI9bignum_stN4bssl8internal7DeleterEEcvbEv
0000000000000000 t .text._ZNKSt10unique_ptrI9ec_key_stN4bssl8internal7DeleterEE3getEv
0000000000000000 t .text._ZNKSt10unique_ptrI9ec_key_stN4bssl8internal7DeleterEEcvbEv
0000000000000000 t .text._ZNKSt10unique_ptrIcN4bssl8internal7DeleterEE3getEv
0000000000000000 t .text._ZNKSt10unique_ptrIcN4bssl8internal7DeleterEEcvbEv
0000000000000000 t .text._ZNKSt10unique_ptrIN4bssl11SSLKeyShareENS0_8internal7DeleterEE3getEv
0000000000000000 t .text._ZNKSt10unique_ptrIN4bssl11SSLKeyShareENS0_8internal7DeleterEEcvbEv
0000000000000000 t .text._ZNKSt10unique_ptrIN4bssl11SSLKeyShareENS0_8internal7DeleterEEptEv
0000000000000000 t .text._ZNKSt10unique_ptrIN4bssl15ECHServerConfigENS0_8internal7DeleterEE3getEv
0000000000000000 t .text._ZNKSt10unique_ptrIN4bssl15ECHServerConfigENS0_8internal7DeleterEEptEv
0000000000000000 t .text._ZNKSt10unique_ptrIN4bssl19SSL_HANDSHAKE_HINTSENS0_8internal7DeleterEE3getEv
0000000000000000 t .text._ZNKSt10unique_ptrIN4bssl2DCENS0_8internal7DeleterEE3getEv
0000000000000000 t .text._ZNKSt10unique_ptrIN4bssl4CERTENS0_8internal7DeleterEE3getEv
0000000000000000 t .text._ZNKSt10unique_ptrIN4bssl4CERTENS0_8internal7DeleterEEptEv
0000000000000000 t .text._ZNKSt10unique_ptrIN4bssl9ECHConfigENS0_8internal7DeleterEE3getEv
0000000000000000 t .text._ZNKSt10unique_ptrIN4bssl9ECHConfigENS0_8internal7DeleterEEptEv
0000000000000000 t .text._ZNKSt10unique_ptrIN4bssl9TicketKeyENS0_8internal7DeleterEE3getEv
0000000000000000 t .text._ZNKSt10unique_ptrIN4bssl9TicketKeyENS0_8internal7DeleterEEcvbEv
0000000000000000 t .text._ZNKSt10unique_ptrIN4bssl9TicketKeyENS0_8internal7DeleterEEptEv
0000000000000000 t .text._ZNKSt15__uniq_ptr_implI10ssl_ctx_stN4bssl8internal7DeleterEE6_M_ptrEv
0000000000000000 t .text._ZNKSt15__uniq_ptr_implI11ec_group_stN4bssl8internal7DeleterEE6_M_ptrEv
0000000000000000 t .text._ZNKSt15__uniq_ptr_implI11ec_point_stN4bssl8internal7DeleterEE6_M_ptrEv
0000000000000000 t .text._ZNKSt15__uniq_ptr_implI11evp_pkey_stN4bssl8internal7DeleterEE6_M_ptrEv
0000000000000000 t .text._ZNKSt15__uniq_ptr_implI12ecdsa_sig_stN4bssl8internal7DeleterEE6_M_ptrEv
0000000000000000 t .text._ZNKSt15__uniq_ptr_implI14ssl_session_stN4bssl8internal7DeleterEE6_M_ptrEv
0000000000000000 t .text._ZNKSt15__uniq_ptr_implI15ssl_ech_keys_stN4bssl8internal7DeleterEE6_M_ptrEv
0000000000000000 t .text._ZNKSt15__uniq_ptr_implI16crypto_buffer_stN4bssl8internal7DeleterEE6_M_ptrEv
0000000000000000 t .text._ZNKSt15__uniq_ptr_implI9bignum_stN4bssl8internal7DeleterEE6_M_ptrEv
0000000000000000 t .text._ZNKSt15__uniq_ptr_implI9ec_key_stN4bssl8internal7DeleterEE6_M_ptrEv
0000000000000000 t .text._ZNKSt15__uniq_ptr_implIcN4bssl8internal7DeleterEE6_M_ptrEv
0000000000000000 t .text._ZNKSt15__uniq_ptr_implIN4bssl11SSLKeyShareENS0_8internal7DeleterEE6_M_ptrEv
0000000000000000 t .text._ZNKSt15__uniq_ptr_implIN4bssl15ECHServerConfigENS0_8internal7DeleterEE6_M_ptrEv
0000000000000000 t .text._ZNKSt15__uniq_ptr_implIN4bssl19SSL_HANDSHAKE_HINTSENS0_8internal7DeleterEE6_M_ptrEv
0000000000000000 t .text._ZNKSt15__uniq_ptr_implIN4bssl2DCENS0_8internal7DeleterEE6_M_ptrEv
0000000000000000 t .text._ZNKSt15__uniq_ptr_implIN4bssl4CERTENS0_8internal7DeleterEE6_M_ptrEv
0000000000000000 t .text._ZNKSt15__uniq_ptr_implIN4bssl9ECHConfigENS0_8internal7DeleterEE6_M_ptrEv
0000000000000000 t .text._ZNKSt15__uniq_ptr_implIN4bssl9TicketKeyENS0_8internal7DeleterEE6_M_ptrEv
0000000000000000 t .text._ZNSt10_Head_baseILm0EP10ssl_ctx_stLb0EE7_M_headERKS2_
0000000000000000 t .text._ZNSt10_Head_baseILm0EP11ec_group_stLb0EE7_M_headERKS2_
0000000000000000 t .text._ZNSt10_Head_baseILm0EP11ec_group_stLb0EE7_M_headERS2_
0000000000000000 t .text._ZNSt10_Head_baseILm0EP11ec_group_stLb0EEC2Ev
0000000000000000 t .text._ZNSt10_Head_baseILm0EP11ec_point_stLb0EE7_M_headERKS2_
0000000000000000 t .text._ZNSt10_Head_baseILm0EP11ec_point_stLb0EE7_M_headERS2_
0000000000000000 t .text._ZNSt10_Head_baseILm0EP11ec_point_stLb0EEC2Ev
0000000000000000 t .text._ZNSt10_Head_baseILm0EP11evp_pkey_stLb0EE7_M_headERKS2_
0000000000000000 t .text._ZNSt10_Head_baseILm0EP12ecdsa_sig_stLb0EE7_M_headERKS2_
0000000000000000 t .text._ZNSt10_Head_baseILm0EP12ecdsa_sig_stLb0EE7_M_headERS2_
0000000000000000 t .text._ZNSt10_Head_baseILm0EP12ecdsa_sig_stLb0EEC2Ev
0000000000000000 t .text._ZNSt10_Head_baseILm0EP14ssl_session_stLb0EE7_M_headERKS2_
0000000000000000 t .text._ZNSt10_Head_baseILm0EP14ssl_session_stLb0EE7_M_headERS2_
0000000000000000 t .text._ZNSt10_Head_baseILm0EP14ssl_session_stLb0EEC2Ev
0000000000000000 t .text._ZNSt10_Head_baseILm0EP15ssl_ech_keys_stLb0EE7_M_headERKS2_
0000000000000000 t .text._ZNSt10_Head_baseILm0EP16crypto_buffer_stLb0EE7_M_headERKS2_
0000000000000000 t .text._ZNSt10_Head_baseILm0EP16crypto_buffer_stLb0EE7_M_headERS2_
0000000000000000 t .text._ZNSt10_Head_baseILm0EP9bignum_stLb0EE7_M_headERKS2_
0000000000000000 t .text._ZNSt10_Head_baseILm0EP9bignum_stLb0EE7_M_headERS2_
0000000000000000 t .text._ZNSt10_Head_baseILm0EP9bignum_stLb0EEC2Ev
0000000000000000 t .text._ZNSt10_Head_baseILm0EP9ec_key_stLb0EE7_M_headERKS2_
0000000000000000 t .text._ZNSt10_Head_baseILm0EP9ec_key_stLb0EE7_M_headERS2_
0000000000000000 t .text._ZNSt10_Head_baseILm0EP9ec_key_stLb0EEC2Ev
0000000000000000 t .text._ZNSt10_Head_baseILm0EPcLb0EE7_M_headERKS1_
0000000000000000 t .text._ZNSt10_Head_baseILm0EPN4bssl11SSLKeyShareELb0EE7_M_headERKS3_
0000000000000000 t .text._ZNSt10_Head_baseILm0EPN4bssl11SSLKeyShareELb0EE7_M_headERS3_
0000000000000000 t .text._ZNSt10_Head_baseILm0EPN4bssl15ECHServerConfigELb0EE7_M_headERKS3_
0000000000000000 t .text._ZNSt10_Head_baseILm0EPN4bssl19SSL_HANDSHAKE_HINTSELb0EE7_M_headERKS3_
0000000000000000 t .text._ZNSt10_Head_baseILm0EPN4bssl2DCELb0EE7_M_headERKS3_
0000000000000000 t .text._ZNSt10_Head_baseILm0EPN4bssl4CERTELb0EE7_M_headERKS3_
0000000000000000 t .text._ZNSt10_Head_baseILm0EPN4bssl9ECHConfigELb0EE7_M_headERKS3_
0000000000000000 t .text._ZNSt10_Head_baseILm0EPN4bssl9TicketKeyELb0EE7_M_headERKS3_
0000000000000000 t .text._ZNSt10_Head_baseILm1EN4bssl8internal7DeleterELb1EE7_M_headERS3_
0000000000000000 t .text._ZNSt10_Head_baseILm1EN4bssl8internal7DeleterELb1EEC2Ev
0000000000000000 t .text._ZNSt10unique_ptrI11ec_group_stN4bssl8internal7DeleterEE11get_deleterEv
0000000000000000 t .text._ZNSt10unique_ptrI11ec_group_stN4bssl8internal7DeleterEEC2IS3_vEEPS0_
0000000000000000 t .text._ZNSt10unique_ptrI11ec_group_stN4bssl8internal7DeleterEED2Ev
0000000000000000 t .text._ZNSt10unique_ptrI11ec_point_stN4bssl8internal7DeleterEE11get_deleterEv
0000000000000000 t .text._ZNSt10unique_ptrI11ec_point_stN4bssl8internal7DeleterEEC2IS3_vEEPS0_
0000000000000000 t .text._ZNSt10unique_ptrI11ec_point_stN4bssl8internal7DeleterEED2Ev
0000000000000000 t .text._ZNSt10unique_ptrI12ecdsa_sig_stN4bssl8internal7DeleterEE11get_deleterEv
0000000000000000 t .text._ZNSt10unique_ptrI12ecdsa_sig_stN4bssl8internal7DeleterEEC2IS3_vEEPS0_
0000000000000000 t .text._ZNSt10unique_ptrI12ecdsa_sig_stN4bssl8internal7DeleterEED2Ev
0000000000000000 t .text._ZNSt10unique_ptrI14ssl_session_stN4bssl8internal7DeleterEE11get_deleterEv
0000000000000000 t .text._ZNSt10unique_ptrI14ssl_session_stN4bssl8internal7DeleterEE5resetEPS0_
0000000000000000 t .text._ZNSt10unique_ptrI14ssl_session_stN4bssl8internal7DeleterEE7releaseEv
0000000000000000 t .text._ZNSt10unique_ptrI14ssl_session_stN4bssl8internal7DeleterEEaSEOS4_
0000000000000000 t .text._ZNSt10unique_ptrI14ssl_session_stN4bssl8internal7DeleterEEC2IS3_vEEPS0_
0000000000000000 t .text._ZNSt10unique_ptrI14ssl_session_stN4bssl8internal7DeleterEED2Ev
0000000000000000 t .text._ZNSt10unique_ptrI16crypto_buffer_stN4bssl8internal7DeleterEE11get_deleterEv
0000000000000000 t .text._ZNSt10unique_ptrI16crypto_buffer_stN4bssl8internal7DeleterEE5resetEPS0_
0000000000000000 t .text._ZNSt10unique_ptrI9bignum_stN4bssl8internal7DeleterEE11get_deleterEv
0000000000000000 t .text._ZNSt10unique_ptrI9bignum_stN4bssl8internal7DeleterEEC2IS3_vEEPS0_
0000000000000000 t .text._ZNSt10unique_ptrI9bignum_stN4bssl8internal7DeleterEED2Ev
0000000000000000 t .text._ZNSt10unique_ptrI9ec_key_stN4bssl8internal7DeleterEE11get_deleterEv
0000000000000000 t .text._ZNSt10unique_ptrI9ec_key_stN4bssl8internal7DeleterEEC2IS3_vEEPS0_
0000000000000000 t .text._ZNSt10unique_ptrI9ec_key_stN4bssl8internal7DeleterEED2Ev
0000000000000000 t .text._ZNSt10unique_ptrIN4bssl11SSLKeyShareENS0_8internal7DeleterEE11get_deleterEv
0000000000000000 t .text._ZNSt10unique_ptrIN4bssl11SSLKeyShareENS0_8internal7DeleterEE5resetEPS1_
0000000000000000 t .text._ZNSt10unique_ptrIN4bssl11SSLKeyShareENS0_8internal7DeleterEE7releaseEv
0000000000000000 t .text._ZNSt10unique_ptrIN4bssl11SSLKeyShareENS0_8internal7DeleterEEaSEOS4_
0000000000000000 t .text._ZNSt10unique_ptrIN4bssl11SSLKeyShareENS0_8internal7DeleterEED2Ev
0000000000000000 t .text._ZNSt11_Tuple_implILm0EJP10ssl_ctx_stN4bssl8internal7DeleterEEE7_M_headERKS5_
0000000000000000 t .text._ZNSt11_Tuple_implILm0EJP11ec_group_stN4bssl8internal7DeleterEEE7_M_headERKS5_
0000000000000000 t .text._ZNSt11_Tuple_implILm0EJP11ec_group_stN4bssl8internal7DeleterEEE7_M_headERS5_
0000000000000000 t .text._ZNSt11_Tuple_implILm0EJP11ec_group_stN4bssl8internal7DeleterEEEC2Ev
0000000000000000 t .text._ZNSt11_Tuple_implILm0EJP11ec_point_stN4bssl8internal7DeleterEEE7_M_headERKS5_
0000000000000000 t .text._ZNSt11_Tuple_implILm0EJP11ec_point_stN4bssl8internal7DeleterEEE7_M_headERS5_
0000000000000000 t .text._ZNSt11_Tuple_implILm0EJP11ec_point_stN4bssl8internal7DeleterEEEC2Ev
0000000000000000 t .text._ZNSt11_Tuple_implILm0EJP11evp_pkey_stN4bssl8internal7DeleterEEE7_M_headERKS5_
0000000000000000 t .text._ZNSt11_Tuple_implILm0EJP12ecdsa_sig_stN4bssl8internal7DeleterEEE7_M_headERKS5_
0000000000000000 t .text._ZNSt11_Tuple_implILm0EJP12ecdsa_sig_stN4bssl8internal7DeleterEEE7_M_headERS5_
0000000000000000 t .text._ZNSt11_Tuple_implILm0EJP12ecdsa_sig_stN4bssl8internal7DeleterEEEC2Ev
0000000000000000 t .text._ZNSt11_Tuple_implILm0EJP14ssl_session_stN4bssl8internal7DeleterEEE7_M_headERKS5_
0000000000000000 t .text._ZNSt11_Tuple_implILm0EJP14ssl_session_stN4bssl8internal7DeleterEEE7_M_headERS5_
0000000000000000 t .text._ZNSt11_Tuple_implILm0EJP14ssl_session_stN4bssl8internal7DeleterEEEC2Ev
0000000000000000 t .text._ZNSt11_Tuple_implILm0EJP15ssl_ech_keys_stN4bssl8internal7DeleterEEE7_M_headERKS5_
0000000000000000 t .text._ZNSt11_Tuple_implILm0EJP16crypto_buffer_stN4bssl8internal7DeleterEEE7_M_headERKS5_
0000000000000000 t .text._ZNSt11_Tuple_implILm0EJP16crypto_buffer_stN4bssl8internal7DeleterEEE7_M_headERS5_
0000000000000000 t .text._ZNSt11_Tuple_implILm0EJP9bignum_stN4bssl8internal7DeleterEEE7_M_headERKS5_
0000000000000000 t .text._ZNSt11_Tuple_implILm0EJP9bignum_stN4bssl8internal7DeleterEEE7_M_headERS5_
0000000000000000 t .text._ZNSt11_Tuple_implILm0EJP9bignum_stN4bssl8internal7DeleterEEEC2Ev
0000000000000000 t .text._ZNSt11_Tuple_implILm0EJP9ec_key_stN4bssl8internal7DeleterEEE7_M_headERKS5_
0000000000000000 t .text._ZNSt11_Tuple_implILm0EJP9ec_key_stN4bssl8internal7DeleterEEE7_M_headERS5_
0000000000000000 t .text._ZNSt11_Tuple_implILm0EJP9ec_key_stN4bssl8internal7DeleterEEEC2Ev
0000000000000000 t .text._ZNSt11_Tuple_implILm0EJPcN4bssl8internal7DeleterEEE7_M_headERKS4_
0000000000000000 t .text._ZNSt11_Tuple_implILm0EJPN4bssl11SSLKeyShareENS0_8internal7DeleterEEE7_M_headERKS5_
0000000000000000 t .text._ZNSt11_Tuple_implILm0EJPN4bssl11SSLKeyShareENS0_8internal7DeleterEEE7_M_headERS5_
0000000000000000 t .text._ZNSt11_Tuple_implILm0EJPN4bssl15ECHServerConfigENS0_8internal7DeleterEEE7_M_headERKS5_
0000000000000000 t .text._ZNSt11_Tuple_implILm0EJPN4bssl19SSL_HANDSHAKE_HINTSENS0_8internal7DeleterEEE7_M_headERKS5_
0000000000000000 t .text._ZNSt11_Tuple_implILm0EJPN4bssl2DCENS0_8internal7DeleterEEE7_M_headERKS5_
0000000000000000 t .text._ZNSt11_Tuple_implILm0EJPN4bssl4CERTENS0_8internal7DeleterEEE7_M_headERKS5_
0000000000000000 t .text._ZNSt11_Tuple_implILm0EJPN4bssl9ECHConfigENS0_8internal7DeleterEEE7_M_headERKS5_
0000000000000000 t .text._ZNSt11_Tuple_implILm0EJPN4bssl9TicketKeyENS0_8internal7DeleterEEE7_M_headERKS5_
0000000000000000 t .text._ZNSt11_Tuple_implILm1EJN4bssl8internal7DeleterEEE7_M_headERS3_
0000000000000000 t .text._ZNSt11_Tuple_implILm1EJN4bssl8internal7DeleterEEEC2Ev
0000000000000000 t .text._ZNSt14numeric_limitsImE3maxEv
0000000000000000 t .text._ZNSt15__uniq_ptr_implI11ec_group_stN4bssl8internal7DeleterEE10_M_deleterEv
0000000000000000 t .text._ZNSt15__uniq_ptr_implI11ec_group_stN4bssl8internal7DeleterEE6_M_ptrEv
0000000000000000 t .text._ZNSt15__uniq_ptr_implI11ec_group_stN4bssl8internal7DeleterEEC2EPS0_
0000000000000000 t .text._ZNSt15__uniq_ptr_implI11ec_point_stN4bssl8internal7DeleterEE10_M_deleterEv
0000000000000000 t .text._ZNSt15__uniq_ptr_implI11ec_point_stN4bssl8internal7DeleterEE6_M_ptrEv
0000000000000000 t .text._ZNSt15__uniq_ptr_implI11ec_point_stN4bssl8internal7DeleterEEC2EPS0_
0000000000000000 t .text._ZNSt15__uniq_ptr_implI12ecdsa_sig_stN4bssl8internal7DeleterEE10_M_deleterEv
0000000000000000 t .text._ZNSt15__uniq_ptr_implI12ecdsa_sig_stN4bssl8internal7DeleterEE6_M_ptrEv
0000000000000000 t .text._ZNSt15__uniq_ptr_implI12ecdsa_sig_stN4bssl8internal7DeleterEEC2EPS0_
0000000000000000 t .text._ZNSt15__uniq_ptr_implI14ssl_session_stN4bssl8internal7DeleterEE10_M_deleterEv
0000000000000000 t .text._ZNSt15__uniq_ptr_implI14ssl_session_stN4bssl8internal7DeleterEE6_M_ptrEv
0000000000000000 t .text._ZNSt15__uniq_ptr_implI14ssl_session_stN4bssl8internal7DeleterEEC2EPS0_
0000000000000000 t .text._ZNSt15__uniq_ptr_implI16crypto_buffer_stN4bssl8internal7DeleterEE10_M_deleterEv
0000000000000000 t .text._ZNSt15__uniq_ptr_implI16crypto_buffer_stN4bssl8internal7DeleterEE6_M_ptrEv
0000000000000000 t .text._ZNSt15__uniq_ptr_implI9bignum_stN4bssl8internal7DeleterEE10_M_deleterEv
0000000000000000 t .text._ZNSt15__uniq_ptr_implI9bignum_stN4bssl8internal7DeleterEE6_M_ptrEv
0000000000000000 t .text._ZNSt15__uniq_ptr_implI9bignum_stN4bssl8internal7DeleterEEC2EPS0_
0000000000000000 t .text._ZNSt15__uniq_ptr_implI9ec_key_stN4bssl8internal7DeleterEE10_M_deleterEv
0000000000000000 t .text._ZNSt15__uniq_ptr_implI9ec_key_stN4bssl8internal7DeleterEE6_M_ptrEv
0000000000000000 t .text._ZNSt15__uniq_ptr_implI9ec_key_stN4bssl8internal7DeleterEEC2EPS0_
0000000000000000 t .text._ZNSt15__uniq_ptr_implIN4bssl11SSLKeyShareENS0_8internal7DeleterEE10_M_deleterEv
0000000000000000 t .text._ZNSt15__uniq_ptr_implIN4bssl11SSLKeyShareENS0_8internal7DeleterEE6_M_ptrEv
0000000000000000 t .text._ZNSt5tupleIJP11ec_group_stN4bssl8internal7DeleterEEEC2IS1_S4_Lb1EEEv
0000000000000000 t .text._ZNSt5tupleIJP11ec_point_stN4bssl8internal7DeleterEEEC2IS1_S4_Lb1EEEv
0000000000000000 t .text._ZNSt5tupleIJP12ecdsa_sig_stN4bssl8internal7DeleterEEEC2IS1_S4_Lb1EEEv
0000000000000000 t .text._ZNSt5tupleIJP14ssl_session_stN4bssl8internal7DeleterEEEC2IS1_S4_Lb1EEEv
0000000000000000 t .text._ZNSt5tupleIJP9bignum_stN4bssl8internal7DeleterEEEC2IS1_S4_Lb1EEEv
0000000000000000 t .text._ZNSt5tupleIJP9ec_key_stN4bssl8internal7DeleterEEEC2IS1_S4_Lb1EEEv
0000000000000000 t .text._ZnwmPv
0000000000000000 t .text._ZSt12__get_helperILm0EP10ssl_ctx_stJN4bssl8internal7DeleterEEERKT0_RKSt11_Tuple_implIXT_EJS5_DpT1_EE
0000000000000000 t .text._ZSt12__get_helperILm0EP11ec_group_stJN4bssl8internal7DeleterEEERKT0_RKSt11_Tuple_implIXT_EJS5_DpT1_EE
0000000000000000 t .text._ZSt12__get_helperILm0EP11ec_group_stJN4bssl8internal7DeleterEEERT0_RSt11_Tuple_implIXT_EJS5_DpT1_EE
0000000000000000 t .text._ZSt12__get_helperILm0EP11ec_point_stJN4bssl8internal7DeleterEEERKT0_RKSt11_Tuple_implIXT_EJS5_DpT1_EE
0000000000000000 t .text._ZSt12__get_helperILm0EP11ec_point_stJN4bssl8internal7DeleterEEERT0_RSt11_Tuple_implIXT_EJS5_DpT1_EE
0000000000000000 t .text._ZSt12__get_helperILm0EP11evp_pkey_stJN4bssl8internal7DeleterEEERKT0_RKSt11_Tuple_implIXT_EJS5_DpT1_EE
0000000000000000 t .text._ZSt12__get_helperILm0EP12ecdsa_sig_stJN4bssl8internal7DeleterEEERKT0_RKSt11_Tuple_implIXT_EJS5_DpT1_EE
0000000000000000 t .text._ZSt12__get_helperILm0EP12ecdsa_sig_stJN4bssl8internal7DeleterEEERT0_RSt11_Tuple_implIXT_EJS5_DpT1_EE
0000000000000000 t .text._ZSt12__get_helperILm0EP14ssl_session_stJN4bssl8internal7DeleterEEERKT0_RKSt11_Tuple_implIXT_EJS5_DpT1_EE
0000000000000000 t .text._ZSt12__get_helperILm0EP14ssl_session_stJN4bssl8internal7DeleterEEERT0_RSt11_Tuple_implIXT_EJS5_DpT1_EE
0000000000000000 t .text._ZSt12__get_helperILm0EP15ssl_ech_keys_stJN4bssl8internal7DeleterEEERKT0_RKSt11_Tuple_implIXT_EJS5_DpT1_EE
0000000000000000 t .text._ZSt12__get_helperILm0EP16crypto_buffer_stJN4bssl8internal7DeleterEEERKT0_RKSt11_Tuple_implIXT_EJS5_DpT1_EE
0000000000000000 t .text._ZSt12__get_helperILm0EP16crypto_buffer_stJN4bssl8internal7DeleterEEERT0_RSt11_Tuple_implIXT_EJS5_DpT1_EE
0000000000000000 t .text._ZSt12__get_helperILm0EP9bignum_stJN4bssl8internal7DeleterEEERKT0_RKSt11_Tuple_implIXT_EJS5_DpT1_EE
0000000000000000 t .text._ZSt12__get_helperILm0EP9bignum_stJN4bssl8internal7DeleterEEERT0_RSt11_Tuple_implIXT_EJS5_DpT1_EE
0000000000000000 t .text._ZSt12__get_helperILm0EP9ec_key_stJN4bssl8internal7DeleterEEERKT0_RKSt11_Tuple_implIXT_EJS5_DpT1_EE
0000000000000000 t .text._ZSt12__get_helperILm0EP9ec_key_stJN4bssl8internal7DeleterEEERT0_RSt11_Tuple_implIXT_EJS5_DpT1_EE
0000000000000000 t .text._ZSt12__get_helperILm0EPcJN4bssl8internal7DeleterEEERKT0_RKSt11_Tuple_implIXT_EJS4_DpT1_EE
0000000000000000 t .text._ZSt12__get_helperILm0EPN4bssl11SSLKeyShareEJNS0_8internal7DeleterEEERKT0_RKSt11_Tuple_implIXT_EJS5_DpT1_EE
0000000000000000 t .text._ZSt12__get_helperILm0EPN4bssl11SSLKeyShareEJNS0_8internal7DeleterEEERT0_RSt11_Tuple_implIXT_EJS5_DpT1_EE
0000000000000000 t .text._ZSt12__get_helperILm0EPN4bssl15ECHServerConfigEJNS0_8internal7DeleterEEERKT0_RKSt11_Tuple_implIXT_EJS5_DpT1_EE
0000000000000000 t .text._ZSt12__get_helperILm0EPN4bssl19SSL_HANDSHAKE_HINTSEJNS0_8internal7DeleterEEERKT0_RKSt11_Tuple_implIXT_EJS5_DpT1_EE
0000000000000000 t .text._ZSt12__get_helperILm0EPN4bssl2DCEJNS0_8internal7DeleterEEERKT0_RKSt11_Tuple_implIXT_EJS5_DpT1_EE
0000000000000000 t .text._ZSt12__get_helperILm0EPN4bssl4CERTEJNS0_8internal7DeleterEEERKT0_RKSt11_Tuple_implIXT_EJS5_DpT1_EE
0000000000000000 t .text._ZSt12__get_helperILm0EPN4bssl9ECHConfigEJNS0_8internal7DeleterEEERKT0_RKSt11_Tuple_implIXT_EJS5_DpT1_EE
0000000000000000 t .text._ZSt12__get_helperILm0EPN4bssl9TicketKeyEJNS0_8internal7DeleterEEERKT0_RKSt11_Tuple_implIXT_EJS5_DpT1_EE
0000000000000000 t .text._ZSt12__get_helperILm1EN4bssl8internal7DeleterEJEERT0_RSt11_Tuple_implIXT_EJS3_DpT1_EE
0000000000000000 t .text._ZSt3getILm0EJP10ssl_ctx_stN4bssl8internal7DeleterEEERKNSt13tuple_elementIXT_ESt5tupleIJDpT0_EEE4typeERKS9_
0000000000000000 t .text._ZSt3getILm0EJP11ec_group_stN4bssl8internal7DeleterEEERKNSt13tuple_elementIXT_ESt5tupleIJDpT0_EEE4typeERKS9_
0000000000000000 t .text._ZSt3getILm0EJP11ec_group_stN4bssl8internal7DeleterEEERNSt13tuple_elementIXT_ESt5tupleIJDpT0_EEE4typeERS9_
0000000000000000 t .text._ZSt3getILm0EJP11ec_point_stN4bssl8internal7DeleterEEERKNSt13tuple_elementIXT_ESt5tupleIJDpT0_EEE4typeERKS9_
0000000000000000 t .text._ZSt3getILm0EJP11ec_point_stN4bssl8internal7DeleterEEERNSt13tuple_elementIXT_ESt5tupleIJDpT0_EEE4typeERS9_
0000000000000000 t .text._ZSt3getILm0EJP11evp_pkey_stN4bssl8internal7DeleterEEERKNSt13tuple_elementIXT_ESt5tupleIJDpT0_EEE4typeERKS9_
0000000000000000 t .text._ZSt3getILm0EJP12ecdsa_sig_stN4bssl8internal7DeleterEEERKNSt13tuple_elementIXT_ESt5tupleIJDpT0_EEE4typeERKS9_
0000000000000000 t .text._ZSt3getILm0EJP12ecdsa_sig_stN4bssl8internal7DeleterEEERNSt13tuple_elementIXT_ESt5tupleIJDpT0_EEE4typeERS9_
0000000000000000 t .text._ZSt3getILm0EJP14ssl_session_stN4bssl8internal7DeleterEEERKNSt13tuple_elementIXT_ESt5tupleIJDpT0_EEE4typeERKS9_
0000000000000000 t .text._ZSt3getILm0EJP14ssl_session_stN4bssl8internal7DeleterEEERNSt13tuple_elementIXT_ESt5tupleIJDpT0_EEE4typeERS9_
0000000000000000 t .text._ZSt3getILm0EJP15ssl_ech_keys_stN4bssl8internal7DeleterEEERKNSt13tuple_elementIXT_ESt5tupleIJDpT0_EEE4typeERKS9_
0000000000000000 t .text._ZSt3getILm0EJP16crypto_buffer_stN4bssl8internal7DeleterEEERKNSt13tuple_elementIXT_ESt5tupleIJDpT0_EEE4typeERKS9_
0000000000000000 t .text._ZSt3getILm0EJP16crypto_buffer_stN4bssl8internal7DeleterEEERNSt13tuple_elementIXT_ESt5tupleIJDpT0_EEE4typeERS9_
0000000000000000 t .text._ZSt3getILm0EJP9bignum_stN4bssl8internal7DeleterEEERKNSt13tuple_elementIXT_ESt5tupleIJDpT0_EEE4typeERKS9_
0000000000000000 t .text._ZSt3getILm0EJP9bignum_stN4bssl8internal7DeleterEEERNSt13tuple_elementIXT_ESt5tupleIJDpT0_EEE4typeERS9_
0000000000000000 t .text._ZSt3getILm0EJP9ec_key_stN4bssl8internal7DeleterEEERKNSt13tuple_elementIXT_ESt5tupleIJDpT0_EEE4typeERKS9_
0000000000000000 t .text._ZSt3getILm0EJP9ec_key_stN4bssl8internal7DeleterEEERNSt13tuple_elementIXT_ESt5tupleIJDpT0_EEE4typeERS9_
0000000000000000 t .text._ZSt3getILm0EJPcN4bssl8internal7DeleterEEERKNSt13tuple_elementIXT_ESt5tupleIJDpT0_EEE4typeERKS8_
0000000000000000 t .text._ZSt3getILm0EJPN4bssl11SSLKeyShareENS0_8internal7DeleterEEERKNSt13tuple_elementIXT_ESt5tupleIJDpT0_EEE4typeERKS9_
0000000000000000 t .text._ZSt3getILm0EJPN4bssl11SSLKeyShareENS0_8internal7DeleterEEERNSt13tuple_elementIXT_ESt5tupleIJDpT0_EEE4typeERS9_
0000000000000000 t .text._ZSt3getILm0EJPN4bssl15ECHServerConfigENS0_8internal7DeleterEEERKNSt13tuple_elementIXT_ESt5tupleIJDpT0_EEE4typeERKS9_
0000000000000000 t .text._ZSt3getILm0EJPN4bssl19SSL_HANDSHAKE_HINTSENS0_8internal7DeleterEEERKNSt13tuple_elementIXT_ESt5tupleIJDpT0_EEE4typeERKS9_
0000000000000000 t .text._ZSt3getILm0EJPN4bssl2DCENS0_8internal7DeleterEEERKNSt13tuple_elementIXT_ESt5tupleIJDpT0_EEE4typeERKS9_
0000000000000000 t .text._ZSt3getILm0EJPN4bssl4CERTENS0_8internal7DeleterEEERKNSt13tuple_elementIXT_ESt5tupleIJDpT0_EEE4typeERKS9_
0000000000000000 t .text._ZSt3getILm0EJPN4bssl9ECHConfigENS0_8internal7DeleterEEERKNSt13tuple_elementIXT_ESt5tupleIJDpT0_EEE4typeERKS9_
0000000000000000 t .text._ZSt3getILm0EJPN4bssl9TicketKeyENS0_8internal7DeleterEEERKNSt13tuple_elementIXT_ESt5tupleIJDpT0_EEE4typeERKS9_
0000000000000000 t .text._ZSt3getILm1EJP11ec_group_stN4bssl8internal7DeleterEEERNSt13tuple_elementIXT_ESt5tupleIJDpT0_EEE4typeERS9_
0000000000000000 t .text._ZSt3getILm1EJP11ec_point_stN4bssl8internal7DeleterEEERNSt13tuple_elementIXT_ESt5tupleIJDpT0_EEE4typeERS9_
0000000000000000 t .text._ZSt3getILm1EJP12ecdsa_sig_stN4bssl8internal7DeleterEEERNSt13tuple_elementIXT_ESt5tupleIJDpT0_EEE4typeERS9_
0000000000000000 t .text._ZSt3getILm1EJP14ssl_session_stN4bssl8internal7DeleterEEERNSt13tuple_elementIXT_ESt5tupleIJDpT0_EEE4typeERS9_
0000000000000000 t .text._ZSt3getILm1EJP16crypto_buffer_stN4bssl8internal7DeleterEEERNSt13tuple_elementIXT_ESt5tupleIJDpT0_EEE4typeERS9_
0000000000000000 t .text._ZSt3getILm1EJP9bignum_stN4bssl8internal7DeleterEEERNSt13tuple_elementIXT_ESt5tupleIJDpT0_EEE4typeERS9_
0000000000000000 t .text._ZSt3getILm1EJP9ec_key_stN4bssl8internal7DeleterEEERNSt13tuple_elementIXT_ESt5tupleIJDpT0_EEE4typeERS9_
0000000000000000 t .text._ZSt3getILm1EJPN4bssl11SSLKeyShareENS0_8internal7DeleterEEERNSt13tuple_elementIXT_ESt5tupleIJDpT0_EEE4typeERS9_
0000000000000000 t .text._ZSt3minImERKT_S2_S2_
0000000000000000 t .text._ZSt4moveIRhEONSt16remove_referenceIT_E4typeEOS2_
0000000000000000 t .text._ZSt4moveIRN4bssl5ArrayIhEEEONSt16remove_referenceIT_E4typeEOS5_
0000000000000000 t .text._ZSt4moveIRN4bssl5ArrayItEEEONSt16remove_referenceIT_E4typeEOS5_
0000000000000000 t .text._ZSt4moveIRP14ssl_session_stEONSt16remove_referenceIT_E4typeEOS4_
0000000000000000 t .text._ZSt4moveIRP16crypto_buffer_stEONSt16remove_referenceIT_E4typeEOS4_
0000000000000000 t .text._ZSt4moveIRPN4bssl11SSLKeyShareEEONSt16remove_referenceIT_E4typeEOS5_
0000000000000000 t .text._ZSt4moveIRSt10unique_ptrI14ssl_session_stN4bssl8internal7DeleterEEEONSt16remove_referenceIT_E4typeEOS8_
0000000000000000 t .text._ZSt4swapIhENSt9enable_ifIXsrSt6__and_IJSt6__not_ISt15__is_tuple_likeIT_EESt21is_move_constructibleIS4_ESt18is_move_assignableIS4_EEE5valueEvE4typeERS4_SE_
0000000000000000 t .text._ZSt4swapIP14ssl_session_stENSt9enable_ifIXsrSt6__and_IJSt6__not_ISt15__is_tuple_likeIT_EESt21is_move_constructibleIS6_ESt18is_move_assignableIS6_EEE5valueEvE4typeERS6_SG_
0000000000000000 t .text._ZSt4swapIP16crypto_buffer_stENSt9enable_ifIXsrSt6__and_IJSt6__not_ISt15__is_tuple_likeIT_EESt21is_move_constructibleIS6_ESt18is_move_assignableIS6_EEE5valueEvE4typeERS6_SG_
0000000000000000 t .text._ZSt4swapIPN4bssl11SSLKeyShareEENSt9enable_ifIXsrSt6__and_IJSt6__not_ISt15__is_tuple_likeIT_EESt21is_move_constructibleIS7_ESt18is_move_assignableIS7_EEE5valueEvE4typeERS7_SH_
0000000000000000 t .text._ZSt7forwardIN4bssl8internal7DeleterEEOT_RNSt16remove_referenceIS3_E4typeE
0000000000000000 t .text._ZSteqI14ssl_session_stN4bssl8internal7DeleterEEbRKSt10unique_ptrIT_T0_EDn
0000000000000000 t .text._ZSteqI15ssl_ech_keys_stN4bssl8internal7DeleterEEbRKSt10unique_ptrIT_T0_EDn
0000000000000000 t .text._ZSteqI16crypto_buffer_stN4bssl8internal7DeleterEEbRKSt10unique_ptrIT_T0_EDn
0000000000000000 t .text._ZSteqIcN4bssl8internal7DeleterEEbRKSt10unique_ptrIT_T0_EDn
0000000000000000 t .text._ZStneI14ssl_session_stN4bssl8internal7DeleterEEbRKSt10unique_ptrIT_T0_EDn
0000000000000000 W _Z3endI32stack_st_SRTP_PROTECTION_PROFILEENSt9enable_ifIXsrN4bssl8internal11StackTraitsIT_EE8kIsStackENS3_17StackIteratorImplIS5_EEE4typeEPKS5_
0000000000000000 W _Z5beginI32stack_st_SRTP_PROTECTION_PROFILEENSt9enable_ifIXsrN4bssl8internal11StackTraitsIT_EE8kIsStackENS3_17StackIteratorImplIS5_EEE4typeEPKS5_
0000000000000000 t _ZL14OPENSSL_memchrPKvim
                 U _ZN4bssl11SSLKeyShare6CreateEt
0000000000000000 W _ZN4bssl13GrowableArrayINS_10ALPSConfigEE3endEv
0000000000000000 W _ZN4bssl13GrowableArrayINS_10ALPSConfigEE5beginEv
0000000000000000 W _ZN4bssl13GrowableArrayINS_18CertCompressionAlgEE3endEv
0000000000000000 W _ZN4bssl13GrowableArrayINS_18CertCompressionAlgEE5beginEv
0000000000000000 W _ZN4bssl13GrowableArrayISt10unique_ptrINS_15ECHServerConfigENS_8internal7DeleterEEE3endEv
0000000000000000 W _ZN4bssl13GrowableArrayISt10unique_ptrINS_15ECHServerConfigENS_8internal7DeleterEEE5beginEv
0000000000000000 W _ZN4bssl13MakeConstSpanIhEENS_4SpanIKT_EEPS2_m
0000000000000000 W _ZN4bssl13MakeConstSpanIKhEENS_4SpanIKT_EEPS3_m
0000000000000000 W _ZN4bssl13MakeConstSpanINS_5ArrayIhEEEEDTcl13MakeConstSpancldtfp_4dataEcldtfp_4sizeEEERKT_
0000000000000000 W _ZN4bssl13MakeConstSpanItEENS_4SpanIKT_EEPS2_m
                 U _ZN4bssl14CBBFinishArrayEP6cbb_stPNS_5ArrayIhEE
                 U _ZN4bssl14ssl_send_alertEP6ssl_stii
0000000000000000 T _ZN4bssl15tls1_set_curvesEPNS_5ArrayItEENS_4SpanIKiEE
0000000000000000 T _ZN4bssl18ssl_negotiate_alpnEPNS_13SSL_HANDSHAKEEPhPK22ssl_early_callback_ctx
0000000000000000 T _ZN4bssl18ssl_negotiate_alpsEPNS_13SSL_HANDSHAKEEPhPK22ssl_early_callback_ctx
0000000000000000 T _ZN4bssl18ssl_process_ticketEPNS_13SSL_HANDSHAKEEPSt10unique_ptrI14ssl_session_stNS_8internal7DeleterEEPbNS_4SpanIKhEESB_
0000000000000000 T _ZN4bssl18tls1_get_grouplistEPKNS_13SSL_HANDSHAKEE
                 U _ZN4bssl19ssl_nid_to_group_idEPti
                 U _ZN4bssl19ssl_signing_with_dcEPKNS_13SSL_HANDSHAKEE
0000000000000000 T _ZN4bssl19tls1_check_group_idEPKNS_13SSL_HANDSHAKEEt
                 U _ZN4bssl20ssl_get_current_timeEPK6ssl_stPNS_15OPENSSL_timevalE
                 U _ZN4bssl20ssl_get_grease_valueEPKNS_13SSL_HANDSHAKEENS_18ssl_grease_index_tE
                 U _ZN4bssl20ssl_name_to_group_idEPtPKcm
                 U _ZN4bssl20ssl_protocol_versionEPK6ssl_st
0000000000000000 T _ZN4bssl20ssl_setup_key_sharesEPNS_13SSL_HANDSHAKEEt
0000000000000000 T _ZN4bssl20tls1_channel_id_hashEPNS_13SSL_HANDSHAKEEPhPm
0000000000000000 T _ZN4bssl20tls1_set_curves_listEPNS_5ArrayItEEPKc
0000000000000000 T _ZN4bssl21ssl_client_hello_initEPK6ssl_stP22ssl_early_callback_ctxNS_4SpanIKhEE
0000000000000000 T _ZN4bssl21ssl_is_sct_list_validEPK6cbs_st
0000000000000000 T _ZN4bssl21tls1_get_shared_groupEPNS_13SSL_HANDSHAKEEPt
0000000000000000 T _ZN4bssl21tls1_write_channel_idEPNS_13SSL_HANDSHAKEEP6cbb_st
0000000000000000 T _ZN4bssl22ssl_is_valid_alpn_listENS_4SpanIKhEE
                 U _ZN4bssl22ssl_session_get_digestEPK14ssl_session_st
0000000000000000 T _ZN4bssl22tls1_verify_channel_idEPNS_13SSL_HANDSHAKEERKNS_10SSLMessageE
0000000000000000 T _ZN4bssl23tls12_check_peer_sigalgEPKNS_13SSL_HANDSHAKEEPht
0000000000000000 T _ZN4bssl23tls1_parse_peer_sigalgsEPNS_13SSL_HANDSHAKEEPK6cbs_st
0000000000000000 T _ZN4bssl24tls12_add_verify_sigalgsEPKNS_13SSL_HANDSHAKEEP6cbb_st
0000000000000000 T _ZN4bssl26ssl_add_clienthello_tlsextEPNS_13SSL_HANDSHAKEEP6cbb_stS3_PbNS_23ssl_client_hello_type_tEm
0000000000000000 T _ZN4bssl26ssl_add_serverhello_tlsextEPNS_13SSL_HANDSHAKEEP6cbb_st
                 U _ZN4bssl26ssl_add_supported_versionsEPKNS_13SSL_HANDSHAKEEP6cbb_stt
0000000000000000 T _ZN4bssl28ssl_is_alpn_protocol_allowedEPKNS_13SSL_HANDSHAKEENS_4SpanIKhEE
                 U _ZN4bssl28ssl_is_valid_ech_config_listENS_4SpanIKhEE
0000000000000000 T _ZN4bssl28ssl_parse_clienthello_tlsextEPNS_13SSL_HANDSHAKEEPK22ssl_early_callback_ctx
0000000000000000 T _ZN4bssl28ssl_parse_serverhello_tlsextEPNS_13SSL_HANDSHAKEEPK6cbs_st
                 U _ZN4bssl28ssl_session_protocol_versionEPK14ssl_session_st
0000000000000000 T _ZN4bssl30ssl_client_hello_get_extensionEPK22ssl_early_callback_ctxP6cbs_stt
0000000000000000 T _ZN4bssl31ssl_setup_extension_permutationEPNS_13SSL_HANDSHAKEE
0000000000000000 T _ZN4bssl31tls1_choose_signature_algorithmEPNS_13SSL_HANDSHAKEEPt
0000000000000000 T _ZN4bssl31tls1_get_peer_verify_algorithmsEPKNS_13SSL_HANDSHAKEE
                 U _ZN4bssl32ssl_cipher_uses_certificate_authEPK13ssl_cipher_st
0000000000000000 T _ZN4bssl33ssl_ext_key_share_add_serverhelloEPNS_13SSL_HANDSHAKEEP6cbb_st
0000000000000000 T _ZN4bssl34ssl_get_local_application_settingsEPKNS_13SSL_HANDSHAKEEPNS_4SpanIKhEES5_
0000000000000000 T _ZN4bssl35ssl_ext_key_share_parse_clienthelloEPNS_13SSL_HANDSHAKEEPbPNS_4SpanIKhEEPhPK22ssl_early_callback_ctx
0000000000000000 T _ZN4bssl35ssl_ext_key_share_parse_serverhelloEPNS_13SSL_HANDSHAKEEPNS_5ArrayIhEEPhP6cbs_st
0000000000000000 T _ZN4bssl35tls1_get_legacy_signature_algorithmEPtPK11evp_pkey_st
                 U _ZN4bssl36ssl_ctx_rotate_ticket_encryption_keyEP10ssl_ctx_st
                 U _ZN4bssl37tls13_get_cert_verify_signature_inputEPNS_13SSL_HANDSHAKEEPNS_5ArrayIhEENS_25ssl_cert_verify_context_tE
                 U _ZN4bssl38ssl_client_cipher_list_contains_cipherEPK22ssl_early_callback_ctxt
0000000000000000 T _ZN4bssl38ssl_ext_pre_shared_key_add_serverhelloEPNS_13SSL_HANDSHAKEEP6cbb_st
0000000000000000 T _ZN4bssl40ssl_ext_pre_shared_key_parse_clienthelloEPNS_13SSL_HANDSHAKEEP6cbs_stS3_PjPhPK22ssl_early_callback_ctxS3_
0000000000000000 T _ZN4bssl40ssl_ext_pre_shared_key_parse_serverhelloEPNS_13SSL_HANDSHAKEEPhP6cbs_st
0000000000000000 T _ZN4bssl41ssl_parse_client_hello_with_trailing_dataEPK6ssl_stP6cbs_stP22ssl_early_callback_ctx
0000000000000000 T _ZN4bssl43tls1_record_handshake_hashes_for_channel_idEPNS_13SSL_HANDSHAKEE
                 U _ZN4bssl44ssl_private_key_supports_signature_algorithmEPNS_13SSL_HANDSHAKEEt
0000000000000000 W _ZN4bssl4SpanIKhE4lastEm
0000000000000000 W _ZN4bssl4SpanIKhE5firstEm
0000000000000000 W _ZN4bssl4SpanIKhEC1EPS1_m
0000000000000000 W _ZN4bssl4SpanIKhEC1ILm16EEERAT__S1_
0000000000000000 W _ZN4bssl4SpanIKhEC1INS_5ArrayIhEEvS5_EERKT_
0000000000000000 W _ZN4bssl4SpanIKhEC2ILm16EEERAT__S1_
0000000000000000 W _ZN4bssl4SpanIKhEC2INS_5ArrayIhEEvS5_EERKT_
0000000000000000 n _ZN4bssl4SpanIKhEC5ILm16EEERAT__S1_
0000000000000000 n _ZN4bssl4SpanIKhEC5INS_5ArrayIhEEvS5_EERKT_
0000000000000000 W _ZN4bssl4SpanIKtEC1EPS1_m
0000000000000000 W _ZN4bssl4SpanIKtEC1ILm2EEERAT__S1_
0000000000000000 W _ZN4bssl4SpanIKtEC1ILm3EEERAT__S1_
0000000000000000 W _ZN4bssl4SpanIKtEC1ILm9EEERAT__S1_
0000000000000000 W _ZN4bssl4SpanIKtEC1INS_5ArrayItEEvS5_EERKT_
0000000000000000 W _ZN4bssl4SpanIKtEC2ILm2EEERAT__S1_
0000000000000000 W _ZN4bssl4SpanIKtEC2ILm3EEERAT__S1_
0000000000000000 W _ZN4bssl4SpanIKtEC2ILm9EEERAT__S1_
0000000000000000 W _ZN4bssl4SpanIKtEC2INS_5ArrayItEEvS5_EERKT_
0000000000000000 n _ZN4bssl4SpanIKtEC5ILm2EEERAT__S1_
0000000000000000 n _ZN4bssl4SpanIKtEC5ILm3EEERAT__S1_
0000000000000000 n _ZN4bssl4SpanIKtEC5ILm9EEERAT__S1_
0000000000000000 n _ZN4bssl4SpanIKtEC5INS_5ArrayItEEvS5_EERKT_
0000000000000000 W _ZN4bssl5ArrayIhE4dataEv
0000000000000000 W _ZN4bssl5ArrayIhE4InitEm
0000000000000000 W _ZN4bssl5ArrayIhE5ResetEPhm
0000000000000000 W _ZN4bssl5ArrayIhE5ResetEv
0000000000000000 W _ZN4bssl5ArrayIhE6ShrinkEm
0000000000000000 W _ZN4bssl5ArrayIhE7ReleaseEPPhPm
0000000000000000 W _ZN4bssl5ArrayIhE8CopyFromENS_4SpanIKhEE
0000000000000000 W _ZN4bssl5ArrayIhEaSEOS1_
0000000000000000 W _ZN4bssl5ArrayIhEC1Ev
0000000000000000 W _ZN4bssl5ArrayIhEC2Ev
0000000000000000 n _ZN4bssl5ArrayIhEC5Ev
0000000000000000 W _ZN4bssl5ArrayIhED1Ev
0000000000000000 W _ZN4bssl5ArrayIhED2Ev
0000000000000000 n _ZN4bssl5ArrayIhED5Ev
0000000000000000 W _ZN4bssl5ArrayIhEixEm
0000000000000000 W _ZN4bssl5ArrayINS_10ALPSConfigEE4dataEv
0000000000000000 W _ZN4bssl5ArrayINS_18CertCompressionAlgEE4dataEv
0000000000000000 W _ZN4bssl5ArrayISt10unique_ptrINS_15ECHServerConfigENS_8internal7DeleterEEE4dataEv
0000000000000000 W _ZN4bssl5ArrayItE4dataEv
0000000000000000 W _ZN4bssl5ArrayItE4InitEm
0000000000000000 W _ZN4bssl5ArrayItE5ResetEPtm
0000000000000000 W _ZN4bssl5ArrayItE5ResetEv
0000000000000000 W _ZN4bssl5ArrayItE7ReleaseEPPtPm
0000000000000000 W _ZN4bssl5ArrayItEaSEOS1_
0000000000000000 W _ZN4bssl5ArrayItEC1Ev
0000000000000000 W _ZN4bssl5ArrayItEC2Ev
0000000000000000 n _ZN4bssl5ArrayItEC5Ev
0000000000000000 W _ZN4bssl5ArrayItED1Ev
0000000000000000 W _ZN4bssl5ArrayItED2Ev
0000000000000000 n _ZN4bssl5ArrayItED5Ev
0000000000000000 W _ZN4bssl5ArrayItEixEm
0000000000000000 W _ZN4bssl6DeleteINS_11SSLKeyShareEEEvPT_
0000000000000000 W _ZN4bssl8internal11DeleterImplI11ec_group_stvE4FreeEPS2_
0000000000000000 W _ZN4bssl8internal11DeleterImplI11ec_point_stvE4FreeEPS2_
0000000000000000 W _ZN4bssl8internal11DeleterImplI12ecdsa_sig_stvE4FreeEPS2_
0000000000000000 W _ZN4bssl8internal11DeleterImplI14ssl_session_stvE4FreeEPS2_
0000000000000000 W _ZN4bssl8internal11DeleterImplI16crypto_buffer_stvE4FreeEPS2_
0000000000000000 W _ZN4bssl8internal11DeleterImplI9bignum_stvE4FreeEPS2_
0000000000000000 W _ZN4bssl8internal11DeleterImplI9ec_key_stvE4FreeEPS2_
0000000000000000 W _ZN4bssl8internal11DeleterImplINS_11SSLKeyShareEvE4FreeEPS2_
0000000000000000 W _ZN4bssl8internal13MutexLockBaseIXadL_Z22CRYPTO_MUTEX_lock_readEEXadL_Z24CRYPTO_MUTEX_unlock_readEEEC1EP15crypto_mutex_st
0000000000000000 W _ZN4bssl8internal13MutexLockBaseIXadL_Z22CRYPTO_MUTEX_lock_readEEXadL_Z24CRYPTO_MUTEX_unlock_readEEEC2EP15crypto_mutex_st
0000000000000000 n _ZN4bssl8internal13MutexLockBaseIXadL_Z22CRYPTO_MUTEX_lock_readEEXadL_Z24CRYPTO_MUTEX_unlock_readEEEC5EP15crypto_mutex_st
0000000000000000 W _ZN4bssl8internal13MutexLockBaseIXadL_Z22CRYPTO_MUTEX_lock_readEEXadL_Z24CRYPTO_MUTEX_unlock_readEEED1Ev
0000000000000000 W _ZN4bssl8internal13MutexLockBaseIXadL_Z22CRYPTO_MUTEX_lock_readEEXadL_Z24CRYPTO_MUTEX_unlock_readEEED2Ev
0000000000000000 n _ZN4bssl8internal13MutexLockBaseIXadL_Z22CRYPTO_MUTEX_lock_readEEXadL_Z24CRYPTO_MUTEX_unlock_readEEED5Ev
0000000000000000 W _ZN4bssl8internal14StackAllocatedI11hmac_ctx_stvXadL_Z13HMAC_CTX_initEEXadL_Z16HMAC_CTX_cleanupEEE3getEv
0000000000000000 W _ZN4bssl8internal14StackAllocatedI11hmac_ctx_stvXadL_Z13HMAC_CTX_initEEXadL_Z16HMAC_CTX_cleanupEEEC1Ev
0000000000000000 W _ZN4bssl8internal14StackAllocatedI11hmac_ctx_stvXadL_Z13HMAC_CTX_initEEXadL_Z16HMAC_CTX_cleanupEEEC2Ev
0000000000000000 n _ZN4bssl8internal14StackAllocatedI11hmac_ctx_stvXadL_Z13HMAC_CTX_initEEXadL_Z16HMAC_CTX_cleanupEEEC5Ev
0000000000000000 W _ZN4bssl8internal14StackAllocatedI11hmac_ctx_stvXadL_Z13HMAC_CTX_initEEXadL_Z16HMAC_CTX_cleanupEEED1Ev
0000000000000000 W _ZN4bssl8internal14StackAllocatedI11hmac_ctx_stvXadL_Z13HMAC_CTX_initEEXadL_Z16HMAC_CTX_cleanupEEED2Ev
0000000000000000 n _ZN4bssl8internal14StackAllocatedI11hmac_ctx_stvXadL_Z13HMAC_CTX_initEEXadL_Z16HMAC_CTX_cleanupEEED5Ev
0000000000000000 W _ZN4bssl8internal14StackAllocatedI17evp_cipher_ctx_stiXadL_Z19EVP_CIPHER_CTX_initEEXadL_Z22EVP_CIPHER_CTX_cleanupEEE3getEv
0000000000000000 W _ZN4bssl8internal14StackAllocatedI17evp_cipher_ctx_stiXadL_Z19EVP_CIPHER_CTX_initEEXadL_Z22EVP_CIPHER_CTX_cleanupEEEC1Ev
0000000000000000 W _ZN4bssl8internal14StackAllocatedI17evp_cipher_ctx_stiXadL_Z19EVP_CIPHER_CTX_initEEXadL_Z22EVP_CIPHER_CTX_cleanupEEEC2Ev
0000000000000000 n _ZN4bssl8internal14StackAllocatedI17evp_cipher_ctx_stiXadL_Z19EVP_CIPHER_CTX_initEEXadL_Z22EVP_CIPHER_CTX_cleanupEEEC5Ev
0000000000000000 W _ZN4bssl8internal14StackAllocatedI17evp_cipher_ctx_stiXadL_Z19EVP_CIPHER_CTX_initEEXadL_Z22EVP_CIPHER_CTX_cleanupEEED1Ev
0000000000000000 W _ZN4bssl8internal14StackAllocatedI17evp_cipher_ctx_stiXadL_Z19EVP_CIPHER_CTX_initEEXadL_Z22EVP_CIPHER_CTX_cleanupEEED2Ev
0000000000000000 n _ZN4bssl8internal14StackAllocatedI17evp_cipher_ctx_stiXadL_Z19EVP_CIPHER_CTX_initEEXadL_Z22EVP_CIPHER_CTX_cleanupEEED5Ev
0000000000000000 W _ZN4bssl8internal14StackAllocatedI6cbb_stvXadL_Z8CBB_zeroEEXadL_Z11CBB_cleanupEEE3getEv
0000000000000000 W _ZN4bssl8internal14StackAllocatedI6cbb_stvXadL_Z8CBB_zeroEEXadL_Z11CBB_cleanupEEEC1Ev
0000000000000000 W _ZN4bssl8internal14StackAllocatedI6cbb_stvXadL_Z8CBB_zeroEEXadL_Z11CBB_cleanupEEEC2Ev
0000000000000000 n _ZN4bssl8internal14StackAllocatedI6cbb_stvXadL_Z8CBB_zeroEEXadL_Z11CBB_cleanupEEEC5Ev
0000000000000000 W _ZN4bssl8internal14StackAllocatedI6cbb_stvXadL_Z8CBB_zeroEEXadL_Z11CBB_cleanupEEED1Ev
0000000000000000 W _ZN4bssl8internal14StackAllocatedI6cbb_stvXadL_Z8CBB_zeroEEXadL_Z11CBB_cleanupEEED2Ev
0000000000000000 n _ZN4bssl8internal14StackAllocatedI6cbb_stvXadL_Z8CBB_zeroEEXadL_Z11CBB_cleanupEEED5Ev
0000000000000000 W _ZN4bssl8internal17StackIteratorImplI32stack_st_SRTP_PROTECTION_PROFILEEC1EPKS2_m
0000000000000000 W _ZN4bssl8internal17StackIteratorImplI32stack_st_SRTP_PROTECTION_PROFILEEC2EPKS2_m
0000000000000000 n _ZN4bssl8internal17StackIteratorImplI32stack_st_SRTP_PROTECTION_PROFILEEC5EPKS2_m
0000000000000000 W _ZN4bssl8internal17StackIteratorImplI32stack_st_SRTP_PROTECTION_PROFILEEppEv
0000000000000000 W _ZN4bssl8internal7DeleterclI11ec_group_stEEvPT_
0000000000000000 W _ZN4bssl8internal7DeleterclI11ec_point_stEEvPT_
0000000000000000 W _ZN4bssl8internal7DeleterclI12ecdsa_sig_stEEvPT_
0000000000000000 W _ZN4bssl8internal7DeleterclI14ssl_session_stEEvPT_
0000000000000000 W _ZN4bssl8internal7DeleterclI16crypto_buffer_stEEvPT_
0000000000000000 W _ZN4bssl8internal7DeleterclI9bignum_stEEvPT_
0000000000000000 W _ZN4bssl8internal7DeleterclI9ec_key_stEEvPT_
0000000000000000 W _ZN4bssl8internal7DeleterclINS_11SSLKeyShareEEEvPT_
0000000000000000 W _ZN4bssl8internaleqENS_4SpanIKhEES3_
0000000000000000 d _ZN4bsslL11kExtensionsE
0000000000000000 r _ZN4bsslL11kMaxTicketsE
0000000000000000 r _ZN4bsslL14kDefaultGroupsE
0000000000000000 t _ZN4bsslL15parse_u16_arrayEPK6cbs_stPNS_5ArrayItEE
0000000000000000 t _ZN4bsslL16compare_uint16_tEPKvS1_
0000000000000000 t _ZN4bsslL16should_offer_pskEPKNS_13SSL_HANDSHAKEENS_23ssl_client_hello_type_tE
0000000000000000 t _ZN4bsslL18tls_extension_findEPjt
0000000000000000 t _ZN4bsslL20dont_add_serverhelloEPNS_13SSL_HANDSHAKEEP6cbb_st
0000000000000000 t _ZN4bsslL21add_padding_extensionEP6cbb_sttm
0000000000000000 t _ZN4bsslL21is_post_quantum_groupEt
0000000000000000 r _ZN4bsslL21kMaxEarlyDataAcceptedE
0000000000000000 t _ZN4bsslL22ext_ri_add_clienthelloEPKNS_13SSL_HANDSHAKEEP6cbb_stS4_NS_23ssl_client_hello_type_tE
0000000000000000 t _ZN4bsslL22ext_ri_add_serverhelloEPNS_13SSL_HANDSHAKEEP6cbb_st
0000000000000000 t _ZN4bsslL23ext_ech_add_clienthelloEPKNS_13SSL_HANDSHAKEEP6cbb_stS4_NS_23ssl_client_hello_type_tE
0000000000000000 t _ZN4bsslL23ext_ech_add_serverhelloEPNS_13SSL_HANDSHAKEEP6cbb_st
0000000000000000 t _ZN4bsslL23ext_ems_add_clienthelloEPKNS_13SSL_HANDSHAKEEP6cbb_stS4_NS_23ssl_client_hello_type_tE
0000000000000000 t _ZN4bsslL23ext_ems_add_serverhelloEPNS_13SSL_HANDSHAKEEP6cbb_st
0000000000000000 t _ZN4bsslL23ext_npn_add_clienthelloEPKNS_13SSL_HANDSHAKEEP6cbb_stS4_NS_23ssl_client_hello_type_tE
0000000000000000 t _ZN4bsslL23ext_npn_add_serverhelloEPNS_13SSL_HANDSHAKEEP6cbb_st
0000000000000000 t _ZN4bsslL23ext_sct_add_clienthelloEPKNS_13SSL_HANDSHAKEEP6cbb_stS4_NS_23ssl_client_hello_type_tE
0000000000000000 t _ZN4bsslL23ext_sct_add_serverhelloEPNS_13SSL_HANDSHAKEEP6cbb_st
0000000000000000 t _ZN4bsslL23ext_sni_add_clienthelloEPKNS_13SSL_HANDSHAKEEP6cbb_stS4_NS_23ssl_client_hello_type_tE
0000000000000000 t _ZN4bsslL23ext_sni_add_serverhelloEPNS_13SSL_HANDSHAKEEP6cbb_st
0000000000000000 t _ZN4bsslL24ext_alpn_add_clienthelloEPKNS_13SSL_HANDSHAKEEP6cbb_stS4_NS_23ssl_client_hello_type_tE
0000000000000000 t _ZN4bsslL24ext_alpn_add_serverhelloEPNS_13SSL_HANDSHAKEEP6cbb_st
0000000000000000 t _ZN4bsslL24ext_alps_add_clienthelloEPKNS_13SSL_HANDSHAKEEP6cbb_stS4_NS_23ssl_client_hello_type_tE
0000000000000000 t _ZN4bsslL24ext_alps_add_serverhelloEPNS_13SSL_HANDSHAKEEP6cbb_st
0000000000000000 t _ZN4bsslL24ext_ocsp_add_clienthelloEPKNS_13SSL_HANDSHAKEEP6cbb_stS4_NS_23ssl_client_hello_type_tE
0000000000000000 t _ZN4bsslL24ext_ocsp_add_serverhelloEPNS_13SSL_HANDSHAKEEP6cbb_st
0000000000000000 t _ZN4bsslL24ext_ri_parse_clienthelloEPNS_13SSL_HANDSHAKEEPhP6cbs_st
0000000000000000 t _ZN4bsslL24ext_ri_parse_serverhelloEPNS_13SSL_HANDSHAKEEPhP6cbs_st
0000000000000000 t _ZN4bsslL24ext_srtp_add_clienthelloEPKNS_13SSL_HANDSHAKEEP6cbb_stS4_NS_23ssl_client_hello_type_tE
0000000000000000 t _ZN4bsslL24ext_srtp_add_serverhelloEPNS_13SSL_HANDSHAKEEP6cbb_st
0000000000000000 t _ZN4bsslL24forbid_parse_serverhelloEPNS_13SSL_HANDSHAKEEPhP6cbs_st
0000000000000000 t _ZN4bsslL24ignore_parse_clienthelloEPNS_13SSL_HANDSHAKEEPhP6cbs_st
0000000000000000 r _ZN4bsslL24kSignSignatureAlgorithmsE
0000000000000000 t _ZN4bsslL24tls12_get_verify_sigalgsEPKNS_13SSL_HANDSHAKEE
0000000000000000 t _ZN4bsslL25ext_ech_parse_clienthelloEPNS_13SSL_HANDSHAKEEPhP6cbs_st
0000000000000000 t _ZN4bsslL25ext_ech_parse_serverhelloEPNS_13SSL_HANDSHAKEEPhP6cbs_st
0000000000000000 t _ZN4bsslL25ext_ems_parse_clienthelloEPNS_13SSL_HANDSHAKEEPhP6cbs_st
0000000000000000 t _ZN4bsslL25ext_ems_parse_serverhelloEPNS_13SSL_HANDSHAKEEPhP6cbs_st
0000000000000000 t _ZN4bsslL25ext_npn_parse_clienthelloEPNS_13SSL_HANDSHAKEEPhP6cbs_st
0000000000000000 t _ZN4bsslL25ext_npn_parse_serverhelloEPNS_13SSL_HANDSHAKEEPhP6cbs_st
0000000000000000 t _ZN4bsslL25ext_sct_parse_clienthelloEPNS_13SSL_HANDSHAKEEPhP6cbs_st
0000000000000000 t _ZN4bsslL25ext_sct_parse_serverhelloEPNS_13SSL_HANDSHAKEEPhP6cbs_st
0000000000000000 t _ZN4bsslL25ext_sni_parse_clienthelloEPNS_13SSL_HANDSHAKEEPhP6cbs_st
0000000000000000 t _ZN4bsslL25ext_sni_parse_serverhelloEPNS_13SSL_HANDSHAKEEPhP6cbs_st
0000000000000000 t _ZN4bsslL26ext_alpn_parse_serverhelloEPNS_13SSL_HANDSHAKEEPhP6cbs_st
0000000000000000 t _ZN4bsslL26ext_alps_parse_serverhelloEPNS_13SSL_HANDSHAKEEPhP6cbs_st
0000000000000000 t _ZN4bsslL26ext_cookie_add_clienthelloEPKNS_13SSL_HANDSHAKEEP6cbb_stS4_NS_23ssl_client_hello_type_tE
0000000000000000 t _ZN4bsslL26ext_ec_point_add_extensionEPKNS_13SSL_HANDSHAKEEP6cbb_st
0000000000000000 t _ZN4bsslL26ext_ocsp_parse_clienthelloEPNS_13SSL_HANDSHAKEEPhP6cbs_st
0000000000000000 t _ZN4bsslL26ext_ocsp_parse_serverhelloEPNS_13SSL_HANDSHAKEEPhP6cbs_st
0000000000000000 t _ZN4bsslL26ext_srtp_parse_clienthelloEPNS_13SSL_HANDSHAKEEPhP6cbs_st
0000000000000000 t _ZN4bsslL26ext_srtp_parse_serverhelloEPNS_13SSL_HANDSHAKEEPhP6cbs_st
0000000000000000 t _ZN4bsslL26ext_ticket_add_clienthelloEPKNS_13SSL_HANDSHAKEEP6cbb_stS4_NS_23ssl_client_hello_type_tE
0000000000000000 t _ZN4bsslL26ext_ticket_add_serverhelloEPNS_13SSL_HANDSHAKEEP6cbb_st
0000000000000000 r _ZN4bsslL26kVerifySignatureAlgorithmsE
0000000000000000 t _ZN4bsslL26ssl_decrypt_ticket_with_cbEPNS_13SSL_HANDSHAKEEPNS_5ArrayIhEEPbNS_4SpanIKhEE
0000000000000000 t _ZN4bsslL27ext_sigalgs_add_clienthelloEPKNS_13SSL_HANDSHAKEEP6cbb_stS4_NS_23ssl_client_hello_type_tE
0000000000000000 t _ZN4bsslL27ssl_scan_clienthello_tlsextEPNS_13SSL_HANDSHAKEEPK22ssl_early_callback_ctxPi
0000000000000000 t _ZN4bsslL27ssl_scan_serverhello_tlsextEPNS_13SSL_HANDSHAKEEPK6cbs_stPi
0000000000000000 t _ZN4bsslL28ext_ec_point_add_clienthelloEPKNS_13SSL_HANDSHAKEEP6cbb_stS4_NS_23ssl_client_hello_type_tE
0000000000000000 t _ZN4bsslL28ext_ec_point_add_serverhelloEPNS_13SSL_HANDSHAKEEP6cbb_st
0000000000000000 t _ZN4bsslL28ext_ticket_parse_serverhelloEPNS_13SSL_HANDSHAKEEPhP6cbs_st
0000000000000000 t _ZN4bsslL28ssl_check_clienthello_tlsextEPNS_13SSL_HANDSHAKEE
0000000000000000 t _ZN4bsslL28ssl_check_serverhello_tlsextEPNS_13SSL_HANDSHAKEE
0000000000000000 t _ZN4bsslL29ext_key_share_add_clienthelloEPKNS_13SSL_HANDSHAKEEP6cbb_stS4_NS_23ssl_client_hello_type_tE
0000000000000000 t _ZN4bsslL29ext_sigalgs_parse_clienthelloEPNS_13SSL_HANDSHAKEEPhP6cbs_st
0000000000000000 t _ZN4bsslL30decrypt_ticket_with_cipher_ctxEPNS_5ArrayIhEEP17evp_cipher_ctx_stP11hmac_ctx_stNS_4SpanIKhEE
0000000000000000 t _ZN4bsslL30ext_channel_id_add_clienthelloEPKNS_13SSL_HANDSHAKEEP6cbb_stS4_NS_23ssl_client_hello_type_tE
0000000000000000 t _ZN4bsslL30ext_channel_id_add_serverhelloEPNS_13SSL_HANDSHAKEEP6cbb_st
0000000000000000 t _ZN4bsslL30ext_early_data_add_clienthelloEPKNS_13SSL_HANDSHAKEEP6cbb_stS4_NS_23ssl_client_hello_type_tE
0000000000000000 t _ZN4bsslL30ext_early_data_add_serverhelloEPNS_13SSL_HANDSHAKEEP6cbb_st
0000000000000000 t _ZN4bsslL30ext_ec_point_parse_clienthelloEPNS_13SSL_HANDSHAKEEPhP6cbs_st
0000000000000000 t _ZN4bsslL30ext_ec_point_parse_serverhelloEPNS_13SSL_HANDSHAKEEPhP6cbs_st
0000000000000000 t _ZN4bsslL30ssl_decrypt_ticket_with_methodEPNS_13SSL_HANDSHAKEEPNS_5ArrayIhEEPbNS_4SpanIKhEE
0000000000000000 t _ZN4bsslL31tls1_check_duplicate_extensionsEPK6cbs_st
0000000000000000 t _ZN4bsslL32cert_compression_add_clienthelloEPKNS_13SSL_HANDSHAKEEP6cbb_stS4_NS_23ssl_client_hello_type_tE
0000000000000000 t _ZN4bsslL32cert_compression_add_serverhelloEPNS_13SSL_HANDSHAKEEP6cbb_st
0000000000000000 t _ZN4bsslL32ext_channel_id_parse_clienthelloEPNS_13SSL_HANDSHAKEEPhP6cbs_st
0000000000000000 t _ZN4bsslL32ext_channel_id_parse_serverhelloEPNS_13SSL_HANDSHAKEEPhP6cbs_st
0000000000000000 t _ZN4bsslL32ext_early_data_parse_clienthelloEPNS_13SSL_HANDSHAKEEPhP6cbs_st
0000000000000000 t _ZN4bsslL32ext_early_data_parse_serverhelloEPNS_13SSL_HANDSHAKEEPhP6cbs_st
0000000000000000 t _ZN4bsslL32ssl_add_clienthello_tlsext_innerEPNS_13SSL_HANDSHAKEEP6cbb_stS3_Pb
0000000000000000 t _ZN4bsslL34cert_compression_parse_clienthelloEPNS_13SSL_HANDSHAKEEPhP6cbs_st
0000000000000000 t _ZN4bsslL34cert_compression_parse_serverhelloEPNS_13SSL_HANDSHAKEEPhP6cbs_st
0000000000000000 t _ZN4bsslL34ext_pre_shared_key_add_clienthelloEPKNS_13SSL_HANDSHAKEEP6cbb_stPbNS_23ssl_client_hello_type_tE
0000000000000000 t _ZN4bsslL35ssl_decrypt_ticket_with_ticket_keysEPNS_13SSL_HANDSHAKEEPNS_5ArrayIhEENS_4SpanIKhEE
0000000000000000 t _ZN4bsslL36ext_supported_groups_add_clienthelloEPKNS_13SSL_HANDSHAKEEP6cbb_stS4_NS_23ssl_client_hello_type_tE
0000000000000000 t _ZN4bsslL37ext_pre_shared_key_clienthello_lengthEPKNS_13SSL_HANDSHAKEENS_23ssl_client_hello_type_tE
0000000000000000 t _ZN4bsslL38ext_supported_groups_parse_clienthelloEPNS_13SSL_HANDSHAKEEPhP6cbs_st
0000000000000000 t _ZN4bsslL38ext_supported_groups_parse_serverhelloEPNS_13SSL_HANDSHAKEEPhP6cbs_st
0000000000000000 t _ZN4bsslL38ext_supported_versions_add_clienthelloEPKNS_13SSL_HANDSHAKEEP6cbb_stS4_NS_23ssl_client_hello_type_tE
0000000000000000 t _ZN4bsslL40ext_delegated_credential_add_clienthelloEPKNS_13SSL_HANDSHAKEEP6cbb_stS4_NS_23ssl_client_hello_type_tE
0000000000000000 t _ZN4bsslL41ext_quic_transport_params_add_clienthelloEPKNS_13SSL_HANDSHAKEEP6cbb_stS4_NS_23ssl_client_hello_type_tE
0000000000000000 t _ZN4bsslL41ext_quic_transport_params_add_serverhelloEPNS_13SSL_HANDSHAKEEP6cbb_st
0000000000000000 t _ZN4bsslL42ext_delegated_credential_parse_clienthelloEPNS_13SSL_HANDSHAKEEPhP6cbs_st
0000000000000000 t _ZN4bsslL42ext_psk_key_exchange_modes_add_clienthelloEPKNS_13SSL_HANDSHAKEEP6cbb_stS4_NS_23ssl_client_hello_type_tE
0000000000000000 t _ZN4bsslL43ext_quic_transport_params_parse_clienthelloEPNS_13SSL_HANDSHAKEEPhP6cbs_st
0000000000000000 t _ZN4bsslL43ext_quic_transport_params_parse_serverhelloEPNS_13SSL_HANDSHAKEEPhP6cbs_st
0000000000000000 t _ZN4bsslL44ext_psk_key_exchange_modes_parse_clienthelloEPNS_13SSL_HANDSHAKEEPhP6cbs_st
0000000000000000 t _ZN4bsslL46ext_quic_transport_params_add_clienthello_implEPKNS_13SSL_HANDSHAKEEP6cbb_stb
0000000000000000 t _ZN4bsslL46ext_quic_transport_params_add_serverhello_implEPNS_13SSL_HANDSHAKEEP6cbb_stb
0000000000000000 t _ZN4bsslL48ext_quic_transport_params_add_clienthello_legacyEPKNS_13SSL_HANDSHAKEEP6cbb_stS4_NS_23ssl_client_hello_type_tE
0000000000000000 t _ZN4bsslL48ext_quic_transport_params_add_serverhello_legacyEPNS_13SSL_HANDSHAKEEP6cbb_st
0000000000000000 t _ZN4bsslL48ext_quic_transport_params_parse_clienthello_implEPNS_13SSL_HANDSHAKEEPhP6cbs_stb
0000000000000000 t _ZN4bsslL48ext_quic_transport_params_parse_serverhello_implEPNS_13SSL_HANDSHAKEEPhP6cbs_stb
0000000000000000 t _ZN4bsslL50ext_quic_transport_params_parse_clienthello_legacyEPNS_13SSL_HANDSHAKEEPhP6cbs_st
0000000000000000 t _ZN4bsslL50ext_quic_transport_params_parse_serverhello_legacyEPNS_13SSL_HANDSHAKEEPhP6cbs_st
0000000000000000 W _ZN6cbs_stC1EN4bssl4SpanIKhEE
0000000000000000 W _ZN6cbs_stC2EN4bssl4SpanIKhEE
0000000000000000 n _ZN6cbs_stC5EN4bssl4SpanIKhEE
0000000000000000 r _ZN9__gnu_cxxL21__default_lock_policyE
0000000000000000 W _ZNK4bssl13GrowableArrayINS_10ALPSConfigEE5emptyEv
0000000000000000 W _ZNK4bssl13GrowableArrayINS_18CertCompressionAlgEE4sizeEv
0000000000000000 W _ZNK4bssl13GrowableArrayINS_18CertCompressionAlgEEixEm
                 U _ZNK4bssl13SSLTranscript7GetHashEPhPm
0000000000000000 W _ZNK4bssl15ECHServerConfig10ech_configEv
0000000000000000 W _ZNK4bssl15ECHServerConfig15is_retry_configEv
0000000000000000 W _ZNK4bssl4SpanIKhE3endEv
0000000000000000 W _ZNK4bssl4SpanIKhE4dataEv
0000000000000000 W _ZNK4bssl4SpanIKhE4sizeEv
0000000000000000 W _ZNK4bssl4SpanIKhE5beginEv
0000000000000000 W _ZNK4bssl4SpanIKhE7subspanEmm
0000000000000000 W _ZNK4bssl4SpanIKiE4sizeEv
0000000000000000 W _ZNK4bssl4SpanIKiEixEm
0000000000000000 W _ZNK4bssl4SpanIKtE3endEv
0000000000000000 W _ZNK4bssl4SpanIKtE4sizeEv
0000000000000000 W _ZNK4bssl4SpanIKtE5beginEv
0000000000000000 W _ZNK4bssl4SpanIKtE5emptyEv
0000000000000000 W _ZNK4bssl4SpanIKtEixEm
0000000000000000 W _ZNK4bssl5ArrayIhE4dataEv
0000000000000000 W _ZNK4bssl5ArrayIhE4sizeEv
0000000000000000 W _ZNK4bssl5ArrayIhE5emptyEv
0000000000000000 W _ZNK4bssl5ArrayINS_18CertCompressionAlgEEixEm
0000000000000000 W _ZNK4bssl5ArrayItE4dataEv
0000000000000000 W _ZNK4bssl5ArrayItE4sizeEv
0000000000000000 W _ZNK4bssl5ArrayItE5emptyEv
0000000000000000 W _ZNK4bssl8internal17StackIteratorImplI32stack_st_SRTP_PROTECTION_PROFILEEdeEv
0000000000000000 W _ZNK4bssl8internal17StackIteratorImplI32stack_st_SRTP_PROTECTION_PROFILEEeqES3_
0000000000000000 W _ZNK4bssl8internal17StackIteratorImplI32stack_st_SRTP_PROTECTION_PROFILEEneES3_
0000000000000000 W _ZNK6cbs_stcvN4bssl4SpanIKhEEEv
0000000000000000 W _ZNKSt10unique_ptrI10ssl_ctx_stN4bssl8internal7DeleterEE3getEv
0000000000000000 W _ZNKSt10unique_ptrI10ssl_ctx_stN4bssl8internal7DeleterEEptEv
0000000000000000 W _ZNKSt10unique_ptrI11ec_group_stN4bssl8internal7DeleterEE3getEv
0000000000000000 W _ZNKSt10unique_ptrI11ec_group_stN4bssl8internal7DeleterEEcvbEv
0000000000000000 W _ZNKSt10unique_ptrI11ec_point_stN4bssl8internal7DeleterEE3getEv
0000000000000000 W _ZNKSt10unique_ptrI11ec_point_stN4bssl8internal7DeleterEEcvbEv
0000000000000000 W _ZNKSt10unique_ptrI11evp_pkey_stN4bssl8internal7DeleterEE3getEv
0000000000000000 W _ZNKSt10unique_ptrI11evp_pkey_stN4bssl8internal7DeleterEEcvbEv
0000000000000000 W _ZNKSt10unique_ptrI12ecdsa_sig_stN4bssl8internal7DeleterEE3getEv
0000000000000000 W _ZNKSt10unique_ptrI12ecdsa_sig_stN4bssl8internal7DeleterEEcvbEv
0000000000000000 W _ZNKSt10unique_ptrI12ecdsa_sig_stN4bssl8internal7DeleterEEptEv
0000000000000000 W _ZNKSt10unique_ptrI14ssl_session_stN4bssl8internal7DeleterEE3getEv
0000000000000000 W _ZNKSt10unique_ptrI14ssl_session_stN4bssl8internal7DeleterEEcvbEv
0000000000000000 W _ZNKSt10unique_ptrI14ssl_session_stN4bssl8internal7DeleterEEptEv
0000000000000000 W _ZNKSt10unique_ptrI15ssl_ech_keys_stN4bssl8internal7DeleterEE3getEv
0000000000000000 W _ZNKSt10unique_ptrI15ssl_ech_keys_stN4bssl8internal7DeleterEEcvbEv
0000000000000000 W _ZNKSt10unique_ptrI15ssl_ech_keys_stN4bssl8internal7DeleterEEptEv
0000000000000000 W _ZNKSt10unique_ptrI16crypto_buffer_stN4bssl8internal7DeleterEE3getEv
0000000000000000 W _ZNKSt10unique_ptrI16crypto_buffer_stN4bssl8internal7DeleterEEcvbEv
0000000000000000 W _ZNKSt10unique_ptrI9bignum_stN4bssl8internal7DeleterEE3getEv
0000000000000000 W _ZNKSt10unique_ptrI9bignum_stN4bssl8internal7DeleterEEcvbEv
0000000000000000 W _ZNKSt10unique_ptrI9ec_key_stN4bssl8internal7DeleterEE3getEv
0000000000000000 W _ZNKSt10unique_ptrI9ec_key_stN4bssl8internal7DeleterEEcvbEv
0000000000000000 W _ZNKSt10unique_ptrIcN4bssl8internal7DeleterEE3getEv
0000000000000000 W _ZNKSt10unique_ptrIcN4bssl8internal7DeleterEEcvbEv
0000000000000000 W _ZNKSt10unique_ptrIN4bssl11SSLKeyShareENS0_8internal7DeleterEE3getEv
0000000000000000 W _ZNKSt10unique_ptrIN4bssl11SSLKeyShareENS0_8internal7DeleterEEcvbEv
0000000000000000 W _ZNKSt10unique_ptrIN4bssl11SSLKeyShareENS0_8internal7DeleterEEptEv
0000000000000000 W _ZNKSt10unique_ptrIN4bssl15ECHServerConfigENS0_8internal7DeleterEE3getEv
0000000000000000 W _ZNKSt10unique_ptrIN4bssl15ECHServerConfigENS0_8internal7DeleterEEptEv
0000000000000000 W _ZNKSt10unique_ptrIN4bssl19SSL_HANDSHAKE_HINTSENS0_8internal7DeleterEE3getEv
0000000000000000 W _ZNKSt10unique_ptrIN4bssl2DCENS0_8internal7DeleterEE3getEv
0000000000000000 W _ZNKSt10unique_ptrIN4bssl4CERTENS0_8internal7DeleterEE3getEv
0000000000000000 W _ZNKSt10unique_ptrIN4bssl4CERTENS0_8internal7DeleterEEptEv
0000000000000000 W _ZNKSt10unique_ptrIN4bssl9ECHConfigENS0_8internal7DeleterEE3getEv
0000000000000000 W _ZNKSt10unique_ptrIN4bssl9ECHConfigENS0_8internal7DeleterEEptEv
0000000000000000 W _ZNKSt10unique_ptrIN4bssl9TicketKeyENS0_8internal7DeleterEE3getEv
0000000000000000 W _ZNKSt10unique_ptrIN4bssl9TicketKeyENS0_8internal7DeleterEEcvbEv
0000000000000000 W _ZNKSt10unique_ptrIN4bssl9TicketKeyENS0_8internal7DeleterEEptEv
0000000000000000 W _ZNKSt15__uniq_ptr_implI10ssl_ctx_stN4bssl8internal7DeleterEE6_M_ptrEv
0000000000000000 W _ZNKSt15__uniq_ptr_implI11ec_group_stN4bssl8internal7DeleterEE6_M_ptrEv
0000000000000000 W _ZNKSt15__uniq_ptr_implI11ec_point_stN4bssl8internal7DeleterEE6_M_ptrEv
0000000000000000 W _ZNKSt15__uniq_ptr_implI11evp_pkey_stN4bssl8internal7DeleterEE6_M_ptrEv
0000000000000000 W _ZNKSt15__uniq_ptr_implI12ecdsa_sig_stN4bssl8internal7DeleterEE6_M_ptrEv
0000000000000000 W _ZNKSt15__uniq_ptr_implI14ssl_session_stN4bssl8internal7DeleterEE6_M_ptrEv
0000000000000000 W _ZNKSt15__uniq_ptr_implI15ssl_ech_keys_stN4bssl8internal7DeleterEE6_M_ptrEv
0000000000000000 W _ZNKSt15__uniq_ptr_implI16crypto_buffer_stN4bssl8internal7DeleterEE6_M_ptrEv
0000000000000000 W _ZNKSt15__uniq_ptr_implI9bignum_stN4bssl8internal7DeleterEE6_M_ptrEv
0000000000000000 W _ZNKSt15__uniq_ptr_implI9ec_key_stN4bssl8internal7DeleterEE6_M_ptrEv
0000000000000000 W _ZNKSt15__uniq_ptr_implIcN4bssl8internal7DeleterEE6_M_ptrEv
0000000000000000 W _ZNKSt15__uniq_ptr_implIN4bssl11SSLKeyShareENS0_8internal7DeleterEE6_M_ptrEv
0000000000000000 W _ZNKSt15__uniq_ptr_implIN4bssl15ECHServerConfigENS0_8internal7DeleterEE6_M_ptrEv
0000000000000000 W _ZNKSt15__uniq_ptr_implIN4bssl19SSL_HANDSHAKE_HINTSENS0_8internal7DeleterEE6_M_ptrEv
0000000000000000 W _ZNKSt15__uniq_ptr_implIN4bssl2DCENS0_8internal7DeleterEE6_M_ptrEv
0000000000000000 W _ZNKSt15__uniq_ptr_implIN4bssl4CERTENS0_8internal7DeleterEE6_M_ptrEv
0000000000000000 W _ZNKSt15__uniq_ptr_implIN4bssl9ECHConfigENS0_8internal7DeleterEE6_M_ptrEv
0000000000000000 W _ZNKSt15__uniq_ptr_implIN4bssl9TicketKeyENS0_8internal7DeleterEE6_M_ptrEv
0000000000000000 W _ZNSt10_Head_baseILm0EP10ssl_ctx_stLb0EE7_M_headERKS2_
0000000000000000 W _ZNSt10_Head_baseILm0EP11ec_group_stLb0EE7_M_headERKS2_
0000000000000000 W _ZNSt10_Head_baseILm0EP11ec_group_stLb0EE7_M_headERS2_
0000000000000000 W _ZNSt10_Head_baseILm0EP11ec_group_stLb0EEC1Ev
0000000000000000 W _ZNSt10_Head_baseILm0EP11ec_group_stLb0EEC2Ev
0000000000000000 n _ZNSt10_Head_baseILm0EP11ec_group_stLb0EEC5Ev
0000000000000000 W _ZNSt10_Head_baseILm0EP11ec_point_stLb0EE7_M_headERKS2_
0000000000000000 W _ZNSt10_Head_baseILm0EP11ec_point_stLb0EE7_M_headERS2_
0000000000000000 W _ZNSt10_Head_baseILm0EP11ec_point_stLb0EEC1Ev
0000000000000000 W _ZNSt10_Head_baseILm0EP11ec_point_stLb0EEC2Ev
0000000000000000 n _ZNSt10_Head_baseILm0EP11ec_point_stLb0EEC5Ev
0000000000000000 W _ZNSt10_Head_baseILm0EP11evp_pkey_stLb0EE7_M_headERKS2_
0000000000000000 W _ZNSt10_Head_baseILm0EP12ecdsa_sig_stLb0EE7_M_headERKS2_
0000000000000000 W _ZNSt10_Head_baseILm0EP12ecdsa_sig_stLb0EE7_M_headERS2_
0000000000000000 W _ZNSt10_Head_baseILm0EP12ecdsa_sig_stLb0EEC1Ev
0000000000000000 W _ZNSt10_Head_baseILm0EP12ecdsa_sig_stLb0EEC2Ev
0000000000000000 n _ZNSt10_Head_baseILm0EP12ecdsa_sig_stLb0EEC5Ev
0000000000000000 W _ZNSt10_Head_baseILm0EP14ssl_session_stLb0EE7_M_headERKS2_
0000000000000000 W _ZNSt10_Head_baseILm0EP14ssl_session_stLb0EE7_M_headERS2_
0000000000000000 W _ZNSt10_Head_baseILm0EP14ssl_session_stLb0EEC1Ev
0000000000000000 W _ZNSt10_Head_baseILm0EP14ssl_session_stLb0EEC2Ev
0000000000000000 n _ZNSt10_Head_baseILm0EP14ssl_session_stLb0EEC5Ev
0000000000000000 W _ZNSt10_Head_baseILm0EP15ssl_ech_keys_stLb0EE7_M_headERKS2_
0000000000000000 W _ZNSt10_Head_baseILm0EP16crypto_buffer_stLb0EE7_M_headERKS2_
0000000000000000 W _ZNSt10_Head_baseILm0EP16crypto_buffer_stLb0EE7_M_headERS2_
0000000000000000 W _ZNSt10_Head_baseILm0EP9bignum_stLb0EE7_M_headERKS2_
0000000000000000 W _ZNSt10_Head_baseILm0EP9bignum_stLb0EE7_M_headERS2_
0000000000000000 W _ZNSt10_Head_baseILm0EP9bignum_stLb0EEC1Ev
0000000000000000 W _ZNSt10_Head_baseILm0EP9bignum_stLb0EEC2Ev
0000000000000000 n _ZNSt10_Head_baseILm0EP9bignum_stLb0EEC5Ev
0000000000000000 W _ZNSt10_Head_baseILm0EP9ec_key_stLb0EE7_M_headERKS2_
0000000000000000 W _ZNSt10_Head_baseILm0EP9ec_key_stLb0EE7_M_headERS2_
0000000000000000 W _ZNSt10_Head_baseILm0EP9ec_key_stLb0EEC1Ev
0000000000000000 W _ZNSt10_Head_baseILm0EP9ec_key_stLb0EEC2Ev
0000000000000000 n _ZNSt10_Head_baseILm0EP9ec_key_stLb0EEC5Ev
0000000000000000 W _ZNSt10_Head_baseILm0EPcLb0EE7_M_headERKS1_
0000000000000000 W _ZNSt10_Head_baseILm0EPN4bssl11SSLKeyShareELb0EE7_M_headERKS3_
0000000000000000 W _ZNSt10_Head_baseILm0EPN4bssl11SSLKeyShareELb0EE7_M_headERS3_
0000000000000000 W _ZNSt10_Head_baseILm0EPN4bssl15ECHServerConfigELb0EE7_M_headERKS3_
0000000000000000 W _ZNSt10_Head_baseILm0EPN4bssl19SSL_HANDSHAKE_HINTSELb0EE7_M_headERKS3_
0000000000000000 W _ZNSt10_Head_baseILm0EPN4bssl2DCELb0EE7_M_headERKS3_
0000000000000000 W _ZNSt10_Head_baseILm0EPN4bssl4CERTELb0EE7_M_headERKS3_
0000000000000000 W _ZNSt10_Head_baseILm0EPN4bssl9ECHConfigELb0EE7_M_headERKS3_
0000000000000000 W _ZNSt10_Head_baseILm0EPN4bssl9TicketKeyELb0EE7_M_headERKS3_
0000000000000000 W _ZNSt10_Head_baseILm1EN4bssl8internal7DeleterELb1EE7_M_headERS3_
0000000000000000 W _ZNSt10_Head_baseILm1EN4bssl8internal7DeleterELb1EEC1Ev
0000000000000000 W _ZNSt10_Head_baseILm1EN4bssl8internal7DeleterELb1EEC2Ev
0000000000000000 n _ZNSt10_Head_baseILm1EN4bssl8internal7DeleterELb1EEC5Ev
0000000000000000 W _ZNSt10unique_ptrI11ec_group_stN4bssl8internal7DeleterEE11get_deleterEv
0000000000000000 W _ZNSt10unique_ptrI11ec_group_stN4bssl8internal7DeleterEEC1IS3_vEEPS0_
0000000000000000 W _ZNSt10unique_ptrI11ec_group_stN4bssl8internal7DeleterEEC2IS3_vEEPS0_
0000000000000000 n _ZNSt10unique_ptrI11ec_group_stN4bssl8internal7DeleterEEC5IS3_vEEPS0_
0000000000000000 W _ZNSt10unique_ptrI11ec_group_stN4bssl8internal7DeleterEED1Ev
0000000000000000 W _ZNSt10unique_ptrI11ec_group_stN4bssl8internal7DeleterEED2Ev
0000000000000000 n _ZNSt10unique_ptrI11ec_group_stN4bssl8internal7DeleterEED5Ev
0000000000000000 W _ZNSt10unique_ptrI11ec_point_stN4bssl8internal7DeleterEE11get_deleterEv
0000000000000000 W _ZNSt10unique_ptrI11ec_point_stN4bssl8internal7DeleterEEC1IS3_vEEPS0_
0000000000000000 W _ZNSt10unique_ptrI11ec_point_stN4bssl8internal7DeleterEEC2IS3_vEEPS0_
0000000000000000 n _ZNSt10unique_ptrI11ec_point_stN4bssl8internal7DeleterEEC5IS3_vEEPS0_
0000000000000000 W _ZNSt10unique_ptrI11ec_point_stN4bssl8internal7DeleterEED1Ev
0000000000000000 W _ZNSt10unique_ptrI11ec_point_stN4bssl8internal7DeleterEED2Ev
0000000000000000 n _ZNSt10unique_ptrI11ec_point_stN4bssl8internal7DeleterEED5Ev
0000000000000000 W _ZNSt10unique_ptrI12ecdsa_sig_stN4bssl8internal7DeleterEE11get_deleterEv
0000000000000000 W _ZNSt10unique_ptrI12ecdsa_sig_stN4bssl8internal7DeleterEEC1IS3_vEEPS0_
0000000000000000 W _ZNSt10unique_ptrI12ecdsa_sig_stN4bssl8internal7DeleterEEC2IS3_vEEPS0_
0000000000000000 n _ZNSt10unique_ptrI12ecdsa_sig_stN4bssl8internal7DeleterEEC5IS3_vEEPS0_
0000000000000000 W _ZNSt10unique_ptrI12ecdsa_sig_stN4bssl8internal7DeleterEED1Ev
0000000000000000 W _ZNSt10unique_ptrI12ecdsa_sig_stN4bssl8internal7DeleterEED2Ev
0000000000000000 n _ZNSt10unique_ptrI12ecdsa_sig_stN4bssl8internal7DeleterEED5Ev
0000000000000000 W _ZNSt10unique_ptrI14ssl_session_stN4bssl8internal7DeleterEE11get_deleterEv
0000000000000000 W _ZNSt10unique_ptrI14ssl_session_stN4bssl8internal7DeleterEE5resetEPS0_
0000000000000000 W _ZNSt10unique_ptrI14ssl_session_stN4bssl8internal7DeleterEE7releaseEv
0000000000000000 W _ZNSt10unique_ptrI14ssl_session_stN4bssl8internal7DeleterEEaSEOS4_
0000000000000000 W _ZNSt10unique_ptrI14ssl_session_stN4bssl8internal7DeleterEEC1IS3_vEEPS0_
0000000000000000 W _ZNSt10unique_ptrI14ssl_session_stN4bssl8internal7DeleterEEC2IS3_vEEPS0_
0000000000000000 n _ZNSt10unique_ptrI14ssl_session_stN4bssl8internal7DeleterEEC5IS3_vEEPS0_
0000000000000000 W _ZNSt10unique_ptrI14ssl_session_stN4bssl8internal7DeleterEED1Ev
0000000000000000 W _ZNSt10unique_ptrI14ssl_session_stN4bssl8internal7DeleterEED2Ev
0000000000000000 n _ZNSt10unique_ptrI14ssl_session_stN4bssl8internal7DeleterEED5Ev
0000000000000000 W _ZNSt10unique_ptrI16crypto_buffer_stN4bssl8internal7DeleterEE11get_deleterEv
0000000000000000 W _ZNSt10unique_ptrI16crypto_buffer_stN4bssl8internal7DeleterEE5resetEPS0_
0000000000000000 W _ZNSt10unique_ptrI9bignum_stN4bssl8internal7DeleterEE11get_deleterEv
0000000000000000 W _ZNSt10unique_ptrI9bignum_stN4bssl8internal7DeleterEEC1IS3_vEEPS0_
0000000000000000 W _ZNSt10unique_ptrI9bignum_stN4bssl8internal7DeleterEEC2IS3_vEEPS0_
0000000000000000 n _ZNSt10unique_ptrI9bignum_stN4bssl8internal7DeleterEEC5IS3_vEEPS0_
0000000000000000 W _ZNSt10unique_ptrI9bignum_stN4bssl8internal7DeleterEED1Ev
0000000000000000 W _ZNSt10unique_ptrI9bignum_stN4bssl8internal7DeleterEED2Ev
0000000000000000 n _ZNSt10unique_ptrI9bignum_stN4bssl8internal7DeleterEED5Ev
0000000000000000 W _ZNSt10unique_ptrI9ec_key_stN4bssl8internal7DeleterEE11get_deleterEv
0000000000000000 W _ZNSt10unique_ptrI9ec_key_stN4bssl8internal7DeleterEEC1IS3_vEEPS0_
0000000000000000 W _ZNSt10unique_ptrI9ec_key_stN4bssl8internal7DeleterEEC2IS3_vEEPS0_
0000000000000000 n _ZNSt10unique_ptrI9ec_key_stN4bssl8internal7DeleterEEC5IS3_vEEPS0_
0000000000000000 W _ZNSt10unique_ptrI9ec_key_stN4bssl8internal7DeleterEED1Ev
0000000000000000 W _ZNSt10unique_ptrI9ec_key_stN4bssl8internal7DeleterEED2Ev
0000000000000000 n _ZNSt10unique_ptrI9ec_key_stN4bssl8internal7DeleterEED5Ev
0000000000000000 W _ZNSt10unique_ptrIN4bssl11SSLKeyShareENS0_8internal7DeleterEE11get_deleterEv
0000000000000000 W _ZNSt10unique_ptrIN4bssl11SSLKeyShareENS0_8internal7DeleterEE5resetEPS1_
0000000000000000 W _ZNSt10unique_ptrIN4bssl11SSLKeyShareENS0_8internal7DeleterEE7releaseEv
0000000000000000 W _ZNSt10unique_ptrIN4bssl11SSLKeyShareENS0_8internal7DeleterEEaSEOS4_
0000000000000000 W _ZNSt10unique_ptrIN4bssl11SSLKeyShareENS0_8internal7DeleterEED1Ev
0000000000000000 W _ZNSt10unique_ptrIN4bssl11SSLKeyShareENS0_8internal7DeleterEED2Ev
0000000000000000 n _ZNSt10unique_ptrIN4bssl11SSLKeyShareENS0_8internal7DeleterEED5Ev
0000000000000000 W _ZNSt11_Tuple_implILm0EJP10ssl_ctx_stN4bssl8internal7DeleterEEE7_M_headERKS5_
0000000000000000 W _ZNSt11_Tuple_implILm0EJP11ec_group_stN4bssl8internal7DeleterEEE7_M_headERKS5_
0000000000000000 W _ZNSt11_Tuple_implILm0EJP11ec_group_stN4bssl8internal7DeleterEEE7_M_headERS5_
0000000000000000 W _ZNSt11_Tuple_implILm0EJP11ec_group_stN4bssl8internal7DeleterEEEC1Ev
0000000000000000 W _ZNSt11_Tuple_implILm0EJP11ec_group_stN4bssl8internal7DeleterEEEC2Ev
0000000000000000 n _ZNSt11_Tuple_implILm0EJP11ec_group_stN4bssl8internal7DeleterEEEC5Ev
0000000000000000 W _ZNSt11_Tuple_implILm0EJP11ec_point_stN4bssl8internal7DeleterEEE7_M_headERKS5_
0000000000000000 W _ZNSt11_Tuple_implILm0EJP11ec_point_stN4bssl8internal7DeleterEEE7_M_headERS5_
0000000000000000 W _ZNSt11_Tuple_implILm0EJP11ec_point_stN4bssl8internal7DeleterEEEC1Ev
0000000000000000 W _ZNSt11_Tuple_implILm0EJP11ec_point_stN4bssl8internal7DeleterEEEC2Ev
0000000000000000 n _ZNSt11_Tuple_implILm0EJP11ec_point_stN4bssl8internal7DeleterEEEC5Ev
0000000000000000 W _ZNSt11_Tuple_implILm0EJP11evp_pkey_stN4bssl8internal7DeleterEEE7_M_headERKS5_
0000000000000000 W _ZNSt11_Tuple_implILm0EJP12ecdsa_sig_stN4bssl8internal7DeleterEEE7_M_headERKS5_
0000000000000000 W _ZNSt11_Tuple_implILm0EJP12ecdsa_sig_stN4bssl8internal7DeleterEEE7_M_headERS5_
0000000000000000 W _ZNSt11_Tuple_implILm0EJP12ecdsa_sig_stN4bssl8internal7DeleterEEEC1Ev
0000000000000000 W _ZNSt11_Tuple_implILm0EJP12ecdsa_sig_stN4bssl8internal7DeleterEEEC2Ev
0000000000000000 n _ZNSt11_Tuple_implILm0EJP12ecdsa_sig_stN4bssl8internal7DeleterEEEC5Ev
0000000000000000 W _ZNSt11_Tuple_implILm0EJP14ssl_session_stN4bssl8internal7DeleterEEE7_M_headERKS5_
0000000000000000 W _ZNSt11_Tuple_implILm0EJP14ssl_session_stN4bssl8internal7DeleterEEE7_M_headERS5_
0000000000000000 W _ZNSt11_Tuple_implILm0EJP14ssl_session_stN4bssl8internal7DeleterEEEC1Ev
0000000000000000 W _ZNSt11_Tuple_implILm0EJP14ssl_session_stN4bssl8internal7DeleterEEEC2Ev
0000000000000000 n _ZNSt11_Tuple_implILm0EJP14ssl_session_stN4bssl8internal7DeleterEEEC5Ev
0000000000000000 W _ZNSt11_Tuple_implILm0EJP15ssl_ech_keys_stN4bssl8internal7DeleterEEE7_M_headERKS5_
0000000000000000 W _ZNSt11_Tuple_implILm0EJP16crypto_buffer_stN4bssl8internal7DeleterEEE7_M_headERKS5_
0000000000000000 W _ZNSt11_Tuple_implILm0EJP16crypto_buffer_stN4bssl8internal7DeleterEEE7_M_headERS5_
0000000000000000 W _ZNSt11_Tuple_implILm0EJP9bignum_stN4bssl8internal7DeleterEEE7_M_headERKS5_
0000000000000000 W _ZNSt11_Tuple_implILm0EJP9bignum_stN4bssl8internal7DeleterEEE7_M_headERS5_
0000000000000000 W _ZNSt11_Tuple_implILm0EJP9bignum_stN4bssl8internal7DeleterEEEC1Ev
0000000000000000 W _ZNSt11_Tuple_implILm0EJP9bignum_stN4bssl8internal7DeleterEEEC2Ev
0000000000000000 n _ZNSt11_Tuple_implILm0EJP9bignum_stN4bssl8internal7DeleterEEEC5Ev
0000000000000000 W _ZNSt11_Tuple_implILm0EJP9ec_key_stN4bssl8internal7DeleterEEE7_M_headERKS5_
0000000000000000 W _ZNSt11_Tuple_implILm0EJP9ec_key_stN4bssl8internal7DeleterEEE7_M_headERS5_
0000000000000000 W _ZNSt11_Tuple_implILm0EJP9ec_key_stN4bssl8internal7DeleterEEEC1Ev
0000000000000000 W _ZNSt11_Tuple_implILm0EJP9ec_key_stN4bssl8internal7DeleterEEEC2Ev
0000000000000000 n _ZNSt11_Tuple_implILm0EJP9ec_key_stN4bssl8internal7DeleterEEEC5Ev
0000000000000000 W _ZNSt11_Tuple_implILm0EJPcN4bssl8internal7DeleterEEE7_M_headERKS4_
0000000000000000 W _ZNSt11_Tuple_implILm0EJPN4bssl11SSLKeyShareENS0_8internal7DeleterEEE7_M_headERKS5_
0000000000000000 W _ZNSt11_Tuple_implILm0EJPN4bssl11SSLKeyShareENS0_8internal7DeleterEEE7_M_headERS5_
0000000000000000 W _ZNSt11_Tuple_implILm0EJPN4bssl15ECHServerConfigENS0_8internal7DeleterEEE7_M_headERKS5_
0000000000000000 W _ZNSt11_Tuple_implILm0EJPN4bssl19SSL_HANDSHAKE_HINTSENS0_8internal7DeleterEEE7_M_headERKS5_
0000000000000000 W _ZNSt11_Tuple_implILm0EJPN4bssl2DCENS0_8internal7DeleterEEE7_M_headERKS5_
0000000000000000 W _ZNSt11_Tuple_implILm0EJPN4bssl4CERTENS0_8internal7DeleterEEE7_M_headERKS5_
0000000000000000 W _ZNSt11_Tuple_implILm0EJPN4bssl9ECHConfigENS0_8internal7DeleterEEE7_M_headERKS5_
0000000000000000 W _ZNSt11_Tuple_implILm0EJPN4bssl9TicketKeyENS0_8internal7DeleterEEE7_M_headERKS5_
0000000000000000 W _ZNSt11_Tuple_implILm1EJN4bssl8internal7DeleterEEE7_M_headERS3_
0000000000000000 W _ZNSt11_Tuple_implILm1EJN4bssl8internal7DeleterEEEC1Ev
0000000000000000 W _ZNSt11_Tuple_implILm1EJN4bssl8internal7DeleterEEEC2Ev
0000000000000000 n _ZNSt11_Tuple_implILm1EJN4bssl8internal7DeleterEEEC5Ev
0000000000000000 W _ZNSt14numeric_limitsImE3maxEv
0000000000000000 W _ZNSt15__uniq_ptr_implI11ec_group_stN4bssl8internal7DeleterEE10_M_deleterEv
0000000000000000 W _ZNSt15__uniq_ptr_implI11ec_group_stN4bssl8internal7DeleterEE6_M_ptrEv
0000000000000000 W _ZNSt15__uniq_ptr_implI11ec_group_stN4bssl8internal7DeleterEEC1EPS0_
0000000000000000 W _ZNSt15__uniq_ptr_implI11ec_group_stN4bssl8internal7DeleterEEC2EPS0_
0000000000000000 n _ZNSt15__uniq_ptr_implI11ec_group_stN4bssl8internal7DeleterEEC5EPS0_
0000000000000000 W _ZNSt15__uniq_ptr_implI11ec_point_stN4bssl8internal7DeleterEE10_M_deleterEv
0000000000000000 W _ZNSt15__uniq_ptr_implI11ec_point_stN4bssl8internal7DeleterEE6_M_ptrEv
0000000000000000 W _ZNSt15__uniq_ptr_implI11ec_point_stN4bssl8internal7DeleterEEC1EPS0_
0000000000000000 W _ZNSt15__uniq_ptr_implI11ec_point_stN4bssl8internal7DeleterEEC2EPS0_
0000000000000000 n _ZNSt15__uniq_ptr_implI11ec_point_stN4bssl8internal7DeleterEEC5EPS0_
0000000000000000 W _ZNSt15__uniq_ptr_implI12ecdsa_sig_stN4bssl8internal7DeleterEE10_M_deleterEv
0000000000000000 W _ZNSt15__uniq_ptr_implI12ecdsa_sig_stN4bssl8internal7DeleterEE6_M_ptrEv
0000000000000000 W _ZNSt15__uniq_ptr_implI12ecdsa_sig_stN4bssl8internal7DeleterEEC1EPS0_
0000000000000000 W _ZNSt15__uniq_ptr_implI12ecdsa_sig_stN4bssl8internal7DeleterEEC2EPS0_
0000000000000000 n _ZNSt15__uniq_ptr_implI12ecdsa_sig_stN4bssl8internal7DeleterEEC5EPS0_
0000000000000000 W _ZNSt15__uniq_ptr_implI14ssl_session_stN4bssl8internal7DeleterEE10_M_deleterEv
0000000000000000 W _ZNSt15__uniq_ptr_implI14ssl_session_stN4bssl8internal7DeleterEE6_M_ptrEv
0000000000000000 W _ZNSt15__uniq_ptr_implI14ssl_session_stN4bssl8internal7DeleterEEC1EPS0_
0000000000000000 W _ZNSt15__uniq_ptr_implI14ssl_session_stN4bssl8internal7DeleterEEC2EPS0_
0000000000000000 n _ZNSt15__uniq_ptr_implI14ssl_session_stN4bssl8internal7DeleterEEC5EPS0_
0000000000000000 W _ZNSt15__uniq_ptr_implI16crypto_buffer_stN4bssl8internal7DeleterEE10_M_deleterEv
0000000000000000 W _ZNSt15__uniq_ptr_implI16crypto_buffer_stN4bssl8internal7DeleterEE6_M_ptrEv
0000000000000000 W _ZNSt15__uniq_ptr_implI9bignum_stN4bssl8internal7DeleterEE10_M_deleterEv
0000000000000000 W _ZNSt15__uniq_ptr_implI9bignum_stN4bssl8internal7DeleterEE6_M_ptrEv
0000000000000000 W _ZNSt15__uniq_ptr_implI9bignum_stN4bssl8internal7DeleterEEC1EPS0_
0000000000000000 W _ZNSt15__uniq_ptr_implI9bignum_stN4bssl8internal7DeleterEEC2EPS0_
0000000000000000 n _ZNSt15__uniq_ptr_implI9bignum_stN4bssl8internal7DeleterEEC5EPS0_
0000000000000000 W _ZNSt15__uniq_ptr_implI9ec_key_stN4bssl8internal7DeleterEE10_M_deleterEv
0000000000000000 W _ZNSt15__uniq_ptr_implI9ec_key_stN4bssl8internal7DeleterEE6_M_ptrEv
0000000000000000 W _ZNSt15__uniq_ptr_implI9ec_key_stN4bssl8internal7DeleterEEC1EPS0_
0000000000000000 W _ZNSt15__uniq_ptr_implI9ec_key_stN4bssl8internal7DeleterEEC2EPS0_
0000000000000000 n _ZNSt15__uniq_ptr_implI9ec_key_stN4bssl8internal7DeleterEEC5EPS0_
0000000000000000 W _ZNSt15__uniq_ptr_implIN4bssl11SSLKeyShareENS0_8internal7DeleterEE10_M_deleterEv
0000000000000000 W _ZNSt15__uniq_ptr_implIN4bssl11SSLKeyShareENS0_8internal7DeleterEE6_M_ptrEv
0000000000000000 W _ZNSt5tupleIJP11ec_group_stN4bssl8internal7DeleterEEEC1IS1_S4_Lb1EEEv
0000000000000000 W _ZNSt5tupleIJP11ec_group_stN4bssl8internal7DeleterEEEC2IS1_S4_Lb1EEEv
0000000000000000 n _ZNSt5tupleIJP11ec_group_stN4bssl8internal7DeleterEEEC5IS1_S4_Lb1EEEv
0000000000000000 W _ZNSt5tupleIJP11ec_point_stN4bssl8internal7DeleterEEEC1IS1_S4_Lb1EEEv
0000000000000000 W _ZNSt5tupleIJP11ec_point_stN4bssl8internal7DeleterEEEC2IS1_S4_Lb1EEEv
0000000000000000 n _ZNSt5tupleIJP11ec_point_stN4bssl8internal7DeleterEEEC5IS1_S4_Lb1EEEv
0000000000000000 W _ZNSt5tupleIJP12ecdsa_sig_stN4bssl8internal7DeleterEEEC1IS1_S4_Lb1EEEv
0000000000000000 W _ZNSt5tupleIJP12ecdsa_sig_stN4bssl8internal7DeleterEEEC2IS1_S4_Lb1EEEv
0000000000000000 n _ZNSt5tupleIJP12ecdsa_sig_stN4bssl8internal7DeleterEEEC5IS1_S4_Lb1EEEv
0000000000000000 W _ZNSt5tupleIJP14ssl_session_stN4bssl8internal7DeleterEEEC1IS1_S4_Lb1EEEv
0000000000000000 W _ZNSt5tupleIJP14ssl_session_stN4bssl8internal7DeleterEEEC2IS1_S4_Lb1EEEv
0000000000000000 n _ZNSt5tupleIJP14ssl_session_stN4bssl8internal7DeleterEEEC5IS1_S4_Lb1EEEv
0000000000000000 W _ZNSt5tupleIJP9bignum_stN4bssl8internal7DeleterEEEC1IS1_S4_Lb1EEEv
0000000000000000 W _ZNSt5tupleIJP9bignum_stN4bssl8internal7DeleterEEEC2IS1_S4_Lb1EEEv
0000000000000000 n _ZNSt5tupleIJP9bignum_stN4bssl8internal7DeleterEEEC5IS1_S4_Lb1EEEv
0000000000000000 W _ZNSt5tupleIJP9ec_key_stN4bssl8internal7DeleterEEEC1IS1_S4_Lb1EEEv
0000000000000000 W _ZNSt5tupleIJP9ec_key_stN4bssl8internal7DeleterEEEC2IS1_S4_Lb1EEEv
0000000000000000 n _ZNSt5tupleIJP9ec_key_stN4bssl8internal7DeleterEEEC5IS1_S4_Lb1EEEv
0000000000000000 W _ZnwmPv
0000000000000000 W _ZSt12__get_helperILm0EP10ssl_ctx_stJN4bssl8internal7DeleterEEERKT0_RKSt11_Tuple_implIXT_EJS5_DpT1_EE
0000000000000000 W _ZSt12__get_helperILm0EP11ec_group_stJN4bssl8internal7DeleterEEERKT0_RKSt11_Tuple_implIXT_EJS5_DpT1_EE
0000000000000000 W _ZSt12__get_helperILm0EP11ec_group_stJN4bssl8internal7DeleterEEERT0_RSt11_Tuple_implIXT_EJS5_DpT1_EE
0000000000000000 W _ZSt12__get_helperILm0EP11ec_point_stJN4bssl8internal7DeleterEEERKT0_RKSt11_Tuple_implIXT_EJS5_DpT1_EE
0000000000000000 W _ZSt12__get_helperILm0EP11ec_point_stJN4bssl8internal7DeleterEEERT0_RSt11_Tuple_implIXT_EJS5_DpT1_EE
0000000000000000 W _ZSt12__get_helperILm0EP11evp_pkey_stJN4bssl8internal7DeleterEEERKT0_RKSt11_Tuple_implIXT_EJS5_DpT1_EE
0000000000000000 W _ZSt12__get_helperILm0EP12ecdsa_sig_stJN4bssl8internal7DeleterEEERKT0_RKSt11_Tuple_implIXT_EJS5_DpT1_EE
0000000000000000 W _ZSt12__get_helperILm0EP12ecdsa_sig_stJN4bssl8internal7DeleterEEERT0_RSt11_Tuple_implIXT_EJS5_DpT1_EE
0000000000000000 W _ZSt12__get_helperILm0EP14ssl_session_stJN4bssl8internal7DeleterEEERKT0_RKSt11_Tuple_implIXT_EJS5_DpT1_EE
0000000000000000 W _ZSt12__get_helperILm0EP14ssl_session_stJN4bssl8internal7DeleterEEERT0_RSt11_Tuple_implIXT_EJS5_DpT1_EE
0000000000000000 W _ZSt12__get_helperILm0EP15ssl_ech_keys_stJN4bssl8internal7DeleterEEERKT0_RKSt11_Tuple_implIXT_EJS5_DpT1_EE
0000000000000000 W _ZSt12__get_helperILm0EP16crypto_buffer_stJN4bssl8internal7DeleterEEERKT0_RKSt11_Tuple_implIXT_EJS5_DpT1_EE
0000000000000000 W _ZSt12__get_helperILm0EP16crypto_buffer_stJN4bssl8internal7DeleterEEERT0_RSt11_Tuple_implIXT_EJS5_DpT1_EE
0000000000000000 W _ZSt12__get_helperILm0EP9bignum_stJN4bssl8internal7DeleterEEERKT0_RKSt11_Tuple_implIXT_EJS5_DpT1_EE
0000000000000000 W _ZSt12__get_helperILm0EP9bignum_stJN4bssl8internal7DeleterEEERT0_RSt11_Tuple_implIXT_EJS5_DpT1_EE
0000000000000000 W _ZSt12__get_helperILm0EP9ec_key_stJN4bssl8internal7DeleterEEERKT0_RKSt11_Tuple_implIXT_EJS5_DpT1_EE
0000000000000000 W _ZSt12__get_helperILm0EP9ec_key_stJN4bssl8internal7DeleterEEERT0_RSt11_Tuple_implIXT_EJS5_DpT1_EE
0000000000000000 W _ZSt12__get_helperILm0EPcJN4bssl8internal7DeleterEEERKT0_RKSt11_Tuple_implIXT_EJS4_DpT1_EE
0000000000000000 W _ZSt12__get_helperILm0EPN4bssl11SSLKeyShareEJNS0_8internal7DeleterEEERKT0_RKSt11_Tuple_implIXT_EJS5_DpT1_EE
0000000000000000 W _ZSt12__get_helperILm0EPN4bssl11SSLKeyShareEJNS0_8internal7DeleterEEERT0_RSt11_Tuple_implIXT_EJS5_DpT1_EE
0000000000000000 W _ZSt12__get_helperILm0EPN4bssl15ECHServerConfigEJNS0_8internal7DeleterEEERKT0_RKSt11_Tuple_implIXT_EJS5_DpT1_EE
0000000000000000 W _ZSt12__get_helperILm0EPN4bssl19SSL_HANDSHAKE_HINTSEJNS0_8internal7DeleterEEERKT0_RKSt11_Tuple_implIXT_EJS5_DpT1_EE
0000000000000000 W _ZSt12__get_helperILm0EPN4bssl2DCEJNS0_8internal7DeleterEEERKT0_RKSt11_Tuple_implIXT_EJS5_DpT1_EE
0000000000000000 W _ZSt12__get_helperILm0EPN4bssl4CERTEJNS0_8internal7DeleterEEERKT0_RKSt11_Tuple_implIXT_EJS5_DpT1_EE
0000000000000000 W _ZSt12__get_helperILm0EPN4bssl9ECHConfigEJNS0_8internal7DeleterEEERKT0_RKSt11_Tuple_implIXT_EJS5_DpT1_EE
0000000000000000 W _ZSt12__get_helperILm0EPN4bssl9TicketKeyEJNS0_8internal7DeleterEEERKT0_RKSt11_Tuple_implIXT_EJS5_DpT1_EE
0000000000000000 W _ZSt12__get_helperILm1EN4bssl8internal7DeleterEJEERT0_RSt11_Tuple_implIXT_EJS3_DpT1_EE
0000000000000000 W _ZSt3getILm0EJP10ssl_ctx_stN4bssl8internal7DeleterEEERKNSt13tuple_elementIXT_ESt5tupleIJDpT0_EEE4typeERKS9_
0000000000000000 W _ZSt3getILm0EJP11ec_group_stN4bssl8internal7DeleterEEERKNSt13tuple_elementIXT_ESt5tupleIJDpT0_EEE4typeERKS9_
0000000000000000 W _ZSt3getILm0EJP11ec_group_stN4bssl8internal7DeleterEEERNSt13tuple_elementIXT_ESt5tupleIJDpT0_EEE4typeERS9_
0000000000000000 W _ZSt3getILm0EJP11ec_point_stN4bssl8internal7DeleterEEERKNSt13tuple_elementIXT_ESt5tupleIJDpT0_EEE4typeERKS9_
0000000000000000 W _ZSt3getILm0EJP11ec_point_stN4bssl8internal7DeleterEEERNSt13tuple_elementIXT_ESt5tupleIJDpT0_EEE4typeERS9_
0000000000000000 W _ZSt3getILm0EJP11evp_pkey_stN4bssl8internal7DeleterEEERKNSt13tuple_elementIXT_ESt5tupleIJDpT0_EEE4typeERKS9_
0000000000000000 W _ZSt3getILm0EJP12ecdsa_sig_stN4bssl8internal7DeleterEEERKNSt13tuple_elementIXT_ESt5tupleIJDpT0_EEE4typeERKS9_
0000000000000000 W _ZSt3getILm0EJP12ecdsa_sig_stN4bssl8internal7DeleterEEERNSt13tuple_elementIXT_ESt5tupleIJDpT0_EEE4typeERS9_
0000000000000000 W _ZSt3getILm0EJP14ssl_session_stN4bssl8internal7DeleterEEERKNSt13tuple_elementIXT_ESt5tupleIJDpT0_EEE4typeERKS9_
0000000000000000 W _ZSt3getILm0EJP14ssl_session_stN4bssl8internal7DeleterEEERNSt13tuple_elementIXT_ESt5tupleIJDpT0_EEE4typeERS9_
0000000000000000 W _ZSt3getILm0EJP15ssl_ech_keys_stN4bssl8internal7DeleterEEERKNSt13tuple_elementIXT_ESt5tupleIJDpT0_EEE4typeERKS9_
0000000000000000 W _ZSt3getILm0EJP16crypto_buffer_stN4bssl8internal7DeleterEEERKNSt13tuple_elementIXT_ESt5tupleIJDpT0_EEE4typeERKS9_
0000000000000000 W _ZSt3getILm0EJP16crypto_buffer_stN4bssl8internal7DeleterEEERNSt13tuple_elementIXT_ESt5tupleIJDpT0_EEE4typeERS9_
0000000000000000 W _ZSt3getILm0EJP9bignum_stN4bssl8internal7DeleterEEERKNSt13tuple_elementIXT_ESt5tupleIJDpT0_EEE4typeERKS9_
0000000000000000 W _ZSt3getILm0EJP9bignum_stN4bssl8internal7DeleterEEERNSt13tuple_elementIXT_ESt5tupleIJDpT0_EEE4typeERS9_
0000000000000000 W _ZSt3getILm0EJP9ec_key_stN4bssl8internal7DeleterEEERKNSt13tuple_elementIXT_ESt5tupleIJDpT0_EEE4typeERKS9_
0000000000000000 W _ZSt3getILm0EJP9ec_key_stN4bssl8internal7DeleterEEERNSt13tuple_elementIXT_ESt5tupleIJDpT0_EEE4typeERS9_
0000000000000000 W _ZSt3getILm0EJPcN4bssl8internal7DeleterEEERKNSt13tuple_elementIXT_ESt5tupleIJDpT0_EEE4typeERKS8_
0000000000000000 W _ZSt3getILm0EJPN4bssl11SSLKeyShareENS0_8internal7DeleterEEERKNSt13tuple_elementIXT_ESt5tupleIJDpT0_EEE4typeERKS9_
0000000000000000 W _ZSt3getILm0EJPN4bssl11SSLKeyShareENS0_8internal7DeleterEEERNSt13tuple_elementIXT_ESt5tupleIJDpT0_EEE4typeERS9_
0000000000000000 W _ZSt3getILm0EJPN4bssl15ECHServerConfigENS0_8internal7DeleterEEERKNSt13tuple_elementIXT_ESt5tupleIJDpT0_EEE4typeERKS9_
0000000000000000 W _ZSt3getILm0EJPN4bssl19SSL_HANDSHAKE_HINTSENS0_8internal7DeleterEEERKNSt13tuple_elementIXT_ESt5tupleIJDpT0_EEE4typeERKS9_
0000000000000000 W _ZSt3getILm0EJPN4bssl2DCENS0_8internal7DeleterEEERKNSt13tuple_elementIXT_ESt5tupleIJDpT0_EEE4typeERKS9_
0000000000000000 W _ZSt3getILm0EJPN4bssl4CERTENS0_8internal7DeleterEEERKNSt13tuple_elementIXT_ESt5tupleIJDpT0_EEE4typeERKS9_
0000000000000000 W _ZSt3getILm0EJPN4bssl9ECHConfigENS0_8internal7DeleterEEERKNSt13tuple_elementIXT_ESt5tupleIJDpT0_EEE4typeERKS9_
0000000000000000 W _ZSt3getILm0EJPN4bssl9TicketKeyENS0_8internal7DeleterEEERKNSt13tuple_elementIXT_ESt5tupleIJDpT0_EEE4typeERKS9_
0000000000000000 W _ZSt3getILm1EJP11ec_group_stN4bssl8internal7DeleterEEERNSt13tuple_elementIXT_ESt5tupleIJDpT0_EEE4typeERS9_
0000000000000000 W _ZSt3getILm1EJP11ec_point_stN4bssl8internal7DeleterEEERNSt13tuple_elementIXT_ESt5tupleIJDpT0_EEE4typeERS9_
0000000000000000 W _ZSt3getILm1EJP12ecdsa_sig_stN4bssl8internal7DeleterEEERNSt13tuple_elementIXT_ESt5tupleIJDpT0_EEE4typeERS9_
0000000000000000 W _ZSt3getILm1EJP14ssl_session_stN4bssl8internal7DeleterEEERNSt13tuple_elementIXT_ESt5tupleIJDpT0_EEE4typeERS9_
0000000000000000 W _ZSt3getILm1EJP16crypto_buffer_stN4bssl8internal7DeleterEEERNSt13tuple_elementIXT_ESt5tupleIJDpT0_EEE4typeERS9_
0000000000000000 W _ZSt3getILm1EJP9bignum_stN4bssl8internal7DeleterEEERNSt13tuple_elementIXT_ESt5tupleIJDpT0_EEE4typeERS9_
0000000000000000 W _ZSt3getILm1EJP9ec_key_stN4bssl8internal7DeleterEEERNSt13tuple_elementIXT_ESt5tupleIJDpT0_EEE4typeERS9_
0000000000000000 W _ZSt3getILm1EJPN4bssl11SSLKeyShareENS0_8internal7DeleterEEERNSt13tuple_elementIXT_ESt5tupleIJDpT0_EEE4typeERS9_
0000000000000000 W _ZSt3minImERKT_S2_S2_
0000000000000000 W _ZSt4moveIRhEONSt16remove_referenceIT_E4typeEOS2_
0000000000000000 W _ZSt4moveIRN4bssl5ArrayIhEEEONSt16remove_referenceIT_E4typeEOS5_
0000000000000000 W _ZSt4moveIRN4bssl5ArrayItEEEONSt16remove_referenceIT_E4typeEOS5_
0000000000000000 W _ZSt4moveIRP14ssl_session_stEONSt16remove_referenceIT_E4typeEOS4_
0000000000000000 W _ZSt4moveIRP16crypto_buffer_stEONSt16remove_referenceIT_E4typeEOS4_
0000000000000000 W _ZSt4moveIRPN4bssl11SSLKeyShareEEONSt16remove_referenceIT_E4typeEOS5_
0000000000000000 W _ZSt4moveIRSt10unique_ptrI14ssl_session_stN4bssl8internal7DeleterEEEONSt16remove_referenceIT_E4typeEOS8_
0000000000000000 W _ZSt4swapIhENSt9enable_ifIXsrSt6__and_IJSt6__not_ISt15__is_tuple_likeIT_EESt21is_move_constructibleIS4_ESt18is_move_assignableIS4_EEE5valueEvE4typeERS4_SE_
0000000000000000 W _ZSt4swapIP14ssl_session_stENSt9enable_ifIXsrSt6__and_IJSt6__not_ISt15__is_tuple_likeIT_EESt21is_move_constructibleIS6_ESt18is_move_assignableIS6_EEE5valueEvE4typeERS6_SG_
0000000000000000 W _ZSt4swapIP16crypto_buffer_stENSt9enable_ifIXsrSt6__and_IJSt6__not_ISt15__is_tuple_likeIT_EESt21is_move_constructibleIS6_ESt18is_move_assignableIS6_EEE5valueEvE4typeERS6_SG_
0000000000000000 W _ZSt4swapIPN4bssl11SSLKeyShareEENSt9enable_ifIXsrSt6__and_IJSt6__not_ISt15__is_tuple_likeIT_EESt21is_move_constructibleIS7_ESt18is_move_assignableIS7_EEE5valueEvE4typeERS7_SH_
0000000000000000 W _ZSt7forwardIN4bssl8internal7DeleterEEOT_RNSt16remove_referenceIS3_E4typeE
0000000000000000 W _ZSteqI14ssl_session_stN4bssl8internal7DeleterEEbRKSt10unique_ptrIT_T0_EDn
0000000000000000 W _ZSteqI15ssl_ech_keys_stN4bssl8internal7DeleterEEbRKSt10unique_ptrIT_T0_EDn
0000000000000000 W _ZSteqI16crypto_buffer_stN4bssl8internal7DeleterEEbRKSt10unique_ptrIT_T0_EDn
0000000000000000 W _ZSteqIcN4bssl8internal7DeleterEEbRKSt10unique_ptrIT_T0_EDn
0000000000000000 r _ZStL13allocator_arg
0000000000000000 r _ZStL19piecewise_construct
0000000000000000 r _ZStL6ignore
0000000000000000 W _ZStneI14ssl_session_stN4bssl8internal7DeleterEEbRKSt10unique_ptrIT_T0_EDn
0000000000000000 r _ZZN4bssl20ssl_setup_key_sharesEPNS_13SSL_HANDSHAKEEtE19__PRETTY_FUNCTION__
0000000000000000 r _ZZN4bssl20tls1_channel_id_hashEPNS_13SSL_HANDSHAKEEPhPmE14kClientIDMagic
0000000000000000 r _ZZN4bssl20tls1_channel_id_hashEPNS_13SSL_HANDSHAKEEPhPmE16kResumptionMagic
0000000000000000 r _ZZN4bssl20tls1_set_curves_listEPNS_5ArrayItEEPKcE19__PRETTY_FUNCTION__
0000000000000000 r _ZZN4bssl21tls1_get_shared_groupEPNS_13SSL_HANDSHAKEEPtE19__PRETTY_FUNCTION__
0000000000000000 r _ZZN4bssl26ssl_add_clienthello_tlsextEPNS_13SSL_HANDSHAKEEP6cbb_stS3_PbNS_23ssl_client_hello_type_tEmE19__PRETTY_FUNCTION__
0000000000000000 r _ZZN4bssl31tls1_get_peer_verify_algorithmsEPKNS_13SSL_HANDSHAKEEE22kDefaultPeerAlgorithms
0000000000000000 r _ZZN4bssl8internal13MutexLockBaseIXadL_Z22CRYPTO_MUTEX_lock_readEEXadL_Z24CRYPTO_MUTEX_unlock_readEEEC4EP15crypto_mutex_stE19__PRETTY_FUNCTION__
0000000000000000 r _ZZN4bsslL15parse_u16_arrayEPK6cbs_stPNS_5ArrayItEEE19__PRETTY_FUNCTION__
0000000000000000 r _ZZN4bsslL22ext_ri_add_clienthelloEPKNS_13SSL_HANDSHAKEEP6cbb_stS4_NS_23ssl_client_hello_type_tEE19__PRETTY_FUNCTION__
0000000000000000 r _ZZN4bsslL22ext_ri_add_serverhelloEPNS_13SSL_HANDSHAKEEP6cbb_stE19__PRETTY_FUNCTION__
0000000000000000 r _ZZN4bsslL24ext_ri_parse_clienthelloEPNS_13SSL_HANDSHAKEEPhP6cbs_stE19__PRETTY_FUNCTION__
0000000000000000 r _ZZN4bsslL24ext_ri_parse_serverhelloEPNS_13SSL_HANDSHAKEEPhP6cbs_stE19__PRETTY_FUNCTION__
0000000000000000 r _ZZN4bsslL24ext_srtp_add_serverhelloEPNS_13SSL_HANDSHAKEEP6cbb_stE19__PRETTY_FUNCTION__
0000000000000000 r _ZZN4bsslL25ext_npn_parse_serverhelloEPNS_13SSL_HANDSHAKEEPhP6cbs_stE19__PRETTY_FUNCTION__
0000000000000000 r _ZZN4bsslL25ext_sct_parse_serverhelloEPNS_13SSL_HANDSHAKEEPhP6cbs_stE19__PRETTY_FUNCTION__
0000000000000000 r _ZZN4bsslL26ext_alpn_parse_serverhelloEPNS_13SSL_HANDSHAKEEPhP6cbs_stE19__PRETTY_FUNCTION__
0000000000000000 r _ZZN4bsslL26ext_alps_parse_serverhelloEPNS_13SSL_HANDSHAKEEPhP6cbs_stE19__PRETTY_FUNCTION__
0000000000000000 r _ZZN4bsslL26ext_srtp_parse_serverhelloEPNS_13SSL_HANDSHAKEEPhP6cbs_stE19__PRETTY_FUNCTION__
0000000000000000 r _ZZN4bsslL26ext_ticket_add_serverhelloEPNS_13SSL_HANDSHAKEEP6cbb_stE19__PRETTY_FUNCTION__
0000000000000000 r _ZZN4bsslL26ssl_decrypt_ticket_with_cbEPNS_13SSL_HANDSHAKEEPNS_5ArrayIhEEPbNS_4SpanIKhEEE19__PRETTY_FUNCTION__
0000000000000000 r _ZZN4bsslL27ssl_scan_clienthello_tlsextEPNS_13SSL_HANDSHAKEEPK22ssl_early_callback_ctxPiE25kFakeRenegotiateExtension
0000000000000000 r _ZZN4bsslL28ext_ticket_parse_serverhelloEPNS_13SSL_HANDSHAKEEPhP6cbs_stE19__PRETTY_FUNCTION__
0000000000000000 r _ZZN4bsslL29ext_key_share_add_clienthelloEPKNS_13SSL_HANDSHAKEEP6cbb_stS4_NS_23ssl_client_hello_type_tEE19__PRETTY_FUNCTION__
0000000000000000 r _ZZN4bsslL30decrypt_ticket_with_cipher_ctxEPNS_5ArrayIhEEP17evp_cipher_ctx_stP11hmac_ctx_stNS_4SpanIKhEEE19__PRETTY_FUNCTION__
0000000000000000 r _ZZN4bsslL30ext_early_data_add_clienthelloEPKNS_13SSL_HANDSHAKEEP6cbb_stS4_NS_23ssl_client_hello_type_tEE19__PRETTY_FUNCTION__
0000000000000000 r _ZZN4bsslL31tls1_check_duplicate_extensionsEPK6cbs_stE19__PRETTY_FUNCTION__
0000000000000000 r _ZZN4bsslL32ext_channel_id_parse_serverhelloEPNS_13SSL_HANDSHAKEEPhP6cbs_stE19__PRETTY_FUNCTION__
0000000000000000 r _ZZN4bsslL32ext_early_data_parse_serverhelloEPNS_13SSL_HANDSHAKEEPhP6cbs_stE19__PRETTY_FUNCTION__
0000000000000000 r _ZZN4bsslL32ssl_add_clienthello_tlsext_innerEPNS_13SSL_HANDSHAKEEP6cbb_stS3_PbE19__PRETTY_FUNCTION__
0000000000000000 r _ZZN4bsslL35ssl_decrypt_ticket_with_ticket_keysEPNS_13SSL_HANDSHAKEEPNS_5ArrayIhEENS_4SpanIKhEEE19__PRETTY_FUNCTION__
0000000000000000 r _ZZN4bsslL46ext_quic_transport_params_add_clienthello_implEPKNS_13SSL_HANDSHAKEEP6cbb_stbE19__PRETTY_FUNCTION__
0000000000000000 r _ZZN4bsslL46ext_quic_transport_params_add_serverhello_implEPNS_13SSL_HANDSHAKEEP6cbb_stbE19__PRETTY_FUNCTION__
0000000000000000 r _ZZN4bsslL48ext_quic_transport_params_parse_clienthello_implEPNS_13SSL_HANDSHAKEEPhP6cbs_stbE19__PRETTY_FUNCTION__
0000000000000000 r _ZZN4bsslL48ext_quic_transport_params_parse_serverhello_implEPNS_13SSL_HANDSHAKEEPhP6cbs_stbE19__PRETTY_FUNCTION__

handoff.cc.o:
                 U abort
0000000000000000 b .bss
                 U BUF_MEM_append
                 U BUF_MEM_free
                 U BUF_MEM_new
                 U CBB_add_asn1
                 U CBB_add_asn1_bool
                 U CBB_add_asn1_int64
                 U CBB_add_asn1_octet_string
                 U CBB_add_asn1_uint64
                 U CBB_add_bytes
                 U CBB_add_u16
                 U CBB_cleanup
                 U CBB_flush
                 U CBB_zero
                 U CBS_copy_bytes
                 U CBS_data
                 U CBS_get_asn1
                 U CBS_get_asn1_bool
                 U CBS_get_asn1_int64
                 U CBS_get_asn1_uint64
                 U CBS_get_optional_asn1
                 U CBS_get_u16
                 U CBS_init
                 U CBS_len
                 U CBS_strdup
0000000000000000 n .comment
0000000000000000 t CRYPTO_bswap8
0000000000000000 t CRYPTO_load_u64_be
0000000000000000 t CRYPTO_store_u64_be
0000000000000000 d .data
0000000000000000 N .debug_abbrev
0000000000000000 N .debug_aranges
0000000000000000 N .debug_info
0000000000000000 N .debug_line
0000000000000000 N .debug_ranges
0000000000000000 N .debug_str
0000000000000000 r .eh_frame
                 U ERR_put_error
0000000000000000 n .group
0000000000000000 n .group
0000000000000000 n .group
0000000000000000 n .group
0000000000000000 n .group
0000000000000000 n .group
0000000000000000 n .group
0000000000000000 n .group
0000000000000000 n .group
0000000000000000 n .group
0000000000000000 n .group
0000000000000000 n .group
0000000000000000 n .group
0000000000000000 n .group
0000000000000000 n .group
0000000000000000 n .group
0000000000000000 n .group
0000000000000000 n .group
0000000000000000 n .group
0000000000000000 n .group
0000000000000000 n .group
0000000000000000 n .group
0000000000000000 n .group
0000000000000000 n .group
0000000000000000 n .group
0000000000000000 n .group
0000000000000000 n .group
0000000000000000 n .group
0000000000000000 n .group
0000000000000000 n .group
0000000000000000 n .group
0000000000000000 n .group
0000000000000000 n .group
0000000000000000 n .group
0000000000000000 n .group
0000000000000000 n .group
0000000000000000 n .group
0000000000000000 n .group
0000000000000000 n .group
0000000000000000 n .group
0000000000000000 n .group
0000000000000000 n .group
0000000000000000 n .group
0000000000000000 n .group
0000000000000000 n .group
0000000000000000 n .group
0000000000000000 n .group
0000000000000000 n .group
0000000000000000 n .group
0000000000000000 n .group
0000000000000000 n .group
0000000000000000 n .group
0000000000000000 n .group
0000000000000000 n .group
0000000000000000 n .group
0000000000000000 n .group
0000000000000000 n .group
0000000000000000 n .group
0000000000000000 n .group
0000000000000000 n .group
0000000000000000 n .group
0000000000000000 n .group
0000000000000000 n .group
0000000000000000 n .group
0000000000000000 n .group
0000000000000000 n .group
0000000000000000 n .group
0000000000000000 n .group
0000000000000000 n .group
0000000000000000 n .group
0000000000000000 n .group
0000000000000000 n .group
0000000000000000 n .group
0000000000000000 n .group
0000000000000000 n .group
0000000000000000 n .group
0000000000000000 n .group
0000000000000000 n .group
0000000000000000 n .group
0000000000000000 n .group
0000000000000000 n .group
0000000000000000 n .group
0000000000000000 n .group
0000000000000000 n .group
0000000000000000 n .group
0000000000000000 n .group
0000000000000000 n .group
0000000000000000 n .group
0000000000000000 n .group
0000000000000000 n .group
0000000000000000 n .group
0000000000000000 n .group
0000000000000000 n .group
0000000000000000 n .group
0000000000000000 n .group
0000000000000000 n .group
0000000000000000 n .group
0000000000000000 n .group
0000000000000000 n .group
0000000000000000 n .group
0000000000000000 n .group
0000000000000000 n .group
0000000000000000 n .group
0000000000000000 n .group
0000000000000000 n .group
0000000000000000 n .group
0000000000000000 n .group
0000000000000000 n .group
0000000000000000 n .group
0000000000000000 n .group
0000000000000000 n .group
0000000000000000 n .group
0000000000000000 n .group
0000000000000000 n .group
0000000000000000 n .group
0000000000000000 n .group
0000000000000000 n .group
0000000000000000 n .group
0000000000000000 n .group
0000000000000000 n .group
0000000000000000 n .group
0000000000000000 n .group
0000000000000000 n .group
0000000000000000 n .group
0000000000000000 n .group
0000000000000000 n .group
0000000000000000 n .group
0000000000000000 n .group
0000000000000000 n .group
0000000000000000 n .group
0000000000000000 n .group
0000000000000000 n .group
0000000000000000 n .group
0000000000000000 n .group
0000000000000000 n .group
0000000000000000 n .group
0000000000000000 n .group
0000000000000000 n .group
0000000000000000 n .group
0000000000000000 n .group
0000000000000000 n .group
0000000000000000 n .group
0000000000000000 n .group
0000000000000000 n .group
0000000000000000 n .group
0000000000000000 n .group
0000000000000000 n .group
0000000000000000 n .group
0000000000000000 n .group
0000000000000000 n .group
0000000000000000 n .group
0000000000000000 n .group
0000000000000000 n .group
0000000000000000 n .group
0000000000000000 n .group
0000000000000000 n .group
0000000000000000 n .group
0000000000000000 n .group
0000000000000000 n .group
0000000000000000 n .group
0000000000000000 n .group
0000000000000000 n .group
0000000000000000 n .group
0000000000000000 n .group
0000000000000000 n .group
0000000000000000 n .group
0000000000000000 n .group
0000000000000000 n .group
0000000000000000 n .group
0000000000000000 n .group
0000000000000000 n .group
0000000000000000 n .group
0000000000000000 n .group
0000000000000000 n .group
0000000000000000 n .group
0000000000000000 n .group
0000000000000000 n .group
0000000000000000 n .group
0000000000000000 n .group
0000000000000000 n .group
0000000000000000 n .group
0000000000000000 n .group
0000000000000000 n .group
0000000000000000 n .group
0000000000000000 n .group
0000000000000000 n .group
0000000000000000 n .group
0000000000000000 n .group
0000000000000000 n .group
0000000000000000 n .group
0000000000000000 n .group
0000000000000000 n .group
0000000000000000 n .group
0000000000000000 n .group
0000000000000000 n .group
0000000000000000 n .group
0000000000000000 n .group
0000000000000000 n .group
0000000000000000 n .group
0000000000000000 n .group
0000000000000000 n .group
0000000000000000 n .group
0000000000000000 n .group
0000000000000000 n .group
0000000000000000 n .group
0000000000000000 n .group
0000000000000000 n .group
0000000000000000 n .group
0000000000000000 n .group
0000000000000000 n .group
0000000000000000 n .group
0000000000000000 n .group
0000000000000000 n .group
0000000000000000 n .group
0000000000000000 n .group
0000000000000000 n .group
0000000000000000 n .group
0000000000000000 n .group
0000000000000000 n .group
0000000000000000 n .group
0000000000000000 n .group
0000000000000000 n .group
0000000000000000 n .group
0000000000000000 n .group
0000000000000000 n .group
0000000000000000 n .group
0000000000000000 n .group
0000000000000000 n .group
0000000000000000 n .group
0000000000000000 n .group
0000000000000000 n .group
0000000000000000 n .group
0000000000000000 n .group
0000000000000000 n .group
0000000000000000 n .group
0000000000000000 n .group
0000000000000000 n .group
0000000000000000 n .group
0000000000000000 n .group
0000000000000000 n .group
0000000000000000 n .group
0000000000000000 n .group
0000000000000000 n .group
0000000000000000 n .group
0000000000000000 n .group
0000000000000000 n .group
0000000000000000 n .group
0000000000000000 n .group
0000000000000000 n .group
0000000000000000 n .group
0000000000000000 n .group
0000000000000000 n .group
0000000000000000 n .group
0000000000000000 n .group
0000000000000000 n .group
0000000000000000 n .group
0000000000000000 n .group
0000000000000000 n .group
0000000000000000 n .group
0000000000000000 n .group
0000000000000000 n .group
0000000000000000 n .group
0000000000000000 n .group
0000000000000000 n .group
0000000000000000 n .group
0000000000000000 n .group
0000000000000000 n .group
0000000000000000 n .group
0000000000000000 n .group
0000000000000000 n .group
0000000000000000 n .group
0000000000000000 n .group
0000000000000000 n .group
0000000000000000 n .group
0000000000000000 n .group
0000000000000000 n .group
0000000000000000 n .group
0000000000000000 n .group
0000000000000000 n .group
0000000000000000 n .group
0000000000000000 n .group
0000000000000000 n .group
0000000000000000 n .group
0000000000000000 n .group
0000000000000000 n .group
0000000000000000 n .group
0000000000000000 n .group
0000000000000000 n .group
0000000000000000 n .group
0000000000000000 n .group
0000000000000000 n .group
0000000000000000 n .group
0000000000000000 n .group
0000000000000000 n .group
0000000000000000 n .group
0000000000000000 n .group
0000000000000000 n .group
0000000000000000 n .group
0000000000000000 n .group
0000000000000000 n .group
0000000000000000 n .group
0000000000000000 n .group
0000000000000000 n .group
0000000000000000 n .group
0000000000000000 n .group
0000000000000000 n .group
0000000000000000 n .group
0000000000000000 n .group
0000000000000000 n .group
0000000000000000 n .group
0000000000000000 n .group
0000000000000000 n .group
0000000000000000 n .group
0000000000000000 n .group
0000000000000000 n .group
0000000000000000 n .group
0000000000000000 n .group
0000000000000000 n .group
0000000000000000 n .group
0000000000000000 n .group
0000000000000000 n .group
0000000000000000 n .group
0000000000000000 n .group
0000000000000000 n .group
0000000000000000 n .group
0000000000000000 n .group
0000000000000000 n .group
0000000000000000 n .group
0000000000000000 n .group
0000000000000000 n .group
0000000000000000 a handoff.cc
                 U memcpy
                 U memset
0000000000000000 n .note.GNU-stack
                 U OPENSSL_free
                 U OPENSSL_malloc
0000000000000000 t OPENSSL_memcpy
0000000000000000 r .rodata
0000000000000000 r .rodata._ZL13kECDHEHintTag
0000000000000000 r .rodata._ZL13kIgnorePSKTag
0000000000000000 r .rodata._ZL15kRenewTicketTag
0000000000000000 r .rodata._ZL16kDecryptedPSKTag
0000000000000000 r .rodata._ZL16kIgnoreTicketTag
0000000000000000 r .rodata._ZL16kKeyShareHintTag
0000000000000000 r .rodata._ZL17kSignatureHintTag
0000000000000000 r .rodata._ZL19kDecryptedTicketTag
0000000000000000 r .rodata._ZL21kServerRandomTLS12Tag
0000000000000000 r .rodata._ZL21kServerRandomTLS13Tag
0000000000000000 r .rodata._ZL23kCompressCertificateTag
0000000000000000 r .rodata._ZN4bsslL11kMaxTicketsE
0000000000000000 r .rodata._ZN4bsslL15kHandoffTagALPSE
0000000000000000 r .rodata._ZN4bsslL15kHandoffVersionE
0000000000000000 r .rodata._ZN4bsslL16kHandbackVersionE
0000000000000000 r .rodata._ZN4bsslL21kMaxEarlyDataAcceptedE
0000000000000000 r .rodata._ZN9__gnu_cxxL21__default_lock_policyE
0000000000000000 r .rodata._ZStL13allocator_arg
0000000000000000 r .rodata._ZStL19piecewise_construct
0000000000000000 r .rodata._ZStL6ignore
0000000000000000 r .rodata._ZZN4bssl22SSL_serialize_handbackEPK6ssl_stP6cbb_stE16kUnusedChannelID
                 U sk_find
                 U sk_free
                 U sk_new_null
                 U sk_num
                 U sk_push
0000000000000000 W sk_SSL_CIPHER_call_cmp_func
0000000000000000 W sk_SSL_CIPHER_find
0000000000000000 W sk_SSL_CIPHER_new_null
0000000000000000 W sk_SSL_CIPHER_num
0000000000000000 W sk_SSL_CIPHER_push
                 U sk_value
                 U SSL_CIPHER_get_id
                 U SSL_CIPHER_get_max_version
                 U SSL_CIPHER_get_min_version
                 U SSL_CIPHER_is_block_cipher
                 U SSL_get_cipher_by_value
                 U SSL_get_ciphers
                 U SSL_is_dtls
0000000000000000 T SSL_request_handshake_hints
0000000000000000 T SSL_serialize_capabilities
0000000000000000 T SSL_serialize_handshake_hints
                 U SSL_SESSION_free
                 U SSL_set_accept_state
0000000000000000 T SSL_set_handshake_hints
                 U strlen
0000000000000000 t .text
0000000000000000 t .text.CRYPTO_bswap8
0000000000000000 t .text.CRYPTO_load_u64_be
0000000000000000 t .text.CRYPTO_store_u64_be
0000000000000000 t .text.OPENSSL_memcpy
0000000000000000 t .text.sk_SSL_CIPHER_call_cmp_func
0000000000000000 t .text.sk_SSL_CIPHER_find
0000000000000000 t .text.sk_SSL_CIPHER_new_null
0000000000000000 t .text.sk_SSL_CIPHER_num
0000000000000000 t .text.sk_SSL_CIPHER_push
0000000000000000 t .text.SSL_request_handshake_hints
0000000000000000 t .text.SSL_serialize_capabilities
0000000000000000 t .text.SSL_serialize_handshake_hints
0000000000000000 t .text.SSL_set_handshake_hints
0000000000000000 t .text._Z3endI19stack_st_SSL_CIPHERENSt9enable_ifIXsrN4bssl8internal11StackTraitsIT_EE8kIsStackENS3_17StackIteratorImplIS5_EEE4typeEPKS5_
0000000000000000 t .text._Z5beginI19stack_st_SSL_CIPHERENSt9enable_ifIXsrN4bssl8internal11StackTraitsIT_EE8kIsStackENS3_17StackIteratorImplIS5_EEE4typeEPKS5_
0000000000000000 t .text._ZL26get_optional_implicit_nullP6cbs_stPbj
0000000000000000 t .text._ZN4bssl10ALPSConfigD2Ev
0000000000000000 t .text._ZN4bssl10MakeUniqueINS_19SSL_HANDSHAKE_HINTSEJEEESt10unique_ptrIT_NS_8internal7DeleterEEDpOT0_
0000000000000000 t .text._ZN4bssl10MakeUniqueINS_23SSLCipherPreferenceListEJEEESt10unique_ptrIT_NS_8internal7DeleterEEDpOT0_
0000000000000000 t .text._ZN4bssl13GrowableArrayINS_10ALPSConfigEE5clearEv
0000000000000000 t .text._ZN4bssl13MakeConstSpanIKhEENS_4SpanIKT_EEPS3_m
0000000000000000 t .text._ZN4bssl13SSL_HANDSHAKE20early_traffic_secretEv
0000000000000000 t .text._ZN4bssl13SSL_HANDSHAKE23client_handshake_secretEv
0000000000000000 t .text._ZN4bssl13SSL_HANDSHAKE23client_traffic_secret_0Ev
0000000000000000 t .text._ZN4bssl13SSL_HANDSHAKE23server_handshake_secretEv
0000000000000000 t .text._ZN4bssl13SSL_HANDSHAKE23server_traffic_secret_0Ev
0000000000000000 t .text._ZN4bssl13SSL_HANDSHAKE6secretEv
0000000000000000 t .text._ZN4bssl17SSL_apply_handoffEP6ssl_stNS_4SpanIKhEE
0000000000000000 t .text._ZN4bssl18SSL_apply_handbackEP6ssl_stNS_4SpanIKhEE
0000000000000000 t .text._ZN4bssl19SSL_decline_handoffEP6ssl_st
0000000000000000 t .text._ZN4bssl19SSL_HANDSHAKE_HINTSC2Ev
0000000000000000 t .text._ZN4bssl19SSL_HANDSHAKE_HINTSD2Ev
0000000000000000 t .text._ZN4bssl21SSL_serialize_handoffEPK6ssl_stP6cbb_stP22ssl_early_callback_ctx
0000000000000000 t .text._ZN4bssl22SSL_serialize_handbackEPK6ssl_stP6cbb_st
0000000000000000 t .text._ZN4bssl23SSLCipherPreferenceListC2Ev
0000000000000000 t .text._ZN4bssl3NewINS_19SSL_HANDSHAKE_HINTSEJEEEPT_DpOT0_
0000000000000000 t .text._ZN4bssl3NewINS_23SSLCipherPreferenceListEJEEEPT_DpOT0_
0000000000000000 t .text._ZN4bssl4SpanIhEC2EPhm
0000000000000000 t .text._ZN4bssl4SpanIhEC2ILm8EEERAT__h
0000000000000000 t .text._ZN4bssl4SpanIKhEC1EPS1_m
0000000000000000 t .text._ZN4bssl4SpanIKhEC2INS0_IhEEvS4_EERKT_
0000000000000000 t .text._ZN4bssl5ArrayIhE4dataEv
0000000000000000 t .text._ZN4bssl5ArrayIhE4InitEm
0000000000000000 t .text._ZN4bssl5ArrayIhE5ResetEPhm
0000000000000000 t .text._ZN4bssl5ArrayIhE5ResetEv
0000000000000000 t .text._ZN4bssl5ArrayIhE8CopyFromENS_4SpanIKhEE
0000000000000000 t .text._ZN4bssl5ArrayIhEC2Ev
0000000000000000 t .text._ZN4bssl5ArrayIhED2Ev
0000000000000000 t .text._ZN4bssl5ArrayINS_10ALPSConfigEE5ResetEPS1_m
0000000000000000 t .text._ZN4bssl5ArrayINS_10ALPSConfigEE5ResetEv
0000000000000000 t .text._ZN4bssl5ArrayItE3endEv
0000000000000000 t .text._ZN4bssl5ArrayItE4InitEm
0000000000000000 t .text._ZN4bssl5ArrayItE5beginEv
0000000000000000 t .text._ZN4bssl5ArrayItE5ResetEPtm
0000000000000000 t .text._ZN4bssl5ArrayItE5ResetEv
0000000000000000 t .text._ZN4bssl5ArrayItE6ShrinkEm
0000000000000000 t .text._ZN4bssl5ArrayItE7ReleaseEPPtPm
0000000000000000 t .text._ZN4bssl5ArrayItEaSEOS1_
0000000000000000 t .text._ZN4bssl5ArrayItEC2Ev
0000000000000000 t .text._ZN4bssl5ArrayItED2Ev
0000000000000000 t .text._ZN4bssl5ArrayItEixEm
0000000000000000 t .text._ZN4bssl6DeleteINS_11SSLKeyShareEEEvPT_
0000000000000000 t .text._ZN4bssl6DeleteINS_13SSL_HANDSHAKEEEEvPT_
0000000000000000 t .text._ZN4bssl6DeleteINS_19SSL_HANDSHAKE_HINTSEEEvPT_
0000000000000000 t .text._ZN4bssl6DeleteINS_23SSLCipherPreferenceListEEEvPT_
0000000000000000 t .text._ZN4bssl8internal11DeleterImplI10buf_mem_stvE4FreeEPS2_
0000000000000000 t .text._ZN4bssl8internal11DeleterImplI14ssl_session_stvE4FreeEPS2_
0000000000000000 t .text._ZN4bssl8internal11DeleterImplI19stack_st_SSL_CIPHERvE4FreeEPS2_
0000000000000000 t .text._ZN4bssl8internal11DeleterImplIcvE4FreeEPc
0000000000000000 t .text._ZN4bssl8internal11DeleterImplINS_11SSLKeyShareEvE4FreeEPS2_
0000000000000000 t .text._ZN4bssl8internal11DeleterImplINS_13SSL_HANDSHAKEEvE4FreeEPS2_
0000000000000000 t .text._ZN4bssl8internal11DeleterImplINS_19SSL_HANDSHAKE_HINTSEvE4FreeEPS2_
0000000000000000 t .text._ZN4bssl8internal11DeleterImplINS_23SSLCipherPreferenceListEvE4FreeEPS2_
0000000000000000 t .text._ZN4bssl8internal14StackAllocatedI6cbb_stvXadL_Z8CBB_zeroEEXadL_Z11CBB_cleanupEEE3getEv
0000000000000000 t .text._ZN4bssl8internal14StackAllocatedI6cbb_stvXadL_Z8CBB_zeroEEXadL_Z11CBB_cleanupEEEC2Ev
0000000000000000 t .text._ZN4bssl8internal14StackAllocatedI6cbb_stvXadL_Z8CBB_zeroEEXadL_Z11CBB_cleanupEEED2Ev
0000000000000000 t .text._ZN4bssl8internal17StackIteratorImplI19stack_st_SSL_CIPHEREC2EPKS2_m
0000000000000000 t .text._ZN4bssl8internal17StackIteratorImplI19stack_st_SSL_CIPHEREppEv
0000000000000000 t .text._ZN4bssl8internal7DeleterclI10buf_mem_stEEvPT_
0000000000000000 t .text._ZN4bssl8internal7DeleterclI14ssl_session_stEEvPT_
0000000000000000 t .text._ZN4bssl8internal7DeleterclI19stack_st_SSL_CIPHEREEvPT_
0000000000000000 t .text._ZN4bssl8internal7DeleterclIcEEvPT_
0000000000000000 t .text._ZN4bssl8internal7DeleterclINS_11SSLKeyShareEEEvPT_
0000000000000000 t .text._ZN4bssl8internal7DeleterclINS_13SSL_HANDSHAKEEEEvPT_
0000000000000000 t .text._ZN4bssl8internal7DeleterclINS_19SSL_HANDSHAKE_HINTSEEEvPT_
0000000000000000 t .text._ZN4bssl8internal7DeleterclINS_23SSLCipherPreferenceListEEEvPT_
0000000000000000 t .text._ZN4bssl8MakeSpanIhEENS_4SpanIT_EEPS2_m
0000000000000000 t .text._ZN4bsslL18serialize_featuresEP6cbb_st
0000000000000000 t .text._ZN4bsslL21apply_remote_featuresEP6ssl_stP6cbs_st
0000000000000000 t .text._ZN4bsslL23uses_disallowed_featureEPK6ssl_st
0000000000000000 t .text._ZN4bsslL9CopyExactENS_4SpanIhEEPK6cbs_st
0000000000000000 t .text._ZN6cbs_stC2EN4bssl4SpanIKhEE
0000000000000000 t .text._ZNK4bssl13SSLTranscript6bufferEv
0000000000000000 t .text._ZNK4bssl14SSLAEADContext6cipherEv
0000000000000000 t .text._ZNK4bssl4SpanIhE4dataEv
0000000000000000 t .text._ZNK4bssl4SpanIhE4sizeEv
0000000000000000 t .text._ZNK4bssl4SpanIK13ssl_cipher_stE3endEv
0000000000000000 t .text._ZNK4bssl4SpanIK13ssl_cipher_stE5beginEv
0000000000000000 t .text._ZNK4bssl4SpanIKhE4dataEv
0000000000000000 t .text._ZNK4bssl4SpanIKhE4sizeEv
0000000000000000 t .text._ZNK4bssl4SpanIKNS_10NamedGroupEE3endEv
0000000000000000 t .text._ZNK4bssl4SpanIKNS_10NamedGroupEE5beginEv
0000000000000000 t .text._ZNK4bssl4SpanIKtE3endEv
0000000000000000 t .text._ZNK4bssl4SpanIKtE4sizeEv
0000000000000000 t .text._ZNK4bssl4SpanIKtE5beginEv
0000000000000000 t .text._ZNK4bssl5ArrayIhE4dataEv
0000000000000000 t .text._ZNK4bssl5ArrayIhE4sizeEv
0000000000000000 t .text._ZNK4bssl5ArrayIhE5emptyEv
0000000000000000 t .text._ZNK4bssl8internal17StackIteratorImplI19stack_st_SSL_CIPHEREdeEv
0000000000000000 t .text._ZNK4bssl8internal17StackIteratorImplI19stack_st_SSL_CIPHEREeqES3_
0000000000000000 t .text._ZNK4bssl8internal17StackIteratorImplI19stack_st_SSL_CIPHEREneES3_
0000000000000000 t .text._ZNK6cbs_stcvN4bssl4SpanIKhEEEv
0000000000000000 t .text._ZNKSt10unique_ptrI10buf_mem_stN4bssl8internal7DeleterEE3getEv
0000000000000000 t .text._ZNKSt10unique_ptrI10buf_mem_stN4bssl8internal7DeleterEEcvbEv
0000000000000000 t .text._ZNKSt10unique_ptrI10buf_mem_stN4bssl8internal7DeleterEEptEv
0000000000000000 t .text._ZNKSt10unique_ptrI10ssl_ctx_stN4bssl8internal7DeleterEE3getEv
0000000000000000 t .text._ZNKSt10unique_ptrI10ssl_ctx_stN4bssl8internal7DeleterEEptEv
0000000000000000 t .text._ZNKSt10unique_ptrI14ssl_session_stN4bssl8internal7DeleterEE3getEv
0000000000000000 t .text._ZNKSt10unique_ptrI15ssl_ech_keys_stN4bssl8internal7DeleterEE3getEv
0000000000000000 t .text._ZNKSt10unique_ptrI15ssl_ech_keys_stN4bssl8internal7DeleterEEcvbEv
0000000000000000 t .text._ZNKSt10unique_ptrI19stack_st_SSL_CIPHERN4bssl8internal7DeleterEE3getEv
0000000000000000 t .text._ZNKSt10unique_ptrI19stack_st_SSL_CIPHERN4bssl8internal7DeleterEEcvbEv
0000000000000000 t .text._ZNKSt10unique_ptrIcN4bssl8internal7DeleterEE3getEv
0000000000000000 t .text._ZNKSt10unique_ptrIcN4bssl8internal7DeleterEEcvbEv
0000000000000000 t .text._ZNKSt10unique_ptrIN4bssl10SSL_CONFIGENS0_8internal7DeleterEE3getEv
0000000000000000 t .text._ZNKSt10unique_ptrIN4bssl10SSL_CONFIGENS0_8internal7DeleterEEptEv
0000000000000000 t .text._ZNKSt10unique_ptrIN4bssl11SSLKeyShareENS0_8internal7DeleterEE3getEv
0000000000000000 t .text._ZNKSt10unique_ptrIN4bssl11SSLKeyShareENS0_8internal7DeleterEEcvbEv
0000000000000000 t .text._ZNKSt10unique_ptrIN4bssl11SSLKeyShareENS0_8internal7DeleterEEptEv
0000000000000000 t .text._ZNKSt10unique_ptrIN4bssl13SSL_HANDSHAKEENS0_8internal7DeleterEE3getEv
0000000000000000 t .text._ZNKSt10unique_ptrIN4bssl13SSL_HANDSHAKEENS0_8internal7DeleterEEcvbEv
0000000000000000 t .text._ZNKSt10unique_ptrIN4bssl13SSL_HANDSHAKEENS0_8internal7DeleterEEptEv
0000000000000000 t .text._ZNKSt10unique_ptrIN4bssl14SSLAEADContextENS0_8internal7DeleterEE3getEv
0000000000000000 t .text._ZNKSt10unique_ptrIN4bssl14SSLAEADContextENS0_8internal7DeleterEEptEv
0000000000000000 t .text._ZNKSt10unique_ptrIN4bssl19SSL_HANDSHAKE_HINTSENS0_8internal7DeleterEE3getEv
0000000000000000 t .text._ZNKSt10unique_ptrIN4bssl19SSL_HANDSHAKE_HINTSENS0_8internal7DeleterEEcvbEv
0000000000000000 t .text._ZNKSt10unique_ptrIN4bssl19SSL_HANDSHAKE_HINTSENS0_8internal7DeleterEEptEv
0000000000000000 t .text._ZNKSt10unique_ptrIN4bssl23SSLCipherPreferenceListENS0_8internal7DeleterEE3getEv
0000000000000000 t .text._ZNKSt10unique_ptrIN4bssl23SSLCipherPreferenceListENS0_8internal7DeleterEEcvbEv
0000000000000000 t .text._ZNKSt10unique_ptrIN4bssl23SSLCipherPreferenceListENS0_8internal7DeleterEEdeEv
0000000000000000 t .text._ZNKSt10unique_ptrIN4bssl23SSLCipherPreferenceListENS0_8internal7DeleterEEptEv
0000000000000000 t .text._ZNKSt10unique_ptrIN4bssl2DCENS0_8internal7DeleterEE3getEv
0000000000000000 t .text._ZNKSt10unique_ptrIN4bssl2DCENS0_8internal7DeleterEEcvbEv
0000000000000000 t .text._ZNKSt10unique_ptrIN4bssl4CERTENS0_8internal7DeleterEE3getEv
0000000000000000 t .text._ZNKSt10unique_ptrIN4bssl4CERTENS0_8internal7DeleterEEcvbEv
0000000000000000 t .text._ZNKSt10unique_ptrIN4bssl4CERTENS0_8internal7DeleterEEptEv
0000000000000000 t .text._ZNKSt15__uniq_ptr_implI10buf_mem_stN4bssl8internal7DeleterEE6_M_ptrEv
0000000000000000 t .text._ZNKSt15__uniq_ptr_implI10ssl_ctx_stN4bssl8internal7DeleterEE6_M_ptrEv
0000000000000000 t .text._ZNKSt15__uniq_ptr_implI14ssl_session_stN4bssl8internal7DeleterEE6_M_ptrEv
0000000000000000 t .text._ZNKSt15__uniq_ptr_implI15ssl_ech_keys_stN4bssl8internal7DeleterEE6_M_ptrEv
0000000000000000 t .text._ZNKSt15__uniq_ptr_implI19stack_st_SSL_CIPHERN4bssl8internal7DeleterEE6_M_ptrEv
0000000000000000 t .text._ZNKSt15__uniq_ptr_implIcN4bssl8internal7DeleterEE6_M_ptrEv
0000000000000000 t .text._ZNKSt15__uniq_ptr_implIN4bssl10SSL_CONFIGENS0_8internal7DeleterEE6_M_ptrEv
0000000000000000 t .text._ZNKSt15__uniq_ptr_implIN4bssl11SSLKeyShareENS0_8internal7DeleterEE6_M_ptrEv
0000000000000000 t .text._ZNKSt15__uniq_ptr_implIN4bssl13SSL_HANDSHAKEENS0_8internal7DeleterEE6_M_ptrEv
0000000000000000 t .text._ZNKSt15__uniq_ptr_implIN4bssl14SSLAEADContextENS0_8internal7DeleterEE6_M_ptrEv
0000000000000000 t .text._ZNKSt15__uniq_ptr_implIN4bssl19SSL_HANDSHAKE_HINTSENS0_8internal7DeleterEE6_M_ptrEv
0000000000000000 t .text._ZNKSt15__uniq_ptr_implIN4bssl23SSLCipherPreferenceListENS0_8internal7DeleterEE6_M_ptrEv
0000000000000000 t .text._ZNKSt15__uniq_ptr_implIN4bssl2DCENS0_8internal7DeleterEE6_M_ptrEv
0000000000000000 t .text._ZNKSt15__uniq_ptr_implIN4bssl4CERTENS0_8internal7DeleterEE6_M_ptrEv
0000000000000000 t .text._ZNSt10_Head_baseILm0EP10buf_mem_stLb0EE7_M_headERKS2_
0000000000000000 t .text._ZNSt10_Head_baseILm0EP10buf_mem_stLb0EE7_M_headERS2_
0000000000000000 t .text._ZNSt10_Head_baseILm0EP10ssl_ctx_stLb0EE7_M_headERKS2_
0000000000000000 t .text._ZNSt10_Head_baseILm0EP14ssl_session_stLb0EE7_M_headERKS2_
0000000000000000 t .text._ZNSt10_Head_baseILm0EP14ssl_session_stLb0EE7_M_headERS2_
0000000000000000 t .text._ZNSt10_Head_baseILm0EP15ssl_ech_keys_stLb0EE7_M_headERKS2_
0000000000000000 t .text._ZNSt10_Head_baseILm0EP19stack_st_SSL_CIPHERLb0EE7_M_headERKS2_
0000000000000000 t .text._ZNSt10_Head_baseILm0EP19stack_st_SSL_CIPHERLb0EE7_M_headERS2_
0000000000000000 t .text._ZNSt10_Head_baseILm0EP19stack_st_SSL_CIPHERLb0EEC2Ev
0000000000000000 t .text._ZNSt10_Head_baseILm0EPcLb0EE7_M_headERKS1_
0000000000000000 t .text._ZNSt10_Head_baseILm0EPcLb0EE7_M_headERS1_
0000000000000000 t .text._ZNSt10_Head_baseILm0EPN4bssl10SSL_CONFIGELb0EE7_M_headERKS3_
0000000000000000 t .text._ZNSt10_Head_baseILm0EPN4bssl11SSLKeyShareELb0EE7_M_headERKS3_
0000000000000000 t .text._ZNSt10_Head_baseILm0EPN4bssl11SSLKeyShareELb0EE7_M_headERS3_
0000000000000000 t .text._ZNSt10_Head_baseILm0EPN4bssl13SSL_HANDSHAKEELb0EE7_M_headERKS3_
0000000000000000 t .text._ZNSt10_Head_baseILm0EPN4bssl13SSL_HANDSHAKEELb0EE7_M_headERS3_
0000000000000000 t .text._ZNSt10_Head_baseILm0EPN4bssl14SSLAEADContextELb0EE7_M_headERKS3_
0000000000000000 t .text._ZNSt10_Head_baseILm0EPN4bssl19SSL_HANDSHAKE_HINTSELb0EE7_M_headERKS3_
0000000000000000 t .text._ZNSt10_Head_baseILm0EPN4bssl19SSL_HANDSHAKE_HINTSELb0EE7_M_headERS3_
0000000000000000 t .text._ZNSt10_Head_baseILm0EPN4bssl19SSL_HANDSHAKE_HINTSELb0EEC2Ev
0000000000000000 t .text._ZNSt10_Head_baseILm0EPN4bssl23SSLCipherPreferenceListELb0EE7_M_headERKS3_
0000000000000000 t .text._ZNSt10_Head_baseILm0EPN4bssl23SSLCipherPreferenceListELb0EE7_M_headERS3_
0000000000000000 t .text._ZNSt10_Head_baseILm0EPN4bssl23SSLCipherPreferenceListELb0EEC2Ev
0000000000000000 t .text._ZNSt10_Head_baseILm0EPN4bssl2DCELb0EE7_M_headERKS3_
0000000000000000 t .text._ZNSt10_Head_baseILm0EPN4bssl4CERTELb0EE7_M_headERKS3_
0000000000000000 t .text._ZNSt10_Head_baseILm1EN4bssl8internal7DeleterELb1EE7_M_headERS3_
0000000000000000 t .text._ZNSt10_Head_baseILm1EN4bssl8internal7DeleterELb1EEC2Ev
0000000000000000 t .text._ZNSt10unique_ptrI10buf_mem_stN4bssl8internal7DeleterEE11get_deleterEv
0000000000000000 t .text._ZNSt10unique_ptrI10buf_mem_stN4bssl8internal7DeleterEE5resetEPS0_
0000000000000000 t .text._ZNSt10unique_ptrI14ssl_session_stN4bssl8internal7DeleterEE11get_deleterEv
0000000000000000 t .text._ZNSt10unique_ptrI14ssl_session_stN4bssl8internal7DeleterEE5resetEPS0_
0000000000000000 t .text._ZNSt10unique_ptrI14ssl_session_stN4bssl8internal7DeleterEE7releaseEv
0000000000000000 t .text._ZNSt10unique_ptrI14ssl_session_stN4bssl8internal7DeleterEEaSEOS4_
0000000000000000 t .text._ZNSt10unique_ptrI14ssl_session_stN4bssl8internal7DeleterEED2Ev
0000000000000000 t .text._ZNSt10unique_ptrI19stack_st_SSL_CIPHERN4bssl8internal7DeleterEE11get_deleterEv
0000000000000000 t .text._ZNSt10unique_ptrI19stack_st_SSL_CIPHERN4bssl8internal7DeleterEEC2IS3_vEEPS0_
0000000000000000 t .text._ZNSt10unique_ptrI19stack_st_SSL_CIPHERN4bssl8internal7DeleterEEC2IS3_vEEv
0000000000000000 t .text._ZNSt10unique_ptrI19stack_st_SSL_CIPHERN4bssl8internal7DeleterEED2Ev
0000000000000000 t .text._ZNSt10unique_ptrIcN4bssl8internal7DeleterEE11get_deleterEv
0000000000000000 t .text._ZNSt10unique_ptrIcN4bssl8internal7DeleterEE5resetEPc
0000000000000000 t .text._ZNSt10unique_ptrIN4bssl11SSLKeyShareENS0_8internal7DeleterEE11get_deleterEv
0000000000000000 t .text._ZNSt10unique_ptrIN4bssl11SSLKeyShareENS0_8internal7DeleterEE5resetEPS1_
0000000000000000 t .text._ZNSt10unique_ptrIN4bssl11SSLKeyShareENS0_8internal7DeleterEE7releaseEv
0000000000000000 t .text._ZNSt10unique_ptrIN4bssl11SSLKeyShareENS0_8internal7DeleterEEaSEOS4_
0000000000000000 t .text._ZNSt10unique_ptrIN4bssl11SSLKeyShareENS0_8internal7DeleterEED2Ev
0000000000000000 t .text._ZNSt10unique_ptrIN4bssl13SSL_HANDSHAKEENS0_8internal7DeleterEE11get_deleterEv
0000000000000000 t .text._ZNSt10unique_ptrIN4bssl13SSL_HANDSHAKEENS0_8internal7DeleterEE5resetEPS1_
0000000000000000 t .text._ZNSt10unique_ptrIN4bssl13SSL_HANDSHAKEENS0_8internal7DeleterEE7releaseEv
0000000000000000 t .text._ZNSt10unique_ptrIN4bssl13SSL_HANDSHAKEENS0_8internal7DeleterEEaSEOS4_
0000000000000000 t .text._ZNSt10unique_ptrIN4bssl13SSL_HANDSHAKEENS0_8internal7DeleterEED2Ev
0000000000000000 t .text._ZNSt10unique_ptrIN4bssl19SSL_HANDSHAKE_HINTSENS0_8internal7DeleterEE11get_deleterEv
0000000000000000 t .text._ZNSt10unique_ptrIN4bssl19SSL_HANDSHAKE_HINTSENS0_8internal7DeleterEE5resetEPS1_
0000000000000000 t .text._ZNSt10unique_ptrIN4bssl19SSL_HANDSHAKE_HINTSENS0_8internal7DeleterEE7releaseEv
0000000000000000 t .text._ZNSt10unique_ptrIN4bssl19SSL_HANDSHAKE_HINTSENS0_8internal7DeleterEEaSEOS4_
0000000000000000 t .text._ZNSt10unique_ptrIN4bssl19SSL_HANDSHAKE_HINTSENS0_8internal7DeleterEEC2IS3_vEEPS1_
0000000000000000 t .text._ZNSt10unique_ptrIN4bssl19SSL_HANDSHAKE_HINTSENS0_8internal7DeleterEED2Ev
0000000000000000 t .text._ZNSt10unique_ptrIN4bssl23SSLCipherPreferenceListENS0_8internal7DeleterEE11get_deleterEv
0000000000000000 t .text._ZNSt10unique_ptrIN4bssl23SSLCipherPreferenceListENS0_8internal7DeleterEE5resetEPS1_
0000000000000000 t .text._ZNSt10unique_ptrIN4bssl23SSLCipherPreferenceListENS0_8internal7DeleterEE7releaseEv
0000000000000000 t .text._ZNSt10unique_ptrIN4bssl23SSLCipherPreferenceListENS0_8internal7DeleterEEaSEOS4_
0000000000000000 t .text._ZNSt10unique_ptrIN4bssl23SSLCipherPreferenceListENS0_8internal7DeleterEEC2IS3_vEEPS1_
0000000000000000 t .text._ZNSt10unique_ptrIN4bssl23SSLCipherPreferenceListENS0_8internal7DeleterEED2Ev
0000000000000000 t .text._ZNSt11_Tuple_implILm0EJP10buf_mem_stN4bssl8internal7DeleterEEE7_M_headERKS5_
0000000000000000 t .text._ZNSt11_Tuple_implILm0EJP10buf_mem_stN4bssl8internal7DeleterEEE7_M_headERS5_
0000000000000000 t .text._ZNSt11_Tuple_implILm0EJP10ssl_ctx_stN4bssl8internal7DeleterEEE7_M_headERKS5_
0000000000000000 t .text._ZNSt11_Tuple_implILm0EJP14ssl_session_stN4bssl8internal7DeleterEEE7_M_headERKS5_
0000000000000000 t .text._ZNSt11_Tuple_implILm0EJP14ssl_session_stN4bssl8internal7DeleterEEE7_M_headERS5_
0000000000000000 t .text._ZNSt11_Tuple_implILm0EJP15ssl_ech_keys_stN4bssl8internal7DeleterEEE7_M_headERKS5_
0000000000000000 t .text._ZNSt11_Tuple_implILm0EJP19stack_st_SSL_CIPHERN4bssl8internal7DeleterEEE7_M_headERKS5_
0000000000000000 t .text._ZNSt11_Tuple_implILm0EJP19stack_st_SSL_CIPHERN4bssl8internal7DeleterEEE7_M_headERS5_
0000000000000000 t .text._ZNSt11_Tuple_implILm0EJP19stack_st_SSL_CIPHERN4bssl8internal7DeleterEEEC2Ev
0000000000000000 t .text._ZNSt11_Tuple_implILm0EJPcN4bssl8internal7DeleterEEE7_M_headERKS4_
0000000000000000 t .text._ZNSt11_Tuple_implILm0EJPcN4bssl8internal7DeleterEEE7_M_headERS4_
0000000000000000 t .text._ZNSt11_Tuple_implILm0EJPN4bssl10SSL_CONFIGENS0_8internal7DeleterEEE7_M_headERKS5_
0000000000000000 t .text._ZNSt11_Tuple_implILm0EJPN4bssl11SSLKeyShareENS0_8internal7DeleterEEE7_M_headERKS5_
0000000000000000 t .text._ZNSt11_Tuple_implILm0EJPN4bssl11SSLKeyShareENS0_8internal7DeleterEEE7_M_headERS5_
0000000000000000 t .text._ZNSt11_Tuple_implILm0EJPN4bssl13SSL_HANDSHAKEENS0_8internal7DeleterEEE7_M_headERKS5_
0000000000000000 t .text._ZNSt11_Tuple_implILm0EJPN4bssl13SSL_HANDSHAKEENS0_8internal7DeleterEEE7_M_headERS5_
0000000000000000 t .text._ZNSt11_Tuple_implILm0EJPN4bssl14SSLAEADContextENS0_8internal7DeleterEEE7_M_headERKS5_
0000000000000000 t .text._ZNSt11_Tuple_implILm0EJPN4bssl19SSL_HANDSHAKE_HINTSENS0_8internal7DeleterEEE7_M_headERKS5_
0000000000000000 t .text._ZNSt11_Tuple_implILm0EJPN4bssl19SSL_HANDSHAKE_HINTSENS0_8internal7DeleterEEE7_M_headERS5_
0000000000000000 t .text._ZNSt11_Tuple_implILm0EJPN4bssl19SSL_HANDSHAKE_HINTSENS0_8internal7DeleterEEEC2Ev
0000000000000000 t .text._ZNSt11_Tuple_implILm0EJPN4bssl23SSLCipherPreferenceListENS0_8internal7DeleterEEE7_M_headERKS5_
0000000000000000 t .text._ZNSt11_Tuple_implILm0EJPN4bssl23SSLCipherPreferenceListENS0_8internal7DeleterEEE7_M_headERS5_
0000000000000000 t .text._ZNSt11_Tuple_implILm0EJPN4bssl23SSLCipherPreferenceListENS0_8internal7DeleterEEEC2Ev
0000000000000000 t .text._ZNSt11_Tuple_implILm0EJPN4bssl2DCENS0_8internal7DeleterEEE7_M_headERKS5_
0000000000000000 t .text._ZNSt11_Tuple_implILm0EJPN4bssl4CERTENS0_8internal7DeleterEEE7_M_headERKS5_
0000000000000000 t .text._ZNSt11_Tuple_implILm1EJN4bssl8internal7DeleterEEE7_M_headERS3_
0000000000000000 t .text._ZNSt11_Tuple_implILm1EJN4bssl8internal7DeleterEEEC2Ev
0000000000000000 t .text._ZNSt14numeric_limitsIiE3maxEv
0000000000000000 t .text._ZNSt14numeric_limitsIiE3minEv
0000000000000000 t .text._ZNSt14numeric_limitsImE3maxEv
0000000000000000 t .text._ZNSt15__uniq_ptr_implI10buf_mem_stN4bssl8internal7DeleterEE10_M_deleterEv
0000000000000000 t .text._ZNSt15__uniq_ptr_implI10buf_mem_stN4bssl8internal7DeleterEE6_M_ptrEv
0000000000000000 t .text._ZNSt15__uniq_ptr_implI14ssl_session_stN4bssl8internal7DeleterEE10_M_deleterEv
0000000000000000 t .text._ZNSt15__uniq_ptr_implI14ssl_session_stN4bssl8internal7DeleterEE6_M_ptrEv
0000000000000000 t .text._ZNSt15__uniq_ptr_implI19stack_st_SSL_CIPHERN4bssl8internal7DeleterEE10_M_deleterEv
0000000000000000 t .text._ZNSt15__uniq_ptr_implI19stack_st_SSL_CIPHERN4bssl8internal7DeleterEE6_M_ptrEv
0000000000000000 t .text._ZNSt15__uniq_ptr_implI19stack_st_SSL_CIPHERN4bssl8internal7DeleterEEC2EPS0_
0000000000000000 t .text._ZNSt15__uniq_ptr_implI19stack_st_SSL_CIPHERN4bssl8internal7DeleterEEC2Ev
0000000000000000 t .text._ZNSt15__uniq_ptr_implIcN4bssl8internal7DeleterEE10_M_deleterEv
0000000000000000 t .text._ZNSt15__uniq_ptr_implIcN4bssl8internal7DeleterEE6_M_ptrEv
0000000000000000 t .text._ZNSt15__uniq_ptr_implIN4bssl11SSLKeyShareENS0_8internal7DeleterEE10_M_deleterEv
0000000000000000 t .text._ZNSt15__uniq_ptr_implIN4bssl11SSLKeyShareENS0_8internal7DeleterEE6_M_ptrEv
0000000000000000 t .text._ZNSt15__uniq_ptr_implIN4bssl13SSL_HANDSHAKEENS0_8internal7DeleterEE10_M_deleterEv
0000000000000000 t .text._ZNSt15__uniq_ptr_implIN4bssl13SSL_HANDSHAKEENS0_8internal7DeleterEE6_M_ptrEv
0000000000000000 t .text._ZNSt15__uniq_ptr_implIN4bssl19SSL_HANDSHAKE_HINTSENS0_8internal7DeleterEE10_M_deleterEv
0000000000000000 t .text._ZNSt15__uniq_ptr_implIN4bssl19SSL_HANDSHAKE_HINTSENS0_8internal7DeleterEE6_M_ptrEv
0000000000000000 t .text._ZNSt15__uniq_ptr_implIN4bssl19SSL_HANDSHAKE_HINTSENS0_8internal7DeleterEEC2EPS1_
0000000000000000 t .text._ZNSt15__uniq_ptr_implIN4bssl23SSLCipherPreferenceListENS0_8internal7DeleterEE10_M_deleterEv
0000000000000000 t .text._ZNSt15__uniq_ptr_implIN4bssl23SSLCipherPreferenceListENS0_8internal7DeleterEE6_M_ptrEv
0000000000000000 t .text._ZNSt15__uniq_ptr_implIN4bssl23SSLCipherPreferenceListENS0_8internal7DeleterEEC2EPS1_
0000000000000000 t .text._ZNSt5tupleIJP19stack_st_SSL_CIPHERN4bssl8internal7DeleterEEEC2IS1_S4_Lb1EEEv
0000000000000000 t .text._ZNSt5tupleIJPN4bssl19SSL_HANDSHAKE_HINTSENS0_8internal7DeleterEEEC2IS2_S4_Lb1EEEv
0000000000000000 t .text._ZNSt5tupleIJPN4bssl23SSLCipherPreferenceListENS0_8internal7DeleterEEEC2IS2_S4_Lb1EEEv
0000000000000000 t .text._ZnwmPv
0000000000000000 t .text._ZSt12__get_helperILm0EP10buf_mem_stJN4bssl8internal7DeleterEEERKT0_RKSt11_Tuple_implIXT_EJS5_DpT1_EE
0000000000000000 t .text._ZSt12__get_helperILm0EP10buf_mem_stJN4bssl8internal7DeleterEEERT0_RSt11_Tuple_implIXT_EJS5_DpT1_EE
0000000000000000 t .text._ZSt12__get_helperILm0EP10ssl_ctx_stJN4bssl8internal7DeleterEEERKT0_RKSt11_Tuple_implIXT_EJS5_DpT1_EE
0000000000000000 t .text._ZSt12__get_helperILm0EP14ssl_session_stJN4bssl8internal7DeleterEEERKT0_RKSt11_Tuple_implIXT_EJS5_DpT1_EE
0000000000000000 t .text._ZSt12__get_helperILm0EP14ssl_session_stJN4bssl8internal7DeleterEEERT0_RSt11_Tuple_implIXT_EJS5_DpT1_EE
0000000000000000 t .text._ZSt12__get_helperILm0EP15ssl_ech_keys_stJN4bssl8internal7DeleterEEERKT0_RKSt11_Tuple_implIXT_EJS5_DpT1_EE
0000000000000000 t .text._ZSt12__get_helperILm0EP19stack_st_SSL_CIPHERJN4bssl8internal7DeleterEEERKT0_RKSt11_Tuple_implIXT_EJS5_DpT1_EE
0000000000000000 t .text._ZSt12__get_helperILm0EP19stack_st_SSL_CIPHERJN4bssl8internal7DeleterEEERT0_RSt11_Tuple_implIXT_EJS5_DpT1_EE
0000000000000000 t .text._ZSt12__get_helperILm0EPcJN4bssl8internal7DeleterEEERKT0_RKSt11_Tuple_implIXT_EJS4_DpT1_EE
0000000000000000 t .text._ZSt12__get_helperILm0EPcJN4bssl8internal7DeleterEEERT0_RSt11_Tuple_implIXT_EJS4_DpT1_EE
0000000000000000 t .text._ZSt12__get_helperILm0EPN4bssl10SSL_CONFIGEJNS0_8internal7DeleterEEERKT0_RKSt11_Tuple_implIXT_EJS5_DpT1_EE
0000000000000000 t .text._ZSt12__get_helperILm0EPN4bssl11SSLKeyShareEJNS0_8internal7DeleterEEERKT0_RKSt11_Tuple_implIXT_EJS5_DpT1_EE
0000000000000000 t .text._ZSt12__get_helperILm0EPN4bssl11SSLKeyShareEJNS0_8internal7DeleterEEERT0_RSt11_Tuple_implIXT_EJS5_DpT1_EE
0000000000000000 t .text._ZSt12__get_helperILm0EPN4bssl13SSL_HANDSHAKEEJNS0_8internal7DeleterEEERKT0_RKSt11_Tuple_implIXT_EJS5_DpT1_EE
0000000000000000 t .text._ZSt12__get_helperILm0EPN4bssl13SSL_HANDSHAKEEJNS0_8internal7DeleterEEERT0_RSt11_Tuple_implIXT_EJS5_DpT1_EE
0000000000000000 t .text._ZSt12__get_helperILm0EPN4bssl14SSLAEADContextEJNS0_8internal7DeleterEEERKT0_RKSt11_Tuple_implIXT_EJS5_DpT1_EE
0000000000000000 t .text._ZSt12__get_helperILm0EPN4bssl19SSL_HANDSHAKE_HINTSEJNS0_8internal7DeleterEEERKT0_RKSt11_Tuple_implIXT_EJS5_DpT1_EE
0000000000000000 t .text._ZSt12__get_helperILm0EPN4bssl19SSL_HANDSHAKE_HINTSEJNS0_8internal7DeleterEEERT0_RSt11_Tuple_implIXT_EJS5_DpT1_EE
0000000000000000 t .text._ZSt12__get_helperILm0EPN4bssl23SSLCipherPreferenceListEJNS0_8internal7DeleterEEERKT0_RKSt11_Tuple_implIXT_EJS5_DpT1_EE
0000000000000000 t .text._ZSt12__get_helperILm0EPN4bssl23SSLCipherPreferenceListEJNS0_8internal7DeleterEEERT0_RSt11_Tuple_implIXT_EJS5_DpT1_EE
0000000000000000 t .text._ZSt12__get_helperILm0EPN4bssl2DCEJNS0_8internal7DeleterEEERKT0_RKSt11_Tuple_implIXT_EJS5_DpT1_EE
0000000000000000 t .text._ZSt12__get_helperILm0EPN4bssl4CERTEJNS0_8internal7DeleterEEERKT0_RKSt11_Tuple_implIXT_EJS5_DpT1_EE
0000000000000000 t .text._ZSt12__get_helperILm1EN4bssl8internal7DeleterEJEERT0_RSt11_Tuple_implIXT_EJS3_DpT1_EE
0000000000000000 t .text._ZSt3getILm0EJP10buf_mem_stN4bssl8internal7DeleterEEERKNSt13tuple_elementIXT_ESt5tupleIJDpT0_EEE4typeERKS9_
0000000000000000 t .text._ZSt3getILm0EJP10buf_mem_stN4bssl8internal7DeleterEEERNSt13tuple_elementIXT_ESt5tupleIJDpT0_EEE4typeERS9_
0000000000000000 t .text._ZSt3getILm0EJP10ssl_ctx_stN4bssl8internal7DeleterEEERKNSt13tuple_elementIXT_ESt5tupleIJDpT0_EEE4typeERKS9_
0000000000000000 t .text._ZSt3getILm0EJP14ssl_session_stN4bssl8internal7DeleterEEERKNSt13tuple_elementIXT_ESt5tupleIJDpT0_EEE4typeERKS9_
0000000000000000 t .text._ZSt3getILm0EJP14ssl_session_stN4bssl8internal7DeleterEEERNSt13tuple_elementIXT_ESt5tupleIJDpT0_EEE4typeERS9_
0000000000000000 t .text._ZSt3getILm0EJP15ssl_ech_keys_stN4bssl8internal7DeleterEEERKNSt13tuple_elementIXT_ESt5tupleIJDpT0_EEE4typeERKS9_
0000000000000000 t .text._ZSt3getILm0EJP19stack_st_SSL_CIPHERN4bssl8internal7DeleterEEERKNSt13tuple_elementIXT_ESt5tupleIJDpT0_EEE4typeERKS9_
0000000000000000 t .text._ZSt3getILm0EJP19stack_st_SSL_CIPHERN4bssl8internal7DeleterEEERNSt13tuple_elementIXT_ESt5tupleIJDpT0_EEE4typeERS9_
0000000000000000 t .text._ZSt3getILm0EJPcN4bssl8internal7DeleterEEERKNSt13tuple_elementIXT_ESt5tupleIJDpT0_EEE4typeERKS8_
0000000000000000 t .text._ZSt3getILm0EJPcN4bssl8internal7DeleterEEERNSt13tuple_elementIXT_ESt5tupleIJDpT0_EEE4typeERS8_
0000000000000000 t .text._ZSt3getILm0EJPN4bssl10SSL_CONFIGENS0_8internal7DeleterEEERKNSt13tuple_elementIXT_ESt5tupleIJDpT0_EEE4typeERKS9_
0000000000000000 t .text._ZSt3getILm0EJPN4bssl11SSLKeyShareENS0_8internal7DeleterEEERKNSt13tuple_elementIXT_ESt5tupleIJDpT0_EEE4typeERKS9_
0000000000000000 t .text._ZSt3getILm0EJPN4bssl11SSLKeyShareENS0_8internal7DeleterEEERNSt13tuple_elementIXT_ESt5tupleIJDpT0_EEE4typeERS9_
0000000000000000 t .text._ZSt3getILm0EJPN4bssl13SSL_HANDSHAKEENS0_8internal7DeleterEEERKNSt13tuple_elementIXT_ESt5tupleIJDpT0_EEE4typeERKS9_
0000000000000000 t .text._ZSt3getILm0EJPN4bssl13SSL_HANDSHAKEENS0_8internal7DeleterEEERNSt13tuple_elementIXT_ESt5tupleIJDpT0_EEE4typeERS9_
0000000000000000 t .text._ZSt3getILm0EJPN4bssl14SSLAEADContextENS0_8internal7DeleterEEERKNSt13tuple_elementIXT_ESt5tupleIJDpT0_EEE4typeERKS9_
0000000000000000 t .text._ZSt3getILm0EJPN4bssl19SSL_HANDSHAKE_HINTSENS0_8internal7DeleterEEERKNSt13tuple_elementIXT_ESt5tupleIJDpT0_EEE4typeERKS9_
0000000000000000 t .text._ZSt3getILm0EJPN4bssl19SSL_HANDSHAKE_HINTSENS0_8internal7DeleterEEERNSt13tuple_elementIXT_ESt5tupleIJDpT0_EEE4typeERS9_
0000000000000000 t .text._ZSt3getILm0EJPN4bssl23SSLCipherPreferenceListENS0_8internal7DeleterEEERKNSt13tuple_elementIXT_ESt5tupleIJDpT0_EEE4typeERKS9_
0000000000000000 t .text._ZSt3getILm0EJPN4bssl23SSLCipherPreferenceListENS0_8internal7DeleterEEERNSt13tuple_elementIXT_ESt5tupleIJDpT0_EEE4typeERS9_
0000000000000000 t .text._ZSt3getILm0EJPN4bssl2DCENS0_8internal7DeleterEEERKNSt13tuple_elementIXT_ESt5tupleIJDpT0_EEE4typeERKS9_
0000000000000000 t .text._ZSt3getILm0EJPN4bssl4CERTENS0_8internal7DeleterEEERKNSt13tuple_elementIXT_ESt5tupleIJDpT0_EEE4typeERKS9_
0000000000000000 t .text._ZSt3getILm1EJP10buf_mem_stN4bssl8internal7DeleterEEERNSt13tuple_elementIXT_ESt5tupleIJDpT0_EEE4typeERS9_
0000000000000000 t .text._ZSt3getILm1EJP14ssl_session_stN4bssl8internal7DeleterEEERNSt13tuple_elementIXT_ESt5tupleIJDpT0_EEE4typeERS9_
0000000000000000 t .text._ZSt3getILm1EJP19stack_st_SSL_CIPHERN4bssl8internal7DeleterEEERNSt13tuple_elementIXT_ESt5tupleIJDpT0_EEE4typeERS9_
0000000000000000 t .text._ZSt3getILm1EJPcN4bssl8internal7DeleterEEERNSt13tuple_elementIXT_ESt5tupleIJDpT0_EEE4typeERS8_
0000000000000000 t .text._ZSt3getILm1EJPN4bssl11SSLKeyShareENS0_8internal7DeleterEEERNSt13tuple_elementIXT_ESt5tupleIJDpT0_EEE4typeERS9_
0000000000000000 t .text._ZSt3getILm1EJPN4bssl13SSL_HANDSHAKEENS0_8internal7DeleterEEERNSt13tuple_elementIXT_ESt5tupleIJDpT0_EEE4typeERS9_
0000000000000000 t .text._ZSt3getILm1EJPN4bssl19SSL_HANDSHAKE_HINTSENS0_8internal7DeleterEEERNSt13tuple_elementIXT_ESt5tupleIJDpT0_EEE4typeERS9_
0000000000000000 t .text._ZSt3getILm1EJPN4bssl23SSLCipherPreferenceListENS0_8internal7DeleterEEERNSt13tuple_elementIXT_ESt5tupleIJDpT0_EEE4typeERS9_
0000000000000000 t .text._ZSt4moveIRN4bssl5ArrayItEEEONSt16remove_referenceIT_E4typeEOS5_
0000000000000000 t .text._ZSt4moveIRP10buf_mem_stEONSt16remove_referenceIT_E4typeEOS4_
0000000000000000 t .text._ZSt4moveIRP14ssl_session_stEONSt16remove_referenceIT_E4typeEOS4_
0000000000000000 t .text._ZSt4moveIRPcEONSt16remove_referenceIT_E4typeEOS3_
0000000000000000 t .text._ZSt4moveIRPN4bssl11SSLKeyShareEEONSt16remove_referenceIT_E4typeEOS5_
0000000000000000 t .text._ZSt4moveIRPN4bssl13SSL_HANDSHAKEEEONSt16remove_referenceIT_E4typeEOS5_
0000000000000000 t .text._ZSt4moveIRPN4bssl19SSL_HANDSHAKE_HINTSEEONSt16remove_referenceIT_E4typeEOS5_
0000000000000000 t .text._ZSt4moveIRPN4bssl23SSLCipherPreferenceListEEONSt16remove_referenceIT_E4typeEOS5_
0000000000000000 t .text._ZSt4moveIRSt10unique_ptrIN4bssl19SSL_HANDSHAKE_HINTSENS1_8internal7DeleterEEEONSt16remove_referenceIT_E4typeEOS8_
0000000000000000 t .text._ZSt4swapIP10buf_mem_stENSt9enable_ifIXsrSt6__and_IJSt6__not_ISt15__is_tuple_likeIT_EESt21is_move_constructibleIS6_ESt18is_move_assignableIS6_EEE5valueEvE4typeERS6_SG_
0000000000000000 t .text._ZSt4swapIP14ssl_session_stENSt9enable_ifIXsrSt6__and_IJSt6__not_ISt15__is_tuple_likeIT_EESt21is_move_constructibleIS6_ESt18is_move_assignableIS6_EEE5valueEvE4typeERS6_SG_
0000000000000000 t .text._ZSt4swapIPcENSt9enable_ifIXsrSt6__and_IJSt6__not_ISt15__is_tuple_likeIT_EESt21is_move_constructibleIS5_ESt18is_move_assignableIS5_EEE5valueEvE4typeERS5_SF_
0000000000000000 t .text._ZSt4swapIPN4bssl11SSLKeyShareEENSt9enable_ifIXsrSt6__and_IJSt6__not_ISt15__is_tuple_likeIT_EESt21is_move_constructibleIS7_ESt18is_move_assignableIS7_EEE5valueEvE4typeERS7_SH_
0000000000000000 t .text._ZSt4swapIPN4bssl13SSL_HANDSHAKEEENSt9enable_ifIXsrSt6__and_IJSt6__not_ISt15__is_tuple_likeIT_EESt21is_move_constructibleIS7_ESt18is_move_assignableIS7_EEE5valueEvE4typeERS7_SH_
0000000000000000 t .text._ZSt4swapIPN4bssl19SSL_HANDSHAKE_HINTSEENSt9enable_ifIXsrSt6__and_IJSt6__not_ISt15__is_tuple_likeIT_EESt21is_move_constructibleIS7_ESt18is_move_assignableIS7_EEE5valueEvE4typeERS7_SH_
0000000000000000 t .text._ZSt4swapIPN4bssl23SSLCipherPreferenceListEENSt9enable_ifIXsrSt6__and_IJSt6__not_ISt15__is_tuple_likeIT_EESt21is_move_constructibleIS7_ESt18is_move_assignableIS7_EEE5valueEvE4typeERS7_SH_
0000000000000000 t .text._ZSt7forwardIN4bssl8internal7DeleterEEOT_RNSt16remove_referenceIS3_E4typeE
0000000000000000 t .text._ZSteqIN4bssl13SSL_HANDSHAKEENS0_8internal7DeleterEEbRKSt10unique_ptrIT_T0_EDn
0000000000000000 t .text._ZSteqIN4bssl19SSL_HANDSHAKE_HINTSENS0_8internal7DeleterEEbRKSt10unique_ptrIT_T0_EDn
0000000000000000 W _Z3endI19stack_st_SSL_CIPHERENSt9enable_ifIXsrN4bssl8internal11StackTraitsIT_EE8kIsStackENS3_17StackIteratorImplIS5_EEE4typeEPKS5_
0000000000000000 W _Z5beginI19stack_st_SSL_CIPHERENSt9enable_ifIXsrN4bssl8internal11StackTraitsIT_EE8kIsStackENS3_17StackIteratorImplIS5_EEE4typeEPKS5_
0000000000000000 r _ZL13kECDHEHintTag
0000000000000000 r _ZL13kIgnorePSKTag
0000000000000000 r _ZL15kRenewTicketTag
0000000000000000 r _ZL16kDecryptedPSKTag
0000000000000000 r _ZL16kIgnoreTicketTag
0000000000000000 r _ZL16kKeyShareHintTag
0000000000000000 r _ZL17kSignatureHintTag
0000000000000000 r _ZL19kDecryptedTicketTag
0000000000000000 r _ZL21kServerRandomTLS12Tag
0000000000000000 r _ZL21kServerRandomTLS13Tag
0000000000000000 r _ZL23kCompressCertificateTag
0000000000000000 t _ZL26get_optional_implicit_nullP6cbs_stPbj
                 U _ZN4bssl10AllCiphersEv
0000000000000000 W _ZN4bssl10ALPSConfigD1Ev
0000000000000000 W _ZN4bssl10ALPSConfigD2Ev
0000000000000000 n _ZN4bssl10ALPSConfigD5Ev
0000000000000000 W _ZN4bssl10MakeUniqueINS_19SSL_HANDSHAKE_HINTSEJEEESt10unique_ptrIT_NS_8internal7DeleterEEDpOT0_
0000000000000000 W _ZN4bssl10MakeUniqueINS_23SSLCipherPreferenceListEJEEESt10unique_ptrIT_NS_8internal7DeleterEEDpOT0_
                 U _ZN4bssl11NamedGroupsEv
                 U _ZN4bssl11SSLKeyShare6CreateEt
0000000000000000 W _ZN4bssl13GrowableArrayINS_10ALPSConfigEE5clearEv
0000000000000000 W _ZN4bssl13MakeConstSpanIKhEENS_4SpanIKT_EEPS3_m
                 U _ZN4bssl13SSL_HANDSHAKE13ResizeSecretsEm
0000000000000000 W _ZN4bssl13SSL_HANDSHAKE20early_traffic_secretEv
0000000000000000 W _ZN4bssl13SSL_HANDSHAKE23client_handshake_secretEv
0000000000000000 W _ZN4bssl13SSL_HANDSHAKE23client_traffic_secret_0Ev
0000000000000000 W _ZN4bssl13SSL_HANDSHAKE23server_handshake_secretEv
0000000000000000 W _ZN4bssl13SSL_HANDSHAKE23server_traffic_secret_0Ev
0000000000000000 W _ZN4bssl13SSL_HANDSHAKE6secretEv
                 U _ZN4bssl13SSL_HANDSHAKED1Ev
                 U _ZN4bssl13SSLTranscript4InitEv
                 U _ZN4bssl13SSLTranscript6UpdateENS_4SpanIKhEE
                 U _ZN4bssl13SSLTranscript8InitHashEtPK13ssl_cipher_st
                 U _ZN4bssl14SSLAEADContext22SetVersionIfNullCipherEt
0000000000000000 T _ZN4bssl17SSL_apply_handoffEP6ssl_stNS_4SpanIKhEE
                 U _ZN4bssl17ssl_handshake_newEP6ssl_st
                 U _ZN4bssl17SSL_SESSION_parseEP6cbs_stPKNS_15SSL_X509_METHODEP21crypto_buffer_pool_st
0000000000000000 T _ZN4bssl18SSL_apply_handbackEP6ssl_stNS_4SpanIKhEE
                 U _ZN4bssl18tls1_get_grouplistEPKNS_13SSL_HANDSHAKEE
0000000000000000 T _ZN4bssl19SSL_decline_handoffEP6ssl_st
0000000000000000 W _ZN4bssl19SSL_HANDSHAKE_HINTSC1Ev
0000000000000000 W _ZN4bssl19SSL_HANDSHAKE_HINTSC2Ev
0000000000000000 n _ZN4bssl19SSL_HANDSHAKE_HINTSC5Ev
0000000000000000 W _ZN4bssl19SSL_HANDSHAKE_HINTSD1Ev
0000000000000000 W _ZN4bssl19SSL_HANDSHAKE_HINTSD2Ev
0000000000000000 n _ZN4bssl19SSL_HANDSHAKE_HINTSD5Ev
                 U _ZN4bssl19tls1_configure_aeadEP6ssl_st20evp_aead_direction_tPNS_5ArrayIhEEPK14ssl_session_stNS_4SpanIKhEE
                 U _ZN4bssl20ssl_protocol_versionEPK6ssl_st
                 U _ZN4bssl20ssl_server_handshakeEPNS_13SSL_HANDSHAKEE
                 U _ZN4bssl21ssl_client_hello_initEPK6ssl_stP22ssl_early_callback_ctxNS_4SpanIKhEE
0000000000000000 T _ZN4bssl21SSL_serialize_handoffEPK6ssl_stP6cbb_stP22ssl_early_callback_ctx
                 U _ZN4bssl21ssl_session_serializeEPK14ssl_session_stP6cbb_st
                 U _ZN4bssl21tls13_set_traffic_keyEP6ssl_st22ssl_encryption_level_t20evp_aead_direction_tPK14ssl_session_stNS_4SpanIKhEE
0000000000000000 T _ZN4bssl22SSL_serialize_handbackEPK6ssl_stP6cbb_st
                 U _ZN4bssl23SSLCipherPreferenceList4InitERKS0_
                 U _ZN4bssl23SSLCipherPreferenceList6RemoveEPK13ssl_cipher_st
0000000000000000 W _ZN4bssl23SSLCipherPreferenceListC1Ev
0000000000000000 W _ZN4bssl23SSLCipherPreferenceListC2Ev
0000000000000000 n _ZN4bssl23SSLCipherPreferenceListC5Ev
                 U _ZN4bssl23SSLCipherPreferenceListD1Ev
                 U _ZN4bssl27ssl_method_supports_versionEPKNS_19SSL_PROTOCOL_METHODEt
0000000000000000 W _ZN4bssl3NewINS_19SSL_HANDSHAKE_HINTSEJEEEPT_DpOT0_
0000000000000000 W _ZN4bssl3NewINS_23SSLCipherPreferenceListEJEEEPT_DpOT0_
0000000000000000 W _ZN4bssl4SpanIhEC1EPhm
0000000000000000 W _ZN4bssl4SpanIhEC1ILm8EEERAT__h
0000000000000000 W _ZN4bssl4SpanIhEC2EPhm
0000000000000000 W _ZN4bssl4SpanIhEC2ILm8EEERAT__h
0000000000000000 n _ZN4bssl4SpanIhEC5EPhm
0000000000000000 n _ZN4bssl4SpanIhEC5ILm8EEERAT__h
0000000000000000 W _ZN4bssl4SpanIKhEC1EPS1_m
0000000000000000 W _ZN4bssl4SpanIKhEC1INS0_IhEEvS4_EERKT_
0000000000000000 W _ZN4bssl4SpanIKhEC2INS0_IhEEvS4_EERKT_
0000000000000000 n _ZN4bssl4SpanIKhEC5INS0_IhEEvS4_EERKT_
0000000000000000 W _ZN4bssl5ArrayIhE4dataEv
0000000000000000 W _ZN4bssl5ArrayIhE4InitEm
0000000000000000 W _ZN4bssl5ArrayIhE5ResetEPhm
0000000000000000 W _ZN4bssl5ArrayIhE5ResetEv
0000000000000000 W _ZN4bssl5ArrayIhE8CopyFromENS_4SpanIKhEE
0000000000000000 W _ZN4bssl5ArrayIhEC1Ev
0000000000000000 W _ZN4bssl5ArrayIhEC2Ev
0000000000000000 n _ZN4bssl5ArrayIhEC5Ev
0000000000000000 W _ZN4bssl5ArrayIhED1Ev
0000000000000000 W _ZN4bssl5ArrayIhED2Ev
0000000000000000 n _ZN4bssl5ArrayIhED5Ev
0000000000000000 W _ZN4bssl5ArrayINS_10ALPSConfigEE5ResetEPS1_m
0000000000000000 W _ZN4bssl5ArrayINS_10ALPSConfigEE5ResetEv
0000000000000000 W _ZN4bssl5ArrayItE3endEv
0000000000000000 W _ZN4bssl5ArrayItE4InitEm
0000000000000000 W _ZN4bssl5ArrayItE5beginEv
0000000000000000 W _ZN4bssl5ArrayItE5ResetEPtm
0000000000000000 W _ZN4bssl5ArrayItE5ResetEv
0000000000000000 W _ZN4bssl5ArrayItE6ShrinkEm
0000000000000000 W _ZN4bssl5ArrayItE7ReleaseEPPtPm
0000000000000000 W _ZN4bssl5ArrayItEaSEOS1_
0000000000000000 W _ZN4bssl5ArrayItEC1Ev
0000000000000000 W _ZN4bssl5ArrayItEC2Ev
0000000000000000 n _ZN4bssl5ArrayItEC5Ev
0000000000000000 W _ZN4bssl5ArrayItED1Ev
0000000000000000 W _ZN4bssl5ArrayItED2Ev
0000000000000000 n _ZN4bssl5ArrayItED5Ev
0000000000000000 W _ZN4bssl5ArrayItEixEm
0000000000000000 W _ZN4bssl6DeleteINS_11SSLKeyShareEEEvPT_
0000000000000000 W _ZN4bssl6DeleteINS_13SSL_HANDSHAKEEEEvPT_
0000000000000000 W _ZN4bssl6DeleteINS_19SSL_HANDSHAKE_HINTSEEEvPT_
0000000000000000 W _ZN4bssl6DeleteINS_23SSLCipherPreferenceListEEEvPT_
0000000000000000 W _ZN4bssl8internal11DeleterImplI10buf_mem_stvE4FreeEPS2_
0000000000000000 W _ZN4bssl8internal11DeleterImplI14ssl_session_stvE4FreeEPS2_
0000000000000000 W _ZN4bssl8internal11DeleterImplI19stack_st_SSL_CIPHERvE4FreeEPS2_
0000000000000000 W _ZN4bssl8internal11DeleterImplIcvE4FreeEPc
0000000000000000 W _ZN4bssl8internal11DeleterImplINS_11SSLKeyShareEvE4FreeEPS2_
0000000000000000 W _ZN4bssl8internal11DeleterImplINS_13SSL_HANDSHAKEEvE4FreeEPS2_
0000000000000000 W _ZN4bssl8internal11DeleterImplINS_19SSL_HANDSHAKE_HINTSEvE4FreeEPS2_
0000000000000000 W _ZN4bssl8internal11DeleterImplINS_23SSLCipherPreferenceListEvE4FreeEPS2_
0000000000000000 W _ZN4bssl8internal14StackAllocatedI6cbb_stvXadL_Z8CBB_zeroEEXadL_Z11CBB_cleanupEEE3getEv
0000000000000000 W _ZN4bssl8internal14StackAllocatedI6cbb_stvXadL_Z8CBB_zeroEEXadL_Z11CBB_cleanupEEEC1Ev
0000000000000000 W _ZN4bssl8internal14StackAllocatedI6cbb_stvXadL_Z8CBB_zeroEEXadL_Z11CBB_cleanupEEEC2Ev
0000000000000000 n _ZN4bssl8internal14StackAllocatedI6cbb_stvXadL_Z8CBB_zeroEEXadL_Z11CBB_cleanupEEEC5Ev
0000000000000000 W _ZN4bssl8internal14StackAllocatedI6cbb_stvXadL_Z8CBB_zeroEEXadL_Z11CBB_cleanupEEED1Ev
0000000000000000 W _ZN4bssl8internal14StackAllocatedI6cbb_stvXadL_Z8CBB_zeroEEXadL_Z11CBB_cleanupEEED2Ev
0000000000000000 n _ZN4bssl8internal14StackAllocatedI6cbb_stvXadL_Z8CBB_zeroEEXadL_Z11CBB_cleanupEEED5Ev
0000000000000000 W _ZN4bssl8internal17StackIteratorImplI19stack_st_SSL_CIPHEREC1EPKS2_m
0000000000000000 W _ZN4bssl8internal17StackIteratorImplI19stack_st_SSL_CIPHEREC2EPKS2_m
0000000000000000 n _ZN4bssl8internal17StackIteratorImplI19stack_st_SSL_CIPHEREC5EPKS2_m
0000000000000000 W _ZN4bssl8internal17StackIteratorImplI19stack_st_SSL_CIPHEREppEv
0000000000000000 W _ZN4bssl8internal7DeleterclI10buf_mem_stEEvPT_
0000000000000000 W _ZN4bssl8internal7DeleterclI14ssl_session_stEEvPT_
0000000000000000 W _ZN4bssl8internal7DeleterclI19stack_st_SSL_CIPHEREEvPT_
0000000000000000 W _ZN4bssl8internal7DeleterclIcEEvPT_
0000000000000000 W _ZN4bssl8internal7DeleterclINS_11SSLKeyShareEEEvPT_
0000000000000000 W _ZN4bssl8internal7DeleterclINS_13SSL_HANDSHAKEEEEvPT_
0000000000000000 W _ZN4bssl8internal7DeleterclINS_19SSL_HANDSHAKE_HINTSEEEvPT_
0000000000000000 W _ZN4bssl8internal7DeleterclINS_23SSLCipherPreferenceListEEEvPT_
0000000000000000 W _ZN4bssl8MakeSpanIhEENS_4SpanIT_EEPS2_m
0000000000000000 r _ZN4bsslL11kMaxTicketsE
0000000000000000 r _ZN4bsslL15kHandoffTagALPSE
0000000000000000 r _ZN4bsslL15kHandoffVersionE
0000000000000000 r _ZN4bsslL16kHandbackVersionE
0000000000000000 t _ZN4bsslL18serialize_featuresEP6cbb_st
0000000000000000 t _ZN4bsslL21apply_remote_featuresEP6ssl_stP6cbs_st
0000000000000000 r _ZN4bsslL21kMaxEarlyDataAcceptedE
0000000000000000 t _ZN4bsslL23uses_disallowed_featureEPK6ssl_st
0000000000000000 t _ZN4bsslL9CopyExactENS_4SpanIhEEPK6cbs_st
0000000000000000 W _ZN6cbs_stC1EN4bssl4SpanIKhEE
0000000000000000 W _ZN6cbs_stC2EN4bssl4SpanIKhEE
0000000000000000 n _ZN6cbs_stC5EN4bssl4SpanIKhEE
0000000000000000 r _ZN9__gnu_cxxL21__default_lock_policyE
0000000000000000 W _ZNK4bssl13SSLTranscript6bufferEv
                 U _ZNK4bssl13SSLTranscript9DigestLenEv
                 U _ZNK4bssl14SSLAEADContext5GetIVEPPKhPm
0000000000000000 W _ZNK4bssl14SSLAEADContext6cipherEv
0000000000000000 W _ZNK4bssl4SpanIhE4dataEv
0000000000000000 W _ZNK4bssl4SpanIhE4sizeEv
0000000000000000 W _ZNK4bssl4SpanIK13ssl_cipher_stE3endEv
0000000000000000 W _ZNK4bssl4SpanIK13ssl_cipher_stE5beginEv
0000000000000000 W _ZNK4bssl4SpanIKhE4dataEv
0000000000000000 W _ZNK4bssl4SpanIKhE4sizeEv
0000000000000000 W _ZNK4bssl4SpanIKNS_10NamedGroupEE3endEv
0000000000000000 W _ZNK4bssl4SpanIKNS_10NamedGroupEE5beginEv
0000000000000000 W _ZNK4bssl4SpanIKtE3endEv
0000000000000000 W _ZNK4bssl4SpanIKtE4sizeEv
0000000000000000 W _ZNK4bssl4SpanIKtE5beginEv
0000000000000000 W _ZNK4bssl5ArrayIhE4dataEv
0000000000000000 W _ZNK4bssl5ArrayIhE4sizeEv
0000000000000000 W _ZNK4bssl5ArrayIhE5emptyEv
0000000000000000 W _ZNK4bssl8internal17StackIteratorImplI19stack_st_SSL_CIPHEREdeEv
0000000000000000 W _ZNK4bssl8internal17StackIteratorImplI19stack_st_SSL_CIPHEREeqES3_
0000000000000000 W _ZNK4bssl8internal17StackIteratorImplI19stack_st_SSL_CIPHEREneES3_
0000000000000000 W _ZNK6cbs_stcvN4bssl4SpanIKhEEEv
0000000000000000 W _ZNKSt10unique_ptrI10buf_mem_stN4bssl8internal7DeleterEE3getEv
0000000000000000 W _ZNKSt10unique_ptrI10buf_mem_stN4bssl8internal7DeleterEEcvbEv
0000000000000000 W _ZNKSt10unique_ptrI10buf_mem_stN4bssl8internal7DeleterEEptEv
0000000000000000 W _ZNKSt10unique_ptrI10ssl_ctx_stN4bssl8internal7DeleterEE3getEv
0000000000000000 W _ZNKSt10unique_ptrI10ssl_ctx_stN4bssl8internal7DeleterEEptEv
0000000000000000 W _ZNKSt10unique_ptrI14ssl_session_stN4bssl8internal7DeleterEE3getEv
0000000000000000 W _ZNKSt10unique_ptrI15ssl_ech_keys_stN4bssl8internal7DeleterEE3getEv
0000000000000000 W _ZNKSt10unique_ptrI15ssl_ech_keys_stN4bssl8internal7DeleterEEcvbEv
0000000000000000 W _ZNKSt10unique_ptrI19stack_st_SSL_CIPHERN4bssl8internal7DeleterEE3getEv
0000000000000000 W _ZNKSt10unique_ptrI19stack_st_SSL_CIPHERN4bssl8internal7DeleterEEcvbEv
0000000000000000 W _ZNKSt10unique_ptrIcN4bssl8internal7DeleterEE3getEv
0000000000000000 W _ZNKSt10unique_ptrIcN4bssl8internal7DeleterEEcvbEv
0000000000000000 W _ZNKSt10unique_ptrIN4bssl10SSL_CONFIGENS0_8internal7DeleterEE3getEv
0000000000000000 W _ZNKSt10unique_ptrIN4bssl10SSL_CONFIGENS0_8internal7DeleterEEptEv
0000000000000000 W _ZNKSt10unique_ptrIN4bssl11SSLKeyShareENS0_8internal7DeleterEE3getEv
0000000000000000 W _ZNKSt10unique_ptrIN4bssl11SSLKeyShareENS0_8internal7DeleterEEcvbEv
0000000000000000 W _ZNKSt10unique_ptrIN4bssl11SSLKeyShareENS0_8internal7DeleterEEptEv
0000000000000000 W _ZNKSt10unique_ptrIN4bssl13SSL_HANDSHAKEENS0_8internal7DeleterEE3getEv
0000000000000000 W _ZNKSt10unique_ptrIN4bssl13SSL_HANDSHAKEENS0_8internal7DeleterEEcvbEv
0000000000000000 W _ZNKSt10unique_ptrIN4bssl13SSL_HANDSHAKEENS0_8internal7DeleterEEptEv
0000000000000000 W _ZNKSt10unique_ptrIN4bssl14SSLAEADContextENS0_8internal7DeleterEE3getEv
0000000000000000 W _ZNKSt10unique_ptrIN4bssl14SSLAEADContextENS0_8internal7DeleterEEptEv
0000000000000000 W _ZNKSt10unique_ptrIN4bssl19SSL_HANDSHAKE_HINTSENS0_8internal7DeleterEE3getEv
0000000000000000 W _ZNKSt10unique_ptrIN4bssl19SSL_HANDSHAKE_HINTSENS0_8internal7DeleterEEcvbEv
0000000000000000 W _ZNKSt10unique_ptrIN4bssl19SSL_HANDSHAKE_HINTSENS0_8internal7DeleterEEptEv
0000000000000000 W _ZNKSt10unique_ptrIN4bssl23SSLCipherPreferenceListENS0_8internal7DeleterEE3getEv
0000000000000000 W _ZNKSt10unique_ptrIN4bssl23SSLCipherPreferenceListENS0_8internal7DeleterEEcvbEv
0000000000000000 W _ZNKSt10unique_ptrIN4bssl23SSLCipherPreferenceListENS0_8internal7DeleterEEdeEv
0000000000000000 W _ZNKSt10unique_ptrIN4bssl23SSLCipherPreferenceListENS0_8internal7DeleterEEptEv
0000000000000000 W _ZNKSt10unique_ptrIN4bssl2DCENS0_8internal7DeleterEE3getEv
0000000000000000 W _ZNKSt10unique_ptrIN4bssl2DCENS0_8internal7DeleterEEcvbEv
0000000000000000 W _ZNKSt10unique_ptrIN4bssl4CERTENS0_8internal7DeleterEE3getEv
0000000000000000 W _ZNKSt10unique_ptrIN4bssl4CERTENS0_8internal7DeleterEEcvbEv
0000000000000000 W _ZNKSt10unique_ptrIN4bssl4CERTENS0_8internal7DeleterEEptEv
0000000000000000 W _ZNKSt15__uniq_ptr_implI10buf_mem_stN4bssl8internal7DeleterEE6_M_ptrEv
0000000000000000 W _ZNKSt15__uniq_ptr_implI10ssl_ctx_stN4bssl8internal7DeleterEE6_M_ptrEv
0000000000000000 W _ZNKSt15__uniq_ptr_implI14ssl_session_stN4bssl8internal7DeleterEE6_M_ptrEv
0000000000000000 W _ZNKSt15__uniq_ptr_implI15ssl_ech_keys_stN4bssl8internal7DeleterEE6_M_ptrEv
0000000000000000 W _ZNKSt15__uniq_ptr_implI19stack_st_SSL_CIPHERN4bssl8internal7DeleterEE6_M_ptrEv
0000000000000000 W _ZNKSt15__uniq_ptr_implIcN4bssl8internal7DeleterEE6_M_ptrEv
0000000000000000 W _ZNKSt15__uniq_ptr_implIN4bssl10SSL_CONFIGENS0_8internal7DeleterEE6_M_ptrEv
0000000000000000 W _ZNKSt15__uniq_ptr_implIN4bssl11SSLKeyShareENS0_8internal7DeleterEE6_M_ptrEv
0000000000000000 W _ZNKSt15__uniq_ptr_implIN4bssl13SSL_HANDSHAKEENS0_8internal7DeleterEE6_M_ptrEv
0000000000000000 W _ZNKSt15__uniq_ptr_implIN4bssl14SSLAEADContextENS0_8internal7DeleterEE6_M_ptrEv
0000000000000000 W _ZNKSt15__uniq_ptr_implIN4bssl19SSL_HANDSHAKE_HINTSENS0_8internal7DeleterEE6_M_ptrEv
0000000000000000 W _ZNKSt15__uniq_ptr_implIN4bssl23SSLCipherPreferenceListENS0_8internal7DeleterEE6_M_ptrEv
0000000000000000 W _ZNKSt15__uniq_ptr_implIN4bssl2DCENS0_8internal7DeleterEE6_M_ptrEv
0000000000000000 W _ZNKSt15__uniq_ptr_implIN4bssl4CERTENS0_8internal7DeleterEE6_M_ptrEv
0000000000000000 W _ZNSt10_Head_baseILm0EP10buf_mem_stLb0EE7_M_headERKS2_
0000000000000000 W _ZNSt10_Head_baseILm0EP10buf_mem_stLb0EE7_M_headERS2_
0000000000000000 W _ZNSt10_Head_baseILm0EP10ssl_ctx_stLb0EE7_M_headERKS2_
0000000000000000 W _ZNSt10_Head_baseILm0EP14ssl_session_stLb0EE7_M_headERKS2_
0000000000000000 W _ZNSt10_Head_baseILm0EP14ssl_session_stLb0EE7_M_headERS2_
0000000000000000 W _ZNSt10_Head_baseILm0EP15ssl_ech_keys_stLb0EE7_M_headERKS2_
0000000000000000 W _ZNSt10_Head_baseILm0EP19stack_st_SSL_CIPHERLb0EE7_M_headERKS2_
0000000000000000 W _ZNSt10_Head_baseILm0EP19stack_st_SSL_CIPHERLb0EE7_M_headERS2_
0000000000000000 W _ZNSt10_Head_baseILm0EP19stack_st_SSL_CIPHERLb0EEC1Ev
0000000000000000 W _ZNSt10_Head_baseILm0EP19stack_st_SSL_CIPHERLb0EEC2Ev
0000000000000000 n _ZNSt10_Head_baseILm0EP19stack_st_SSL_CIPHERLb0EEC5Ev
0000000000000000 W _ZNSt10_Head_baseILm0EPcLb0EE7_M_headERKS1_
0000000000000000 W _ZNSt10_Head_baseILm0EPcLb0EE7_M_headERS1_
0000000000000000 W _ZNSt10_Head_baseILm0EPN4bssl10SSL_CONFIGELb0EE7_M_headERKS3_
0000000000000000 W _ZNSt10_Head_baseILm0EPN4bssl11SSLKeyShareELb0EE7_M_headERKS3_
0000000000000000 W _ZNSt10_Head_baseILm0EPN4bssl11SSLKeyShareELb0EE7_M_headERS3_
0000000000000000 W _ZNSt10_Head_baseILm0EPN4bssl13SSL_HANDSHAKEELb0EE7_M_headERKS3_
0000000000000000 W _ZNSt10_Head_baseILm0EPN4bssl13SSL_HANDSHAKEELb0EE7_M_headERS3_
0000000000000000 W _ZNSt10_Head_baseILm0EPN4bssl14SSLAEADContextELb0EE7_M_headERKS3_
0000000000000000 W _ZNSt10_Head_baseILm0EPN4bssl19SSL_HANDSHAKE_HINTSELb0EE7_M_headERKS3_
0000000000000000 W _ZNSt10_Head_baseILm0EPN4bssl19SSL_HANDSHAKE_HINTSELb0EE7_M_headERS3_
0000000000000000 W _ZNSt10_Head_baseILm0EPN4bssl19SSL_HANDSHAKE_HINTSELb0EEC1Ev
0000000000000000 W _ZNSt10_Head_baseILm0EPN4bssl19SSL_HANDSHAKE_HINTSELb0EEC2Ev
0000000000000000 n _ZNSt10_Head_baseILm0EPN4bssl19SSL_HANDSHAKE_HINTSELb0EEC5Ev
0000000000000000 W _ZNSt10_Head_baseILm0EPN4bssl23SSLCipherPreferenceListELb0EE7_M_headERKS3_
0000000000000000 W _ZNSt10_Head_baseILm0EPN4bssl23SSLCipherPreferenceListELb0EE7_M_headERS3_
0000000000000000 W _ZNSt10_Head_baseILm0EPN4bssl23SSLCipherPreferenceListELb0EEC1Ev
0000000000000000 W _ZNSt10_Head_baseILm0EPN4bssl23SSLCipherPreferenceListELb0EEC2Ev
0000000000000000 n _ZNSt10_Head_baseILm0EPN4bssl23SSLCipherPreferenceListELb0EEC5Ev
0000000000000000 W _ZNSt10_Head_baseILm0EPN4bssl2DCELb0EE7_M_headERKS3_
0000000000000000 W _ZNSt10_Head_baseILm0EPN4bssl4CERTELb0EE7_M_headERKS3_
0000000000000000 W _ZNSt10_Head_baseILm1EN4bssl8internal7DeleterELb1EE7_M_headERS3_
0000000000000000 W _ZNSt10_Head_baseILm1EN4bssl8internal7DeleterELb1EEC1Ev
0000000000000000 W _ZNSt10_Head_baseILm1EN4bssl8internal7DeleterELb1EEC2Ev
0000000000000000 n _ZNSt10_Head_baseILm1EN4bssl8internal7DeleterELb1EEC5Ev
0000000000000000 W _ZNSt10unique_ptrI10buf_mem_stN4bssl8internal7DeleterEE11get_deleterEv
0000000000000000 W _ZNSt10unique_ptrI10buf_mem_stN4bssl8internal7DeleterEE5resetEPS0_
0000000000000000 W _ZNSt10unique_ptrI14ssl_session_stN4bssl8internal7DeleterEE11get_deleterEv
0000000000000000 W _ZNSt10unique_ptrI14ssl_session_stN4bssl8internal7DeleterEE5resetEPS0_
0000000000000000 W _ZNSt10unique_ptrI14ssl_session_stN4bssl8internal7DeleterEE7releaseEv
0000000000000000 W _ZNSt10unique_ptrI14ssl_session_stN4bssl8internal7DeleterEEaSEOS4_
0000000000000000 W _ZNSt10unique_ptrI14ssl_session_stN4bssl8internal7DeleterEED1Ev
0000000000000000 W _ZNSt10unique_ptrI14ssl_session_stN4bssl8internal7DeleterEED2Ev
0000000000000000 n _ZNSt10unique_ptrI14ssl_session_stN4bssl8internal7DeleterEED5Ev
0000000000000000 W _ZNSt10unique_ptrI19stack_st_SSL_CIPHERN4bssl8internal7DeleterEE11get_deleterEv
0000000000000000 W _ZNSt10unique_ptrI19stack_st_SSL_CIPHERN4bssl8internal7DeleterEEC1IS3_vEEPS0_
0000000000000000 W _ZNSt10unique_ptrI19stack_st_SSL_CIPHERN4bssl8internal7DeleterEEC1IS3_vEEv
0000000000000000 W _ZNSt10unique_ptrI19stack_st_SSL_CIPHERN4bssl8internal7DeleterEEC2IS3_vEEPS0_
0000000000000000 W _ZNSt10unique_ptrI19stack_st_SSL_CIPHERN4bssl8internal7DeleterEEC2IS3_vEEv
0000000000000000 n _ZNSt10unique_ptrI19stack_st_SSL_CIPHERN4bssl8internal7DeleterEEC5IS3_vEEPS0_
0000000000000000 n _ZNSt10unique_ptrI19stack_st_SSL_CIPHERN4bssl8internal7DeleterEEC5IS3_vEEv
0000000000000000 W _ZNSt10unique_ptrI19stack_st_SSL_CIPHERN4bssl8internal7DeleterEED1Ev
0000000000000000 W _ZNSt10unique_ptrI19stack_st_SSL_CIPHERN4bssl8internal7DeleterEED2Ev
0000000000000000 n _ZNSt10unique_ptrI19stack_st_SSL_CIPHERN4bssl8internal7DeleterEED5Ev
0000000000000000 W _ZNSt10unique_ptrIcN4bssl8internal7DeleterEE11get_deleterEv
0000000000000000 W _ZNSt10unique_ptrIcN4bssl8internal7DeleterEE5resetEPc
0000000000000000 W _ZNSt10unique_ptrIN4bssl11SSLKeyShareENS0_8internal7DeleterEE11get_deleterEv
0000000000000000 W _ZNSt10unique_ptrIN4bssl11SSLKeyShareENS0_8internal7DeleterEE5resetEPS1_
0000000000000000 W _ZNSt10unique_ptrIN4bssl11SSLKeyShareENS0_8internal7DeleterEE7releaseEv
0000000000000000 W _ZNSt10unique_ptrIN4bssl11SSLKeyShareENS0_8internal7DeleterEEaSEOS4_
0000000000000000 W _ZNSt10unique_ptrIN4bssl11SSLKeyShareENS0_8internal7DeleterEED1Ev
0000000000000000 W _ZNSt10unique_ptrIN4bssl11SSLKeyShareENS0_8internal7DeleterEED2Ev
0000000000000000 n _ZNSt10unique_ptrIN4bssl11SSLKeyShareENS0_8internal7DeleterEED5Ev
0000000000000000 W _ZNSt10unique_ptrIN4bssl13SSL_HANDSHAKEENS0_8internal7DeleterEE11get_deleterEv
0000000000000000 W _ZNSt10unique_ptrIN4bssl13SSL_HANDSHAKEENS0_8internal7DeleterEE5resetEPS1_
0000000000000000 W _ZNSt10unique_ptrIN4bssl13SSL_HANDSHAKEENS0_8internal7DeleterEE7releaseEv
0000000000000000 W _ZNSt10unique_ptrIN4bssl13SSL_HANDSHAKEENS0_8internal7DeleterEEaSEOS4_
0000000000000000 W _ZNSt10unique_ptrIN4bssl13SSL_HANDSHAKEENS0_8internal7DeleterEED1Ev
0000000000000000 W _ZNSt10unique_ptrIN4bssl13SSL_HANDSHAKEENS0_8internal7DeleterEED2Ev
0000000000000000 n _ZNSt10unique_ptrIN4bssl13SSL_HANDSHAKEENS0_8internal7DeleterEED5Ev
0000000000000000 W _ZNSt10unique_ptrIN4bssl19SSL_HANDSHAKE_HINTSENS0_8internal7DeleterEE11get_deleterEv
0000000000000000 W _ZNSt10unique_ptrIN4bssl19SSL_HANDSHAKE_HINTSENS0_8internal7DeleterEE5resetEPS1_
0000000000000000 W _ZNSt10unique_ptrIN4bssl19SSL_HANDSHAKE_HINTSENS0_8internal7DeleterEE7releaseEv
0000000000000000 W _ZNSt10unique_ptrIN4bssl19SSL_HANDSHAKE_HINTSENS0_8internal7DeleterEEaSEOS4_
0000000000000000 W _ZNSt10unique_ptrIN4bssl19SSL_HANDSHAKE_HINTSENS0_8internal7DeleterEEC1IS3_vEEPS1_
0000000000000000 W _ZNSt10unique_ptrIN4bssl19SSL_HANDSHAKE_HINTSENS0_8internal7DeleterEEC2IS3_vEEPS1_
0000000000000000 n _ZNSt10unique_ptrIN4bssl19SSL_HANDSHAKE_HINTSENS0_8internal7DeleterEEC5IS3_vEEPS1_
0000000000000000 W _ZNSt10unique_ptrIN4bssl19SSL_HANDSHAKE_HINTSENS0_8internal7DeleterEED1Ev
0000000000000000 W _ZNSt10unique_ptrIN4bssl19SSL_HANDSHAKE_HINTSENS0_8internal7DeleterEED2Ev
0000000000000000 n _ZNSt10unique_ptrIN4bssl19SSL_HANDSHAKE_HINTSENS0_8internal7DeleterEED5Ev
0000000000000000 W _ZNSt10unique_ptrIN4bssl23SSLCipherPreferenceListENS0_8internal7DeleterEE11get_deleterEv
0000000000000000 W _ZNSt10unique_ptrIN4bssl23SSLCipherPreferenceListENS0_8internal7DeleterEE5resetEPS1_
0000000000000000 W _ZNSt10unique_ptrIN4bssl23SSLCipherPreferenceListENS0_8internal7DeleterEE7releaseEv
0000000000000000 W _ZNSt10unique_ptrIN4bssl23SSLCipherPreferenceListENS0_8internal7DeleterEEaSEOS4_
0000000000000000 W _ZNSt10unique_ptrIN4bssl23SSLCipherPreferenceListENS0_8internal7DeleterEEC1IS3_vEEPS1_
0000000000000000 W _ZNSt10unique_ptrIN4bssl23SSLCipherPreferenceListENS0_8internal7DeleterEEC2IS3_vEEPS1_
0000000000000000 n _ZNSt10unique_ptrIN4bssl23SSLCipherPreferenceListENS0_8internal7DeleterEEC5IS3_vEEPS1_
0000000000000000 W _ZNSt10unique_ptrIN4bssl23SSLCipherPreferenceListENS0_8internal7DeleterEED1Ev
0000000000000000 W _ZNSt10unique_ptrIN4bssl23SSLCipherPreferenceListENS0_8internal7DeleterEED2Ev
0000000000000000 n _ZNSt10unique_ptrIN4bssl23SSLCipherPreferenceListENS0_8internal7DeleterEED5Ev
0000000000000000 W _ZNSt11_Tuple_implILm0EJP10buf_mem_stN4bssl8internal7DeleterEEE7_M_headERKS5_
0000000000000000 W _ZNSt11_Tuple_implILm0EJP10buf_mem_stN4bssl8internal7DeleterEEE7_M_headERS5_
0000000000000000 W _ZNSt11_Tuple_implILm0EJP10ssl_ctx_stN4bssl8internal7DeleterEEE7_M_headERKS5_
0000000000000000 W _ZNSt11_Tuple_implILm0EJP14ssl_session_stN4bssl8internal7DeleterEEE7_M_headERKS5_
0000000000000000 W _ZNSt11_Tuple_implILm0EJP14ssl_session_stN4bssl8internal7DeleterEEE7_M_headERS5_
0000000000000000 W _ZNSt11_Tuple_implILm0EJP15ssl_ech_keys_stN4bssl8internal7DeleterEEE7_M_headERKS5_
0000000000000000 W _ZNSt11_Tuple_implILm0EJP19stack_st_SSL_CIPHERN4bssl8internal7DeleterEEE7_M_headERKS5_
0000000000000000 W _ZNSt11_Tuple_implILm0EJP19stack_st_SSL_CIPHERN4bssl8internal7DeleterEEE7_M_headERS5_
0000000000000000 W _ZNSt11_Tuple_implILm0EJP19stack_st_SSL_CIPHERN4bssl8internal7DeleterEEEC1Ev
0000000000000000 W _ZNSt11_Tuple_implILm0EJP19stack_st_SSL_CIPHERN4bssl8internal7DeleterEEEC2Ev
0000000000000000 n _ZNSt11_Tuple_implILm0EJP19stack_st_SSL_CIPHERN4bssl8internal7DeleterEEEC5Ev
0000000000000000 W _ZNSt11_Tuple_implILm0EJPcN4bssl8internal7DeleterEEE7_M_headERKS4_
0000000000000000 W _ZNSt11_Tuple_implILm0EJPcN4bssl8internal7DeleterEEE7_M_headERS4_
0000000000000000 W _ZNSt11_Tuple_implILm0EJPN4bssl10SSL_CONFIGENS0_8internal7DeleterEEE7_M_headERKS5_
0000000000000000 W _ZNSt11_Tuple_implILm0EJPN4bssl11SSLKeyShareENS0_8internal7DeleterEEE7_M_headERKS5_
0000000000000000 W _ZNSt11_Tuple_implILm0EJPN4bssl11SSLKeyShareENS0_8internal7DeleterEEE7_M_headERS5_
0000000000000000 W _ZNSt11_Tuple_implILm0EJPN4bssl13SSL_HANDSHAKEENS0_8internal7DeleterEEE7_M_headERKS5_
0000000000000000 W _ZNSt11_Tuple_implILm0EJPN4bssl13SSL_HANDSHAKEENS0_8internal7DeleterEEE7_M_headERS5_
0000000000000000 W _ZNSt11_Tuple_implILm0EJPN4bssl14SSLAEADContextENS0_8internal7DeleterEEE7_M_headERKS5_
0000000000000000 W _ZNSt11_Tuple_implILm0EJPN4bssl19SSL_HANDSHAKE_HINTSENS0_8internal7DeleterEEE7_M_headERKS5_
0000000000000000 W _ZNSt11_Tuple_implILm0EJPN4bssl19SSL_HANDSHAKE_HINTSENS0_8internal7DeleterEEE7_M_headERS5_
0000000000000000 W _ZNSt11_Tuple_implILm0EJPN4bssl19SSL_HANDSHAKE_HINTSENS0_8internal7DeleterEEEC1Ev
0000000000000000 W _ZNSt11_Tuple_implILm0EJPN4bssl19SSL_HANDSHAKE_HINTSENS0_8internal7DeleterEEEC2Ev
0000000000000000 n _ZNSt11_Tuple_implILm0EJPN4bssl19SSL_HANDSHAKE_HINTSENS0_8internal7DeleterEEEC5Ev
0000000000000000 W _ZNSt11_Tuple_implILm0EJPN4bssl23SSLCipherPreferenceListENS0_8internal7DeleterEEE7_M_headERKS5_
0000000000000000 W _ZNSt11_Tuple_implILm0EJPN4bssl23SSLCipherPreferenceListENS0_8internal7DeleterEEE7_M_headERS5_
0000000000000000 W _ZNSt11_Tuple_implILm0EJPN4bssl23SSLCipherPreferenceListENS0_8internal7DeleterEEEC1Ev
0000000000000000 W _ZNSt11_Tuple_implILm0EJPN4bssl23SSLCipherPreferenceListENS0_8internal7DeleterEEEC2Ev
0000000000000000 n _ZNSt11_Tuple_implILm0EJPN4bssl23SSLCipherPreferenceListENS0_8internal7DeleterEEEC5Ev
0000000000000000 W _ZNSt11_Tuple_implILm0EJPN4bssl2DCENS0_8internal7DeleterEEE7_M_headERKS5_
0000000000000000 W _ZNSt11_Tuple_implILm0EJPN4bssl4CERTENS0_8internal7DeleterEEE7_M_headERKS5_
0000000000000000 W _ZNSt11_Tuple_implILm1EJN4bssl8internal7DeleterEEE7_M_headERS3_
0000000000000000 W _ZNSt11_Tuple_implILm1EJN4bssl8internal7DeleterEEEC1Ev
0000000000000000 W _ZNSt11_Tuple_implILm1EJN4bssl8internal7DeleterEEEC2Ev
0000000000000000 n _ZNSt11_Tuple_implILm1EJN4bssl8internal7DeleterEEEC5Ev
0000000000000000 W _ZNSt14numeric_limitsIiE3maxEv
0000000000000000 W _ZNSt14numeric_limitsIiE3minEv
0000000000000000 W _ZNSt14numeric_limitsImE3maxEv
0000000000000000 W _ZNSt15__uniq_ptr_implI10buf_mem_stN4bssl8internal7DeleterEE10_M_deleterEv
0000000000000000 W _ZNSt15__uniq_ptr_implI10buf_mem_stN4bssl8internal7DeleterEE6_M_ptrEv
0000000000000000 W _ZNSt15__uniq_ptr_implI14ssl_session_stN4bssl8internal7DeleterEE10_M_deleterEv
0000000000000000 W _ZNSt15__uniq_ptr_implI14ssl_session_stN4bssl8internal7DeleterEE6_M_ptrEv
0000000000000000 W _ZNSt15__uniq_ptr_implI19stack_st_SSL_CIPHERN4bssl8internal7DeleterEE10_M_deleterEv
0000000000000000 W _ZNSt15__uniq_ptr_implI19stack_st_SSL_CIPHERN4bssl8internal7DeleterEE6_M_ptrEv
0000000000000000 W _ZNSt15__uniq_ptr_implI19stack_st_SSL_CIPHERN4bssl8internal7DeleterEEC1EPS0_
0000000000000000 W _ZNSt15__uniq_ptr_implI19stack_st_SSL_CIPHERN4bssl8internal7DeleterEEC1Ev
0000000000000000 W _ZNSt15__uniq_ptr_implI19stack_st_SSL_CIPHERN4bssl8internal7DeleterEEC2EPS0_
0000000000000000 W _ZNSt15__uniq_ptr_implI19stack_st_SSL_CIPHERN4bssl8internal7DeleterEEC2Ev
0000000000000000 n _ZNSt15__uniq_ptr_implI19stack_st_SSL_CIPHERN4bssl8internal7DeleterEEC5EPS0_
0000000000000000 n _ZNSt15__uniq_ptr_implI19stack_st_SSL_CIPHERN4bssl8internal7DeleterEEC5Ev
0000000000000000 W _ZNSt15__uniq_ptr_implIcN4bssl8internal7DeleterEE10_M_deleterEv
0000000000000000 W _ZNSt15__uniq_ptr_implIcN4bssl8internal7DeleterEE6_M_ptrEv
0000000000000000 W _ZNSt15__uniq_ptr_implIN4bssl11SSLKeyShareENS0_8internal7DeleterEE10_M_deleterEv
0000000000000000 W _ZNSt15__uniq_ptr_implIN4bssl11SSLKeyShareENS0_8internal7DeleterEE6_M_ptrEv
0000000000000000 W _ZNSt15__uniq_ptr_implIN4bssl13SSL_HANDSHAKEENS0_8internal7DeleterEE10_M_deleterEv
0000000000000000 W _ZNSt15__uniq_ptr_implIN4bssl13SSL_HANDSHAKEENS0_8internal7DeleterEE6_M_ptrEv
0000000000000000 W _ZNSt15__uniq_ptr_implIN4bssl19SSL_HANDSHAKE_HINTSENS0_8internal7DeleterEE10_M_deleterEv
0000000000000000 W _ZNSt15__uniq_ptr_implIN4bssl19SSL_HANDSHAKE_HINTSENS0_8internal7DeleterEE6_M_ptrEv
0000000000000000 W _ZNSt15__uniq_ptr_implIN4bssl19SSL_HANDSHAKE_HINTSENS0_8internal7DeleterEEC1EPS1_
0000000000000000 W _ZNSt15__uniq_ptr_implIN4bssl19SSL_HANDSHAKE_HINTSENS0_8internal7DeleterEEC2EPS1_
0000000000000000 n _ZNSt15__uniq_ptr_implIN4bssl19SSL_HANDSHAKE_HINTSENS0_8internal7DeleterEEC5EPS1_
0000000000000000 W _ZNSt15__uniq_ptr_implIN4bssl23SSLCipherPreferenceListENS0_8internal7DeleterEE10_M_deleterEv
0000000000000000 W _ZNSt15__uniq_ptr_implIN4bssl23SSLCipherPreferenceListENS0_8internal7DeleterEE6_M_ptrEv
0000000000000000 W _ZNSt15__uniq_ptr_implIN4bssl23SSLCipherPreferenceListENS0_8internal7DeleterEEC1EPS1_
0000000000000000 W _ZNSt15__uniq_ptr_implIN4bssl23SSLCipherPreferenceListENS0_8internal7DeleterEEC2EPS1_
0000000000000000 n _ZNSt15__uniq_ptr_implIN4bssl23SSLCipherPreferenceListENS0_8internal7DeleterEEC5EPS1_
0000000000000000 W _ZNSt5tupleIJP19stack_st_SSL_CIPHERN4bssl8internal7DeleterEEEC1IS1_S4_Lb1EEEv
0000000000000000 W _ZNSt5tupleIJP19stack_st_SSL_CIPHERN4bssl8internal7DeleterEEEC2IS1_S4_Lb1EEEv
0000000000000000 n _ZNSt5tupleIJP19stack_st_SSL_CIPHERN4bssl8internal7DeleterEEEC5IS1_S4_Lb1EEEv
0000000000000000 W _ZNSt5tupleIJPN4bssl19SSL_HANDSHAKE_HINTSENS0_8internal7DeleterEEEC1IS2_S4_Lb1EEEv
0000000000000000 W _ZNSt5tupleIJPN4bssl19SSL_HANDSHAKE_HINTSENS0_8internal7DeleterEEEC2IS2_S4_Lb1EEEv
0000000000000000 n _ZNSt5tupleIJPN4bssl19SSL_HANDSHAKE_HINTSENS0_8internal7DeleterEEEC5IS2_S4_Lb1EEEv
0000000000000000 W _ZNSt5tupleIJPN4bssl23SSLCipherPreferenceListENS0_8internal7DeleterEEEC1IS2_S4_Lb1EEEv
0000000000000000 W _ZNSt5tupleIJPN4bssl23SSLCipherPreferenceListENS0_8internal7DeleterEEEC2IS2_S4_Lb1EEEv
0000000000000000 n _ZNSt5tupleIJPN4bssl23SSLCipherPreferenceListENS0_8internal7DeleterEEEC5IS2_S4_Lb1EEEv
0000000000000000 W _ZnwmPv
0000000000000000 W _ZSt12__get_helperILm0EP10buf_mem_stJN4bssl8internal7DeleterEEERKT0_RKSt11_Tuple_implIXT_EJS5_DpT1_EE
0000000000000000 W _ZSt12__get_helperILm0EP10buf_mem_stJN4bssl8internal7DeleterEEERT0_RSt11_Tuple_implIXT_EJS5_DpT1_EE
0000000000000000 W _ZSt12__get_helperILm0EP10ssl_ctx_stJN4bssl8internal7DeleterEEERKT0_RKSt11_Tuple_implIXT_EJS5_DpT1_EE
0000000000000000 W _ZSt12__get_helperILm0EP14ssl_session_stJN4bssl8internal7DeleterEEERKT0_RKSt11_Tuple_implIXT_EJS5_DpT1_EE
0000000000000000 W _ZSt12__get_helperILm0EP14ssl_session_stJN4bssl8internal7DeleterEEERT0_RSt11_Tuple_implIXT_EJS5_DpT1_EE
0000000000000000 W _ZSt12__get_helperILm0EP15ssl_ech_keys_stJN4bssl8internal7DeleterEEERKT0_RKSt11_Tuple_implIXT_EJS5_DpT1_EE
0000000000000000 W _ZSt12__get_helperILm0EP19stack_st_SSL_CIPHERJN4bssl8internal7DeleterEEERKT0_RKSt11_Tuple_implIXT_EJS5_DpT1_EE
0000000000000000 W _ZSt12__get_helperILm0EP19stack_st_SSL_CIPHERJN4bssl8internal7DeleterEEERT0_RSt11_Tuple_implIXT_EJS5_DpT1_EE
0000000000000000 W _ZSt12__get_helperILm0EPcJN4bssl8internal7DeleterEEERKT0_RKSt11_Tuple_implIXT_EJS4_DpT1_EE
0000000000000000 W _ZSt12__get_helperILm0EPcJN4bssl8internal7DeleterEEERT0_RSt11_Tuple_implIXT_EJS4_DpT1_EE
0000000000000000 W _ZSt12__get_helperILm0EPN4bssl10SSL_CONFIGEJNS0_8internal7DeleterEEERKT0_RKSt11_Tuple_implIXT_EJS5_DpT1_EE
0000000000000000 W _ZSt12__get_helperILm0EPN4bssl11SSLKeyShareEJNS0_8internal7DeleterEEERKT0_RKSt11_Tuple_implIXT_EJS5_DpT1_EE
0000000000000000 W _ZSt12__get_helperILm0EPN4bssl11SSLKeyShareEJNS0_8internal7DeleterEEERT0_RSt11_Tuple_implIXT_EJS5_DpT1_EE
0000000000000000 W _ZSt12__get_helperILm0EPN4bssl13SSL_HANDSHAKEEJNS0_8internal7DeleterEEERKT0_RKSt11_Tuple_implIXT_EJS5_DpT1_EE
0000000000000000 W _ZSt12__get_helperILm0EPN4bssl13SSL_HANDSHAKEEJNS0_8internal7DeleterEEERT0_RSt11_Tuple_implIXT_EJS5_DpT1_EE
0000000000000000 W _ZSt12__get_helperILm0EPN4bssl14SSLAEADContextEJNS0_8internal7DeleterEEERKT0_RKSt11_Tuple_implIXT_EJS5_DpT1_EE
0000000000000000 W _ZSt12__get_helperILm0EPN4bssl19SSL_HANDSHAKE_HINTSEJNS0_8internal7DeleterEEERKT0_RKSt11_Tuple_implIXT_EJS5_DpT1_EE
0000000000000000 W _ZSt12__get_helperILm0EPN4bssl19SSL_HANDSHAKE_HINTSEJNS0_8internal7DeleterEEERT0_RSt11_Tuple_implIXT_EJS5_DpT1_EE
0000000000000000 W _ZSt12__get_helperILm0EPN4bssl23SSLCipherPreferenceListEJNS0_8internal7DeleterEEERKT0_RKSt11_Tuple_implIXT_EJS5_DpT1_EE
0000000000000000 W _ZSt12__get_helperILm0EPN4bssl23SSLCipherPreferenceListEJNS0_8internal7DeleterEEERT0_RSt11_Tuple_implIXT_EJS5_DpT1_EE
0000000000000000 W _ZSt12__get_helperILm0EPN4bssl2DCEJNS0_8internal7DeleterEEERKT0_RKSt11_Tuple_implIXT_EJS5_DpT1_EE
0000000000000000 W _ZSt12__get_helperILm0EPN4bssl4CERTEJNS0_8internal7DeleterEEERKT0_RKSt11_Tuple_implIXT_EJS5_DpT1_EE
0000000000000000 W _ZSt12__get_helperILm1EN4bssl8internal7DeleterEJEERT0_RSt11_Tuple_implIXT_EJS3_DpT1_EE
0000000000000000 W _ZSt3getILm0EJP10buf_mem_stN4bssl8internal7DeleterEEERKNSt13tuple_elementIXT_ESt5tupleIJDpT0_EEE4typeERKS9_
0000000000000000 W _ZSt3getILm0EJP10buf_mem_stN4bssl8internal7DeleterEEERNSt13tuple_elementIXT_ESt5tupleIJDpT0_EEE4typeERS9_
0000000000000000 W _ZSt3getILm0EJP10ssl_ctx_stN4bssl8internal7DeleterEEERKNSt13tuple_elementIXT_ESt5tupleIJDpT0_EEE4typeERKS9_
0000000000000000 W _ZSt3getILm0EJP14ssl_session_stN4bssl8internal7DeleterEEERKNSt13tuple_elementIXT_ESt5tupleIJDpT0_EEE4typeERKS9_
0000000000000000 W _ZSt3getILm0EJP14ssl_session_stN4bssl8internal7DeleterEEERNSt13tuple_elementIXT_ESt5tupleIJDpT0_EEE4typeERS9_
0000000000000000 W _ZSt3getILm0EJP15ssl_ech_keys_stN4bssl8internal7DeleterEEERKNSt13tuple_elementIXT_ESt5tupleIJDpT0_EEE4typeERKS9_
0000000000000000 W _ZSt3getILm0EJP19stack_st_SSL_CIPHERN4bssl8internal7DeleterEEERKNSt13tuple_elementIXT_ESt5tupleIJDpT0_EEE4typeERKS9_
0000000000000000 W _ZSt3getILm0EJP19stack_st_SSL_CIPHERN4bssl8internal7DeleterEEERNSt13tuple_elementIXT_ESt5tupleIJDpT0_EEE4typeERS9_
0000000000000000 W _ZSt3getILm0EJPcN4bssl8internal7DeleterEEERKNSt13tuple_elementIXT_ESt5tupleIJDpT0_EEE4typeERKS8_
0000000000000000 W _ZSt3getILm0EJPcN4bssl8internal7DeleterEEERNSt13tuple_elementIXT_ESt5tupleIJDpT0_EEE4typeERS8_
0000000000000000 W _ZSt3getILm0EJPN4bssl10SSL_CONFIGENS0_8internal7DeleterEEERKNSt13tuple_elementIXT_ESt5tupleIJDpT0_EEE4typeERKS9_
0000000000000000 W _ZSt3getILm0EJPN4bssl11SSLKeyShareENS0_8internal7DeleterEEERKNSt13tuple_elementIXT_ESt5tupleIJDpT0_EEE4typeERKS9_
0000000000000000 W _ZSt3getILm0EJPN4bssl11SSLKeyShareENS0_8internal7DeleterEEERNSt13tuple_elementIXT_ESt5tupleIJDpT0_EEE4typeERS9_
0000000000000000 W _ZSt3getILm0EJPN4bssl13SSL_HANDSHAKEENS0_8internal7DeleterEEERKNSt13tuple_elementIXT_ESt5tupleIJDpT0_EEE4typeERKS9_
0000000000000000 W _ZSt3getILm0EJPN4bssl13SSL_HANDSHAKEENS0_8internal7DeleterEEERNSt13tuple_elementIXT_ESt5tupleIJDpT0_EEE4typeERS9_
0000000000000000 W _ZSt3getILm0EJPN4bssl14SSLAEADContextENS0_8internal7DeleterEEERKNSt13tuple_elementIXT_ESt5tupleIJDpT0_EEE4typeERKS9_
0000000000000000 W _ZSt3getILm0EJPN4bssl19SSL_HANDSHAKE_HINTSENS0_8internal7DeleterEEERKNSt13tuple_elementIXT_ESt5tupleIJDpT0_EEE4typeERKS9_
0000000000000000 W _ZSt3getILm0EJPN4bssl19SSL_HANDSHAKE_HINTSENS0_8internal7DeleterEEERNSt13tuple_elementIXT_ESt5tupleIJDpT0_EEE4typeERS9_
0000000000000000 W _ZSt3getILm0EJPN4bssl23SSLCipherPreferenceListENS0_8internal7DeleterEEERKNSt13tuple_elementIXT_ESt5tupleIJDpT0_EEE4typeERKS9_
0000000000000000 W _ZSt3getILm0EJPN4bssl23SSLCipherPreferenceListENS0_8internal7DeleterEEERNSt13tuple_elementIXT_ESt5tupleIJDpT0_EEE4typeERS9_
0000000000000000 W _ZSt3getILm0EJPN4bssl2DCENS0_8internal7DeleterEEERKNSt13tuple_elementIXT_ESt5tupleIJDpT0_EEE4typeERKS9_
0000000000000000 W _ZSt3getILm0EJPN4bssl4CERTENS0_8internal7DeleterEEERKNSt13tuple_elementIXT_ESt5tupleIJDpT0_EEE4typeERKS9_
0000000000000000 W _ZSt3getILm1EJP10buf_mem_stN4bssl8internal7DeleterEEERNSt13tuple_elementIXT_ESt5tupleIJDpT0_EEE4typeERS9_
0000000000000000 W _ZSt3getILm1EJP14ssl_session_stN4bssl8internal7DeleterEEERNSt13tuple_elementIXT_ESt5tupleIJDpT0_EEE4typeERS9_
0000000000000000 W _ZSt3getILm1EJP19stack_st_SSL_CIPHERN4bssl8internal7DeleterEEERNSt13tuple_elementIXT_ESt5tupleIJDpT0_EEE4typeERS9_
0000000000000000 W _ZSt3getILm1EJPcN4bssl8internal7DeleterEEERNSt13tuple_elementIXT_ESt5tupleIJDpT0_EEE4typeERS8_
0000000000000000 W _ZSt3getILm1EJPN4bssl11SSLKeyShareENS0_8internal7DeleterEEERNSt13tuple_elementIXT_ESt5tupleIJDpT0_EEE4typeERS9_
0000000000000000 W _ZSt3getILm1EJPN4bssl13SSL_HANDSHAKEENS0_8internal7DeleterEEERNSt13tuple_elementIXT_ESt5tupleIJDpT0_EEE4typeERS9_
0000000000000000 W _ZSt3getILm1EJPN4bssl19SSL_HANDSHAKE_HINTSENS0_8internal7DeleterEEERNSt13tuple_elementIXT_ESt5tupleIJDpT0_EEE4typeERS9_
0000000000000000 W _ZSt3getILm1EJPN4bssl23SSLCipherPreferenceListENS0_8internal7DeleterEEERNSt13tuple_elementIXT_ESt5tupleIJDpT0_EEE4typeERS9_
0000000000000000 W _ZSt4moveIRN4bssl5ArrayItEEEONSt16remove_referenceIT_E4typeEOS5_
0000000000000000 W _ZSt4moveIRP10buf_mem_stEONSt16remove_referenceIT_E4typeEOS4_
0000000000000000 W _ZSt4moveIRP14ssl_session_stEONSt16remove_referenceIT_E4typeEOS4_
0000000000000000 W _ZSt4moveIRPcEONSt16remove_referenceIT_E4typeEOS3_
0000000000000000 W _ZSt4moveIRPN4bssl11SSLKeyShareEEONSt16remove_referenceIT_E4typeEOS5_
0000000000000000 W _ZSt4moveIRPN4bssl13SSL_HANDSHAKEEEONSt16remove_referenceIT_E4typeEOS5_
0000000000000000 W _ZSt4moveIRPN4bssl19SSL_HANDSHAKE_HINTSEEONSt16remove_referenceIT_E4typeEOS5_
0000000000000000 W _ZSt4moveIRPN4bssl23SSLCipherPreferenceListEEONSt16remove_referenceIT_E4typeEOS5_
0000000000000000 W _ZSt4moveIRSt10unique_ptrIN4bssl19SSL_HANDSHAKE_HINTSENS1_8internal7DeleterEEEONSt16remove_referenceIT_E4typeEOS8_
0000000000000000 W _ZSt4swapIP10buf_mem_stENSt9enable_ifIXsrSt6__and_IJSt6__not_ISt15__is_tuple_likeIT_EESt21is_move_constructibleIS6_ESt18is_move_assignableIS6_EEE5valueEvE4typeERS6_SG_
0000000000000000 W _ZSt4swapIP14ssl_session_stENSt9enable_ifIXsrSt6__and_IJSt6__not_ISt15__is_tuple_likeIT_EESt21is_move_constructibleIS6_ESt18is_move_assignableIS6_EEE5valueEvE4typeERS6_SG_
0000000000000000 W _ZSt4swapIPcENSt9enable_ifIXsrSt6__and_IJSt6__not_ISt15__is_tuple_likeIT_EESt21is_move_constructibleIS5_ESt18is_move_assignableIS5_EEE5valueEvE4typeERS5_SF_
0000000000000000 W _ZSt4swapIPN4bssl11SSLKeyShareEENSt9enable_ifIXsrSt6__and_IJSt6__not_ISt15__is_tuple_likeIT_EESt21is_move_constructibleIS7_ESt18is_move_assignableIS7_EEE5valueEvE4typeERS7_SH_
0000000000000000 W _ZSt4swapIPN4bssl13SSL_HANDSHAKEEENSt9enable_ifIXsrSt6__and_IJSt6__not_ISt15__is_tuple_likeIT_EESt21is_move_constructibleIS7_ESt18is_move_assignableIS7_EEE5valueEvE4typeERS7_SH_
0000000000000000 W _ZSt4swapIPN4bssl19SSL_HANDSHAKE_HINTSEENSt9enable_ifIXsrSt6__and_IJSt6__not_ISt15__is_tuple_likeIT_EESt21is_move_constructibleIS7_ESt18is_move_assignableIS7_EEE5valueEvE4typeERS7_SH_
0000000000000000 W _ZSt4swapIPN4bssl23SSLCipherPreferenceListEENSt9enable_ifIXsrSt6__and_IJSt6__not_ISt15__is_tuple_likeIT_EESt21is_move_constructibleIS7_ESt18is_move_assignableIS7_EEE5valueEvE4typeERS7_SH_
0000000000000000 W _ZSt7forwardIN4bssl8internal7DeleterEEOT_RNSt16remove_referenceIS3_E4typeE
0000000000000000 W _ZSteqIN4bssl13SSL_HANDSHAKEENS0_8internal7DeleterEEbRKSt10unique_ptrIT_T0_EDn
0000000000000000 W _ZSteqIN4bssl19SSL_HANDSHAKE_HINTSENS0_8internal7DeleterEEbRKSt10unique_ptrIT_T0_EDn
0000000000000000 r _ZStL13allocator_arg
0000000000000000 r _ZStL19piecewise_construct
0000000000000000 r _ZStL6ignore
0000000000000000 r _ZZN4bssl22SSL_serialize_handbackEPK6ssl_stP6cbb_stE16kUnusedChannelID

handshake.cc.o:
                 U abort
                 U __assert_fail
0000000000000000 b .bss
                 U CBB_add_bytes
                 U CBB_cleanup
                 U CBB_zero
                 U CBS_get_u16
                 U CBS_get_u16_length_prefixed
                 U CBS_init
                 U CBS_len
                 U CBS_mem_equal
0000000000000000 n .comment
                 U CRYPTO_BUFFER_data
                 U CRYPTO_BUFFER_free
                 U CRYPTO_BUFFER_len
                 U CRYPTO_BUFFER_up_ref
0000000000000000 d .data
0000000000000000 N .debug_abbrev
0000000000000000 N .debug_aranges
0000000000000000 N .debug_info
0000000000000000 N .debug_line
0000000000000000 N .debug_ranges
0000000000000000 N .debug_str
0000000000000000 r .eh_frame
                 U ERR_add_error_dataf
                 U ERR_clear_error
0000000000000000 W ERR_GET_LIB
0000000000000000 W ERR_GET_REASON
                 U ERR_peek_error
                 U ERR_put_error
                 U ERR_restore_state
                 U ERR_save_state
                 U ERR_SAVE_STATE_free
                 U EVP_HPKE_CTX_cleanup
                 U EVP_HPKE_CTX_zero
                 U EVP_PKEY_free
0000000000000000 n .group
0000000000000000 n .group
0000000000000000 n .group
0000000000000000 n .group
0000000000000000 n .group
0000000000000000 n .group
0000000000000000 n .group
0000000000000000 n .group
0000000000000000 n .group
0000000000000000 n .group
0000000000000000 n .group
0000000000000000 n .group
0000000000000000 n .group
0000000000000000 n .group
0000000000000000 n .group
0000000000000000 n .group
0000000000000000 n .group
0000000000000000 n .group
0000000000000000 n .group
0000000000000000 n .group
0000000000000000 n .group
0000000000000000 n .group
0000000000000000 n .group
0000000000000000 n .group
0000000000000000 n .group
0000000000000000 n .group
0000000000000000 n .group
0000000000000000 n .group
0000000000000000 n .group
0000000000000000 n .group
0000000000000000 n .group
0000000000000000 n .group
0000000000000000 n .group
0000000000000000 n .group
0000000000000000 n .group
0000000000000000 n .group
0000000000000000 n .group
0000000000000000 n .group
0000000000000000 n .group
0000000000000000 n .group
0000000000000000 n .group
0000000000000000 n .group
0000000000000000 n .group
0000000000000000 n .group
0000000000000000 n .group
0000000000000000 n .group
0000000000000000 n .group
0000000000000000 n .group
0000000000000000 n .group
0000000000000000 n .group
0000000000000000 n .group
0000000000000000 n .group
0000000000000000 n .group
0000000000000000 n .group
0000000000000000 n .group
0000000000000000 n .group
0000000000000000 n .group
0000000000000000 n .group
0000000000000000 n .group
0000000000000000 n .group
0000000000000000 n .group
0000000000000000 n .group
0000000000000000 n .group
0000000000000000 n .group
0000000000000000 n .group
0000000000000000 n .group
0000000000000000 n .group
0000000000000000 n .group
0000000000000000 n .group
0000000000000000 n .group
0000000000000000 n .group
0000000000000000 n .group
0000000000000000 n .group
0000000000000000 n .group
0000000000000000 n .group
0000000000000000 n .group
0000000000000000 n .group
0000000000000000 n .group
0000000000000000 n .group
0000000000000000 n .group
0000000000000000 n .group
0000000000000000 n .group
0000000000000000 n .group
0000000000000000 n .group
0000000000000000 n .group
0000000000000000 n .group
0000000000000000 n .group
0000000000000000 n .group
0000000000000000 n .group
0000000000000000 n .group
0000000000000000 n .group
0000000000000000 n .group
0000000000000000 n .group
0000000000000000 n .group
0000000000000000 n .group
0000000000000000 n .group
0000000000000000 n .group
0000000000000000 n .group
0000000000000000 n .group
0000000000000000 n .group
0000000000000000 n .group
0000000000000000 n .group
0000000000000000 n .group
0000000000000000 n .group
0000000000000000 n .group
0000000000000000 n .group
0000000000000000 n .group
0000000000000000 n .group
0000000000000000 n .group
0000000000000000 n .group
0000000000000000 n .group
0000000000000000 n .group
0000000000000000 n .group
0000000000000000 n .group
0000000000000000 n .group
0000000000000000 n .group
0000000000000000 n .group
0000000000000000 n .group
0000000000000000 n .group
0000000000000000 n .group
0000000000000000 n .group
0000000000000000 n .group
0000000000000000 n .group
0000000000000000 n .group
0000000000000000 n .group
0000000000000000 n .group
0000000000000000 n .group
0000000000000000 n .group
0000000000000000 n .group
0000000000000000 n .group
0000000000000000 n .group
0000000000000000 n .group
0000000000000000 n .group
0000000000000000 n .group
0000000000000000 n .group
0000000000000000 n .group
0000000000000000 n .group
0000000000000000 n .group
0000000000000000 n .group
0000000000000000 n .group
0000000000000000 n .group
0000000000000000 n .group
0000000000000000 n .group
0000000000000000 n .group
0000000000000000 n .group
0000000000000000 n .group
0000000000000000 n .group
0000000000000000 n .group
0000000000000000 n .group
0000000000000000 n .group
0000000000000000 n .group
0000000000000000 n .group
0000000000000000 n .group
0000000000000000 n .group
0000000000000000 n .group
0000000000000000 n .group
0000000000000000 n .group
0000000000000000 n .group
0000000000000000 n .group
0000000000000000 n .group
0000000000000000 n .group
0000000000000000 n .group
0000000000000000 n .group
0000000000000000 n .group
0000000000000000 n .group
0000000000000000 n .group
0000000000000000 n .group
0000000000000000 n .group
0000000000000000 n .group
0000000000000000 n .group
0000000000000000 n .group
0000000000000000 n .group
0000000000000000 n .group
0000000000000000 n .group
0000000000000000 n .group
0000000000000000 n .group
0000000000000000 n .group
0000000000000000 n .group
0000000000000000 n .group
0000000000000000 n .group
0000000000000000 n .group
0000000000000000 n .group
0000000000000000 n .group
0000000000000000 n .group
0000000000000000 n .group
0000000000000000 n .group
0000000000000000 n .group
0000000000000000 n .group
0000000000000000 n .group
0000000000000000 n .group
0000000000000000 n .group
0000000000000000 n .group
0000000000000000 n .group
0000000000000000 n .group
0000000000000000 n .group
0000000000000000 n .group
0000000000000000 n .group
0000000000000000 n .group
0000000000000000 n .group
0000000000000000 n .group
0000000000000000 n .group
0000000000000000 n .group
0000000000000000 n .group
0000000000000000 n .group
0000000000000000 n .group
0000000000000000 n .group
0000000000000000 n .group
0000000000000000 n .group
0000000000000000 n .group
0000000000000000 n .group
0000000000000000 n .group
0000000000000000 n .group
0000000000000000 n .group
0000000000000000 n .group
0000000000000000 n .group
0000000000000000 n .group
0000000000000000 n .group
0000000000000000 n .group
0000000000000000 n .group
0000000000000000 n .group
0000000000000000 n .group
0000000000000000 n .group
0000000000000000 n .group
0000000000000000 n .group
0000000000000000 n .group
0000000000000000 n .group
0000000000000000 n .group
0000000000000000 n .group
0000000000000000 n .group
0000000000000000 n .group
0000000000000000 n .group
0000000000000000 n .group
0000000000000000 n .group
0000000000000000 n .group
0000000000000000 n .group
0000000000000000 n .group
0000000000000000 n .group
0000000000000000 n .group
0000000000000000 n .group
0000000000000000 n .group
0000000000000000 n .group
0000000000000000 n .group
0000000000000000 n .group
0000000000000000 n .group
0000000000000000 n .group
0000000000000000 n .group
0000000000000000 n .group
0000000000000000 n .group
0000000000000000 n .group
0000000000000000 n .group
0000000000000000 n .group
0000000000000000 n .group
0000000000000000 n .group
0000000000000000 n .group
0000000000000000 n .group
0000000000000000 n .group
0000000000000000 n .group
0000000000000000 n .group
0000000000000000 n .group
0000000000000000 n .group
0000000000000000 n .group
0000000000000000 n .group
0000000000000000 n .group
0000000000000000 n .group
0000000000000000 n .group
0000000000000000 n .group
0000000000000000 n .group
0000000000000000 n .group
0000000000000000 n .group
0000000000000000 n .group
0000000000000000 n .group
0000000000000000 n .group
0000000000000000 n .group
0000000000000000 n .group
0000000000000000 n .group
0000000000000000 n .group
0000000000000000 n .group
0000000000000000 n .group
0000000000000000 n .group
0000000000000000 n .group
0000000000000000 n .group
0000000000000000 n .group
0000000000000000 n .group
0000000000000000 n .group
0000000000000000 n .group
0000000000000000 n .group
0000000000000000 n .group
0000000000000000 n .group
0000000000000000 n .group
0000000000000000 n .group
0000000000000000 n .group
0000000000000000 n .group
0000000000000000 n .group
0000000000000000 n .group
0000000000000000 n .group
0000000000000000 n .group
0000000000000000 n .group
0000000000000000 n .group
0000000000000000 n .group
0000000000000000 n .group
0000000000000000 n .group
0000000000000000 a handshake.cc
                 U memcmp
                 U memcpy
0000000000000000 n .note.GNU-stack
                 U OPENSSL_free
                 U OPENSSL_malloc
0000000000000000 t OPENSSL_memcmp
0000000000000000 t OPENSSL_memcpy
                 U RAND_bytes
0000000000000000 r .rodata
0000000000000000 r .rodata._ZN4bssl17ssl_run_handshakeEPNS_13SSL_HANDSHAKEEPb
0000000000000000 r .rodata._ZN4bsslL11kMaxTicketsE
0000000000000000 r .rodata._ZN4bsslL21kMaxEarlyDataAcceptedE
0000000000000000 r .rodata._ZN9__gnu_cxxL21__default_lock_policyE
0000000000000000 r .rodata._ZStL13allocator_arg
0000000000000000 r .rodata._ZStL19piecewise_construct
0000000000000000 r .rodata._ZStL6ignore
0000000000000000 r .rodata._ZZN4bssl13SSL_HANDSHAKEC4EP6ssl_stE19__PRETTY_FUNCTION__
0000000000000000 r .rodata._ZZN4bssl17ssl_handshake_newEP6ssl_stE19__PRETTY_FUNCTION__
0000000000000000 r .rodata._ZZN4bssl17ssl_run_handshakeEPNS_13SSL_HANDSHAKEEPbE19__PRETTY_FUNCTION__
0000000000000000 r .rodata._ZZN4bssl20ssl_parse_extensionsEPK6cbs_stPhSt16initializer_listIPNS_12SSLExtensionEEbE19__PRETTY_FUNCTION__
0000000000000000 r .rodata._ZZN4bssl20ssl_verify_peer_certEPNS_13SSL_HANDSHAKEEE19__PRETTY_FUNCTION__
0000000000000000 r .rodata._ZZN4bssl22ssl_reverify_peer_certEPNS_13SSL_HANDSHAKEEbE19__PRETTY_FUNCTION__
0000000000000000 r .rodata._ZZN4bssl29ssl_max_handshake_message_lenEPK6ssl_stE14kMaxMessageLen
0000000000000000 W sk_CRYPTO_BUFFER_num
0000000000000000 W sk_CRYPTO_BUFFER_value
                 U sk_num
                 U sk_pop_free_ex
                 U sk_value
                 U SSL_ECH_KEYS_free
                 U SSL_in_init
                 U SSL_SESSION_free
0000000000000000 t .text
0000000000000000 t .text.ERR_GET_LIB
0000000000000000 t .text.ERR_GET_REASON
0000000000000000 t .text.OPENSSL_memcmp
0000000000000000 t .text.OPENSSL_memcpy
0000000000000000 t .text.sk_CRYPTO_BUFFER_num
0000000000000000 t .text.sk_CRYPTO_BUFFER_value
0000000000000000 t .text._ZN4bssl10MakeUniqueINS_13SSL_HANDSHAKEEJRP6ssl_stEEESt10unique_ptrIT_NS_8internal7DeleterEEDpOT0_
0000000000000000 t .text._ZN4bssl13MakeConstSpanIKhEENS_4SpanIKT_EEPS3_m
0000000000000000 t .text._ZN4bssl13MakeConstSpanINS_5ArrayIhEEEEDTcl13MakeConstSpancldtfp_4dataEcldtfp_4sizeEEERKT_
0000000000000000 t .text._ZN4bssl13SSL_HANDSHAKE13ResizeSecretsEm
0000000000000000 t .text._ZN4bssl13SSL_HANDSHAKE14GetClientHelloEPNS_10SSLMessageEP22ssl_early_callback_ctx
0000000000000000 t .text._ZN4bssl13SSL_HANDSHAKEC2EP6ssl_st
0000000000000000 t .text._ZN4bssl13SSL_HANDSHAKED2Ev
0000000000000000 t .text._ZN4bssl13SSL_HANDSHAKEUt_C2Ev
0000000000000000 t .text._ZN4bssl16ssl_get_finishedEPNS_13SSL_HANDSHAKEE
0000000000000000 t .text._ZN4bssl16ssl_hash_messageEPNS_13SSL_HANDSHAKEERKNS_10SSLMessageE
0000000000000000 t .text._ZN4bssl17ssl_handshake_newEP6ssl_st
0000000000000000 t .text._ZN4bssl17ssl_run_handshakeEPNS_13SSL_HANDSHAKEEPb
0000000000000000 t .text._ZN4bssl17ssl_send_finishedEPNS_13SSL_HANDSHAKEE
0000000000000000 t .text._ZN4bssl19ssl_add_message_cbbEP6ssl_stP6cbb_st
0000000000000000 t .text._ZN4bssl19SSL_HANDSHAKE_HINTSD2Ev
0000000000000000 t .text._ZN4bssl20ssl_get_grease_valueEPKNS_13SSL_HANDSHAKEENS_18ssl_grease_index_tE
0000000000000000 t .text._ZN4bssl20ssl_parse_extensionsEPK6cbs_stPhSt16initializer_listIPNS_12SSLExtensionEEb
0000000000000000 t .text._ZN4bssl20ssl_verify_peer_certEPNS_13SSL_HANDSHAKEE
0000000000000000 t .text._ZN4bssl21ssl_handshake_sessionEPKNS_13SSL_HANDSHAKEE
0000000000000000 t .text._ZN4bssl21ssl_output_cert_chainEPNS_13SSL_HANDSHAKEE
0000000000000000 t .text._ZN4bssl22ssl_check_message_typeEP6ssl_stRKNS_10SSLMessageEi
0000000000000000 t .text._ZN4bssl22ssl_reverify_peer_certEPNS_13SSL_HANDSHAKEEb
0000000000000000 t .text._ZN4bssl29ssl_max_handshake_message_lenEPK6ssl_st
0000000000000000 t .text._ZN4bssl3NewINS_13SSL_HANDSHAKEEJRP6ssl_stEEEPT_DpOT0_
0000000000000000 t .text._ZN4bssl4SpanIhEC2EPhm
0000000000000000 t .text._ZN4bssl4SpanIKhEC2EPS1_m
0000000000000000 t .text._ZN4bssl4SpanIKhEC2INS_5ArrayIhEEvS5_EERKT_
0000000000000000 t .text._ZN4bssl5ArrayIhE5ResetEPhm
0000000000000000 t .text._ZN4bssl5ArrayIhE5ResetEv
0000000000000000 t .text._ZN4bssl5ArrayIhE7ReleaseEPPhPm
0000000000000000 t .text._ZN4bssl5ArrayIhEaSEOS1_
0000000000000000 t .text._ZN4bssl5ArrayIhEC2EOS1_
0000000000000000 t .text._ZN4bssl5ArrayIhEC2Ev
0000000000000000 t .text._ZN4bssl5ArrayIhED2Ev
0000000000000000 t .text._ZN4bssl5ArrayItE5ResetEPtm
0000000000000000 t .text._ZN4bssl5ArrayItE5ResetEv
0000000000000000 t .text._ZN4bssl5ArrayItEC2Ev
0000000000000000 t .text._ZN4bssl5ArrayItED2Ev
0000000000000000 t .text._ZN4bssl5UpRefEP16crypto_buffer_st
0000000000000000 t .text._ZN4bssl5UpRefERKSt10unique_ptrI16crypto_buffer_stNS_8internal7DeleterEE
0000000000000000 t .text._ZN4bssl6DeleteINS_11SSLKeyShareEEEvPT_
0000000000000000 t .text._ZN4bssl6DeleteINS_13SSL_HANDSHAKEEEEvPT_
0000000000000000 t .text._ZN4bssl6DeleteINS_19SSL_HANDSHAKE_HINTSEEEvPT_
0000000000000000 t .text._ZN4bssl6DeleteINS_9ECHConfigEEEvPT_
0000000000000000 t .text._ZN4bssl8internal11DeleterImplI11evp_pkey_stvE4FreeEPS2_
0000000000000000 t .text._ZN4bssl8internal11DeleterImplI14ssl_session_stvE4FreeEPS2_
0000000000000000 t .text._ZN4bssl8internal11DeleterImplI15ssl_ech_keys_stvE4FreeEPS2_
0000000000000000 t .text._ZN4bssl8internal11DeleterImplI16crypto_buffer_stvE4FreeEPS2_
0000000000000000 t .text._ZN4bssl8internal11DeleterImplI17err_save_state_stvE4FreeEPS2_
0000000000000000 t .text._ZN4bssl8internal11DeleterImplI22stack_st_CRYPTO_BUFFERvE4FreeEPS2_
0000000000000000 t .text._ZN4bssl8internal11DeleterImplIcvE4FreeEPc
0000000000000000 t .text._ZN4bssl8internal11DeleterImplINS_11SSLKeyShareEvE4FreeEPS2_
0000000000000000 t .text._ZN4bssl8internal11DeleterImplINS_13SSL_HANDSHAKEEvE4FreeEPS2_
0000000000000000 t .text._ZN4bssl8internal11DeleterImplINS_19SSL_HANDSHAKE_HINTSEvE4FreeEPS2_
0000000000000000 t .text._ZN4bssl8internal11DeleterImplINS_9ECHConfigEvE4FreeEPS2_
0000000000000000 t .text._ZN4bssl8internal14StackAllocatedI15evp_hpke_ctx_stvXadL_Z17EVP_HPKE_CTX_zeroEEXadL_Z20EVP_HPKE_CTX_cleanupEEEC2Ev
0000000000000000 t .text._ZN4bssl8internal14StackAllocatedI15evp_hpke_ctx_stvXadL_Z17EVP_HPKE_CTX_zeroEEXadL_Z20EVP_HPKE_CTX_cleanupEEED2Ev
0000000000000000 t .text._ZN4bssl8internal14StackAllocatedI6cbb_stvXadL_Z8CBB_zeroEEXadL_Z11CBB_cleanupEEE3getEv
0000000000000000 t .text._ZN4bssl8internal14StackAllocatedI6cbb_stvXadL_Z8CBB_zeroEEXadL_Z11CBB_cleanupEEEC2Ev
0000000000000000 t .text._ZN4bssl8internal14StackAllocatedI6cbb_stvXadL_Z8CBB_zeroEEXadL_Z11CBB_cleanupEEED2Ev
0000000000000000 t .text._ZN4bssl8internal7DeleterclI11evp_pkey_stEEvPT_
0000000000000000 t .text._ZN4bssl8internal7DeleterclI14ssl_session_stEEvPT_
0000000000000000 t .text._ZN4bssl8internal7DeleterclI15ssl_ech_keys_stEEvPT_
0000000000000000 t .text._ZN4bssl8internal7DeleterclI16crypto_buffer_stEEvPT_
0000000000000000 t .text._ZN4bssl8internal7DeleterclI17err_save_state_stEEvPT_
0000000000000000 t .text._ZN4bssl8internal7DeleterclI22stack_st_CRYPTO_BUFFEREEvPT_
0000000000000000 t .text._ZN4bssl8internal7DeleterclIcEEvPT_
0000000000000000 t .text._ZN4bssl8internal7DeleterclINS_11SSLKeyShareEEEvPT_
0000000000000000 t .text._ZN4bssl8internal7DeleterclINS_13SSL_HANDSHAKEEEEvPT_
0000000000000000 t .text._ZN4bssl8internal7DeleterclINS_19SSL_HANDSHAKE_HINTSEEEvPT_
0000000000000000 t .text._ZN4bssl8internal7DeleterclINS_9ECHConfigEEEvPT_
0000000000000000 t .text._ZN4bssl8MakeSpanIhEENS_4SpanIT_EEPS2_m
0000000000000000 t .text._ZN4bssl9ECHConfigD2Ev
0000000000000000 t .text._ZN4bssl9SSLBuffer4dataEv
0000000000000000 t .text._ZN4bssl9SSLBuffer4spanEv
0000000000000000 t .text._ZN4bsslL21grease_index_to_valueEPKNS_13SSL_HANDSHAKEENS_18ssl_grease_index_tE
0000000000000000 t .text._ZN6cbs_stC2EN4bssl4SpanIKhEE
0000000000000000 t .text._ZNK4bssl4SpanIKhE4dataEv
0000000000000000 t .text._ZNK4bssl4SpanIKhE4sizeEv
0000000000000000 t .text._ZNK4bssl4SpanIKhE7subspanEmm
0000000000000000 t .text._ZNK4bssl5ArrayIhE4dataEv
0000000000000000 t .text._ZNK4bssl5ArrayIhE4sizeEv
0000000000000000 t .text._ZNK4bssl5ArrayIhE5emptyEv
0000000000000000 t .text._ZNK4bssl9SSLBuffer4sizeEv
0000000000000000 t .text._ZNK6cbs_stcvN4bssl4SpanIKhEEEv
0000000000000000 t .text._ZNKSt10unique_ptrI10ssl_ctx_stN4bssl8internal7DeleterEE3getEv
0000000000000000 t .text._ZNKSt10unique_ptrI10ssl_ctx_stN4bssl8internal7DeleterEEptEv
0000000000000000 t .text._ZNKSt10unique_ptrI14ssl_session_stN4bssl8internal7DeleterEE3getEv
0000000000000000 t .text._ZNKSt10unique_ptrI14ssl_session_stN4bssl8internal7DeleterEEcvbEv
0000000000000000 t .text._ZNKSt10unique_ptrI14ssl_session_stN4bssl8internal7DeleterEEptEv
0000000000000000 t .text._ZNKSt10unique_ptrI16crypto_buffer_stN4bssl8internal7DeleterEE3getEv
0000000000000000 t .text._ZNKSt10unique_ptrI17err_save_state_stN4bssl8internal7DeleterEE3getEv
0000000000000000 t .text._ZNKSt10unique_ptrI22stack_st_CRYPTO_BUFFERN4bssl8internal7DeleterEE3getEv
0000000000000000 t .text._ZNKSt10unique_ptrIN4bssl10SSL_CONFIGENS0_8internal7DeleterEE3getEv
0000000000000000 t .text._ZNKSt10unique_ptrIN4bssl13SSL_HANDSHAKEENS0_8internal7DeleterEE3getEv
0000000000000000 t .text._ZNKSt10unique_ptrIN4bssl13SSL_HANDSHAKEENS0_8internal7DeleterEEcvbEv
0000000000000000 t .text._ZNKSt10unique_ptrIN4bssl13SSL_HANDSHAKEENS0_8internal7DeleterEEptEv
0000000000000000 t .text._ZNKSt15__uniq_ptr_implI10ssl_ctx_stN4bssl8internal7DeleterEE6_M_ptrEv
0000000000000000 t .text._ZNKSt15__uniq_ptr_implI14ssl_session_stN4bssl8internal7DeleterEE6_M_ptrEv
0000000000000000 t .text._ZNKSt15__uniq_ptr_implI16crypto_buffer_stN4bssl8internal7DeleterEE6_M_ptrEv
0000000000000000 t .text._ZNKSt15__uniq_ptr_implI17err_save_state_stN4bssl8internal7DeleterEE6_M_ptrEv
0000000000000000 t .text._ZNKSt15__uniq_ptr_implI22stack_st_CRYPTO_BUFFERN4bssl8internal7DeleterEE6_M_ptrEv
0000000000000000 t .text._ZNKSt15__uniq_ptr_implIN4bssl10SSL_CONFIGENS0_8internal7DeleterEE6_M_ptrEv
0000000000000000 t .text._ZNKSt15__uniq_ptr_implIN4bssl13SSL_HANDSHAKEENS0_8internal7DeleterEE6_M_ptrEv
0000000000000000 t .text._ZNKSt16initializer_listIPN4bssl12SSLExtensionEE3endEv
0000000000000000 t .text._ZNKSt16initializer_listIPN4bssl12SSLExtensionEE4sizeEv
0000000000000000 t .text._ZNKSt16initializer_listIPN4bssl12SSLExtensionEE5beginEv
0000000000000000 t .text._ZNSt10_Head_baseILm0EP10ssl_ctx_stLb0EE7_M_headERKS2_
0000000000000000 t .text._ZNSt10_Head_baseILm0EP11evp_pkey_stLb0EE7_M_headERS2_
0000000000000000 t .text._ZNSt10_Head_baseILm0EP11evp_pkey_stLb0EEC2Ev
0000000000000000 t .text._ZNSt10_Head_baseILm0EP14ssl_session_stLb0EE7_M_headERKS2_
0000000000000000 t .text._ZNSt10_Head_baseILm0EP14ssl_session_stLb0EE7_M_headERS2_
0000000000000000 t .text._ZNSt10_Head_baseILm0EP14ssl_session_stLb0EEC2Ev
0000000000000000 t .text._ZNSt10_Head_baseILm0EP15ssl_ech_keys_stLb0EE7_M_headERS2_
0000000000000000 t .text._ZNSt10_Head_baseILm0EP15ssl_ech_keys_stLb0EEC2Ev
0000000000000000 t .text._ZNSt10_Head_baseILm0EP16crypto_buffer_stLb0EE7_M_headERKS2_
0000000000000000 t .text._ZNSt10_Head_baseILm0EP16crypto_buffer_stLb0EE7_M_headERS2_
0000000000000000 t .text._ZNSt10_Head_baseILm0EP16crypto_buffer_stLb0EEC2Ev
0000000000000000 t .text._ZNSt10_Head_baseILm0EP17err_save_state_stLb0EE7_M_headERKS2_
0000000000000000 t .text._ZNSt10_Head_baseILm0EP17err_save_state_stLb0EE7_M_headERS2_
0000000000000000 t .text._ZNSt10_Head_baseILm0EP17err_save_state_stLb0EEC2Ev
0000000000000000 t .text._ZNSt10_Head_baseILm0EP22stack_st_CRYPTO_BUFFERLb0EE7_M_headERKS2_
0000000000000000 t .text._ZNSt10_Head_baseILm0EP22stack_st_CRYPTO_BUFFERLb0EE7_M_headERS2_
0000000000000000 t .text._ZNSt10_Head_baseILm0EP22stack_st_CRYPTO_BUFFERLb0EEC2Ev
0000000000000000 t .text._ZNSt10_Head_baseILm0EPcLb0EE7_M_headERS1_
0000000000000000 t .text._ZNSt10_Head_baseILm0EPcLb0EEC2Ev
0000000000000000 t .text._ZNSt10_Head_baseILm0EPN4bssl10SSL_CONFIGELb0EE7_M_headERKS3_
0000000000000000 t .text._ZNSt10_Head_baseILm0EPN4bssl11SSLKeyShareELb0EE7_M_headERS3_
0000000000000000 t .text._ZNSt10_Head_baseILm0EPN4bssl13SSL_HANDSHAKEELb0EE7_M_headERKS3_
0000000000000000 t .text._ZNSt10_Head_baseILm0EPN4bssl13SSL_HANDSHAKEELb0EE7_M_headERS3_
0000000000000000 t .text._ZNSt10_Head_baseILm0EPN4bssl13SSL_HANDSHAKEELb0EEC2Ev
0000000000000000 t .text._ZNSt10_Head_baseILm0EPN4bssl13SSL_HANDSHAKEELb0EEC2IRS2_EEOT_
0000000000000000 t .text._ZNSt10_Head_baseILm0EPN4bssl19SSL_HANDSHAKE_HINTSELb0EE7_M_headERS3_
0000000000000000 t .text._ZNSt10_Head_baseILm0EPN4bssl19SSL_HANDSHAKE_HINTSELb0EEC2Ev
0000000000000000 t .text._ZNSt10_Head_baseILm0EPN4bssl9ECHConfigELb0EE7_M_headERS3_
0000000000000000 t .text._ZNSt10_Head_baseILm0EPN4bssl9ECHConfigELb0EEC2Ev
0000000000000000 t .text._ZNSt10_Head_baseILm1EN4bssl8internal7DeleterELb1EE7_M_headERS3_
0000000000000000 t .text._ZNSt10_Head_baseILm1EN4bssl8internal7DeleterELb1EEC2Ev
0000000000000000 t .text._ZNSt10_Head_baseILm1EN4bssl8internal7DeleterELb1EEC2IS2_EEOT_
0000000000000000 t .text._ZNSt10unique_ptrI11evp_pkey_stN4bssl8internal7DeleterEE11get_deleterEv
0000000000000000 t .text._ZNSt10unique_ptrI11evp_pkey_stN4bssl8internal7DeleterEEC2IS3_vEEv
0000000000000000 t .text._ZNSt10unique_ptrI11evp_pkey_stN4bssl8internal7DeleterEED2Ev
0000000000000000 t .text._ZNSt10unique_ptrI14ssl_session_stN4bssl8internal7DeleterEE11get_deleterEv
0000000000000000 t .text._ZNSt10unique_ptrI14ssl_session_stN4bssl8internal7DeleterEEC2IS3_vEEv
0000000000000000 t .text._ZNSt10unique_ptrI14ssl_session_stN4bssl8internal7DeleterEED2Ev
0000000000000000 t .text._ZNSt10unique_ptrI15ssl_ech_keys_stN4bssl8internal7DeleterEE11get_deleterEv
0000000000000000 t .text._ZNSt10unique_ptrI15ssl_ech_keys_stN4bssl8internal7DeleterEEC2IS3_vEEv
0000000000000000 t .text._ZNSt10unique_ptrI15ssl_ech_keys_stN4bssl8internal7DeleterEED2Ev
0000000000000000 t .text._ZNSt10unique_ptrI16crypto_buffer_stN4bssl8internal7DeleterEE11get_deleterEv
0000000000000000 t .text._ZNSt10unique_ptrI16crypto_buffer_stN4bssl8internal7DeleterEE5resetEPS0_
0000000000000000 t .text._ZNSt10unique_ptrI16crypto_buffer_stN4bssl8internal7DeleterEE7releaseEv
0000000000000000 t .text._ZNSt10unique_ptrI16crypto_buffer_stN4bssl8internal7DeleterEEaSEOS4_
0000000000000000 t .text._ZNSt10unique_ptrI16crypto_buffer_stN4bssl8internal7DeleterEEC2IS3_vEEPS0_
0000000000000000 t .text._ZNSt10unique_ptrI16crypto_buffer_stN4bssl8internal7DeleterEED2Ev
0000000000000000 t .text._ZNSt10unique_ptrI17err_save_state_stN4bssl8internal7DeleterEE11get_deleterEv
0000000000000000 t .text._ZNSt10unique_ptrI17err_save_state_stN4bssl8internal7DeleterEE5resetEPS0_
0000000000000000 t .text._ZNSt10unique_ptrI17err_save_state_stN4bssl8internal7DeleterEEC2IS3_vEEv
0000000000000000 t .text._ZNSt10unique_ptrI17err_save_state_stN4bssl8internal7DeleterEED2Ev
0000000000000000 t .text._ZNSt10unique_ptrI22stack_st_CRYPTO_BUFFERN4bssl8internal7DeleterEE11get_deleterEv
0000000000000000 t .text._ZNSt10unique_ptrI22stack_st_CRYPTO_BUFFERN4bssl8internal7DeleterEEC2IS3_vEEv
0000000000000000 t .text._ZNSt10unique_ptrI22stack_st_CRYPTO_BUFFERN4bssl8internal7DeleterEED2Ev
0000000000000000 t .text._ZNSt10unique_ptrIcN4bssl8internal7DeleterEE11get_deleterEv
0000000000000000 t .text._ZNSt10unique_ptrIcN4bssl8internal7DeleterEEC2IS2_vEEv
0000000000000000 t .text._ZNSt10unique_ptrIcN4bssl8internal7DeleterEED2Ev
0000000000000000 t .text._ZNSt10unique_ptrIN4bssl11SSLKeyShareENS0_8internal7DeleterEE11get_deleterEv
0000000000000000 t .text._ZNSt10unique_ptrIN4bssl11SSLKeyShareENS0_8internal7DeleterEED2Ev
0000000000000000 t .text._ZNSt10unique_ptrIN4bssl13SSL_HANDSHAKEENS0_8internal7DeleterEE11get_deleterEv
0000000000000000 t .text._ZNSt10unique_ptrIN4bssl13SSL_HANDSHAKEENS0_8internal7DeleterEE7releaseEv
0000000000000000 t .text._ZNSt10unique_ptrIN4bssl13SSL_HANDSHAKEENS0_8internal7DeleterEEC2EOS4_
0000000000000000 t .text._ZNSt10unique_ptrIN4bssl13SSL_HANDSHAKEENS0_8internal7DeleterEEC2IS3_vEEDn
0000000000000000 t .text._ZNSt10unique_ptrIN4bssl13SSL_HANDSHAKEENS0_8internal7DeleterEEC2IS3_vEEPS1_
0000000000000000 t .text._ZNSt10unique_ptrIN4bssl13SSL_HANDSHAKEENS0_8internal7DeleterEED2Ev
0000000000000000 t .text._ZNSt10unique_ptrIN4bssl19SSL_HANDSHAKE_HINTSENS0_8internal7DeleterEE11get_deleterEv
0000000000000000 t .text._ZNSt10unique_ptrIN4bssl19SSL_HANDSHAKE_HINTSENS0_8internal7DeleterEEC2IS3_vEEv
0000000000000000 t .text._ZNSt10unique_ptrIN4bssl19SSL_HANDSHAKE_HINTSENS0_8internal7DeleterEED2Ev
0000000000000000 t .text._ZNSt10unique_ptrIN4bssl9ECHConfigENS0_8internal7DeleterEE11get_deleterEv
0000000000000000 t .text._ZNSt10unique_ptrIN4bssl9ECHConfigENS0_8internal7DeleterEEC2IS3_vEEv
0000000000000000 t .text._ZNSt10unique_ptrIN4bssl9ECHConfigENS0_8internal7DeleterEED2Ev
0000000000000000 t .text._ZNSt11_Tuple_implILm0EJP10ssl_ctx_stN4bssl8internal7DeleterEEE7_M_headERKS5_
0000000000000000 t .text._ZNSt11_Tuple_implILm0EJP11evp_pkey_stN4bssl8internal7DeleterEEE7_M_headERS5_
0000000000000000 t .text._ZNSt11_Tuple_implILm0EJP11evp_pkey_stN4bssl8internal7DeleterEEEC2Ev
0000000000000000 t .text._ZNSt11_Tuple_implILm0EJP14ssl_session_stN4bssl8internal7DeleterEEE7_M_headERKS5_
0000000000000000 t .text._ZNSt11_Tuple_implILm0EJP14ssl_session_stN4bssl8internal7DeleterEEE7_M_headERS5_
0000000000000000 t .text._ZNSt11_Tuple_implILm0EJP14ssl_session_stN4bssl8internal7DeleterEEEC2Ev
0000000000000000 t .text._ZNSt11_Tuple_implILm0EJP15ssl_ech_keys_stN4bssl8internal7DeleterEEE7_M_headERS5_
0000000000000000 t .text._ZNSt11_Tuple_implILm0EJP15ssl_ech_keys_stN4bssl8internal7DeleterEEEC2Ev
0000000000000000 t .text._ZNSt11_Tuple_implILm0EJP16crypto_buffer_stN4bssl8internal7DeleterEEE7_M_headERKS5_
0000000000000000 t .text._ZNSt11_Tuple_implILm0EJP16crypto_buffer_stN4bssl8internal7DeleterEEE7_M_headERS5_
0000000000000000 t .text._ZNSt11_Tuple_implILm0EJP16crypto_buffer_stN4bssl8internal7DeleterEEEC2Ev
0000000000000000 t .text._ZNSt11_Tuple_implILm0EJP17err_save_state_stN4bssl8internal7DeleterEEE7_M_headERKS5_
0000000000000000 t .text._ZNSt11_Tuple_implILm0EJP17err_save_state_stN4bssl8internal7DeleterEEE7_M_headERS5_
0000000000000000 t .text._ZNSt11_Tuple_implILm0EJP17err_save_state_stN4bssl8internal7DeleterEEEC2Ev
0000000000000000 t .text._ZNSt11_Tuple_implILm0EJP22stack_st_CRYPTO_BUFFERN4bssl8internal7DeleterEEE7_M_headERKS5_
0000000000000000 t .text._ZNSt11_Tuple_implILm0EJP22stack_st_CRYPTO_BUFFERN4bssl8internal7DeleterEEE7_M_headERS5_
0000000000000000 t .text._ZNSt11_Tuple_implILm0EJP22stack_st_CRYPTO_BUFFERN4bssl8internal7DeleterEEEC2Ev
0000000000000000 t .text._ZNSt11_Tuple_implILm0EJPcN4bssl8internal7DeleterEEE7_M_headERS4_
0000000000000000 t .text._ZNSt11_Tuple_implILm0EJPcN4bssl8internal7DeleterEEEC2Ev
0000000000000000 t .text._ZNSt11_Tuple_implILm0EJPN4bssl10SSL_CONFIGENS0_8internal7DeleterEEE7_M_headERKS5_
0000000000000000 t .text._ZNSt11_Tuple_implILm0EJPN4bssl11SSLKeyShareENS0_8internal7DeleterEEE7_M_headERS5_
0000000000000000 t .text._ZNSt11_Tuple_implILm0EJPN4bssl13SSL_HANDSHAKEENS0_8internal7DeleterEEE7_M_headERKS5_
0000000000000000 t .text._ZNSt11_Tuple_implILm0EJPN4bssl13SSL_HANDSHAKEENS0_8internal7DeleterEEE7_M_headERS5_
0000000000000000 t .text._ZNSt11_Tuple_implILm0EJPN4bssl13SSL_HANDSHAKEENS0_8internal7DeleterEEEC2Ev
0000000000000000 t .text._ZNSt11_Tuple_implILm0EJPN4bssl13SSL_HANDSHAKEENS0_8internal7DeleterEEEC2IRS2_JS4_EvEEOT_DpOT0_
0000000000000000 t .text._ZNSt11_Tuple_implILm0EJPN4bssl19SSL_HANDSHAKE_HINTSENS0_8internal7DeleterEEE7_M_headERS5_
0000000000000000 t .text._ZNSt11_Tuple_implILm0EJPN4bssl19SSL_HANDSHAKE_HINTSENS0_8internal7DeleterEEEC2Ev
0000000000000000 t .text._ZNSt11_Tuple_implILm0EJPN4bssl9ECHConfigENS0_8internal7DeleterEEE7_M_headERS5_
0000000000000000 t .text._ZNSt11_Tuple_implILm0EJPN4bssl9ECHConfigENS0_8internal7DeleterEEEC2Ev
0000000000000000 t .text._ZNSt11_Tuple_implILm1EJN4bssl8internal7DeleterEEE7_M_headERS3_
0000000000000000 t .text._ZNSt11_Tuple_implILm1EJN4bssl8internal7DeleterEEEC2Ev
0000000000000000 t .text._ZNSt11_Tuple_implILm1EJN4bssl8internal7DeleterEEEC2IS2_EEOT_
0000000000000000 t .text._ZNSt15__uniq_ptr_implI11evp_pkey_stN4bssl8internal7DeleterEE10_M_deleterEv
0000000000000000 t .text._ZNSt15__uniq_ptr_implI11evp_pkey_stN4bssl8internal7DeleterEE6_M_ptrEv
0000000000000000 t .text._ZNSt15__uniq_ptr_implI11evp_pkey_stN4bssl8internal7DeleterEEC2Ev
0000000000000000 t .text._ZNSt15__uniq_ptr_implI14ssl_session_stN4bssl8internal7DeleterEE10_M_deleterEv
0000000000000000 t .text._ZNSt15__uniq_ptr_implI14ssl_session_stN4bssl8internal7DeleterEE6_M_ptrEv
0000000000000000 t .text._ZNSt15__uniq_ptr_implI14ssl_session_stN4bssl8internal7DeleterEEC2Ev
0000000000000000 t .text._ZNSt15__uniq_ptr_implI15ssl_ech_keys_stN4bssl8internal7DeleterEE10_M_deleterEv
0000000000000000 t .text._ZNSt15__uniq_ptr_implI15ssl_ech_keys_stN4bssl8internal7DeleterEE6_M_ptrEv
0000000000000000 t .text._ZNSt15__uniq_ptr_implI15ssl_ech_keys_stN4bssl8internal7DeleterEEC2Ev
0000000000000000 t .text._ZNSt15__uniq_ptr_implI16crypto_buffer_stN4bssl8internal7DeleterEE10_M_deleterEv
0000000000000000 t .text._ZNSt15__uniq_ptr_implI16crypto_buffer_stN4bssl8internal7DeleterEE6_M_ptrEv
0000000000000000 t .text._ZNSt15__uniq_ptr_implI16crypto_buffer_stN4bssl8internal7DeleterEEC2EPS0_
0000000000000000 t .text._ZNSt15__uniq_ptr_implI17err_save_state_stN4bssl8internal7DeleterEE10_M_deleterEv
0000000000000000 t .text._ZNSt15__uniq_ptr_implI17err_save_state_stN4bssl8internal7DeleterEE6_M_ptrEv
0000000000000000 t .text._ZNSt15__uniq_ptr_implI17err_save_state_stN4bssl8internal7DeleterEEC2Ev
0000000000000000 t .text._ZNSt15__uniq_ptr_implI22stack_st_CRYPTO_BUFFERN4bssl8internal7DeleterEE10_M_deleterEv
0000000000000000 t .text._ZNSt15__uniq_ptr_implI22stack_st_CRYPTO_BUFFERN4bssl8internal7DeleterEE6_M_ptrEv
0000000000000000 t .text._ZNSt15__uniq_ptr_implI22stack_st_CRYPTO_BUFFERN4bssl8internal7DeleterEEC2Ev
0000000000000000 t .text._ZNSt15__uniq_ptr_implIcN4bssl8internal7DeleterEE10_M_deleterEv
0000000000000000 t .text._ZNSt15__uniq_ptr_implIcN4bssl8internal7DeleterEE6_M_ptrEv
0000000000000000 t .text._ZNSt15__uniq_ptr_implIcN4bssl8internal7DeleterEEC2Ev
0000000000000000 t .text._ZNSt15__uniq_ptr_implIN4bssl11SSLKeyShareENS0_8internal7DeleterEE10_M_deleterEv
0000000000000000 t .text._ZNSt15__uniq_ptr_implIN4bssl11SSLKeyShareENS0_8internal7DeleterEE6_M_ptrEv
0000000000000000 t .text._ZNSt15__uniq_ptr_implIN4bssl13SSL_HANDSHAKEENS0_8internal7DeleterEE10_M_deleterEv
0000000000000000 t .text._ZNSt15__uniq_ptr_implIN4bssl13SSL_HANDSHAKEENS0_8internal7DeleterEE6_M_ptrEv
0000000000000000 t .text._ZNSt15__uniq_ptr_implIN4bssl13SSL_HANDSHAKEENS0_8internal7DeleterEEC2EPS1_
0000000000000000 t .text._ZNSt15__uniq_ptr_implIN4bssl13SSL_HANDSHAKEENS0_8internal7DeleterEEC2Ev
0000000000000000 t .text._ZNSt15__uniq_ptr_implIN4bssl13SSL_HANDSHAKEENS0_8internal7DeleterEEC2IS3_EEPS1_OT_
0000000000000000 t .text._ZNSt15__uniq_ptr_implIN4bssl19SSL_HANDSHAKE_HINTSENS0_8internal7DeleterEE10_M_deleterEv
0000000000000000 t .text._ZNSt15__uniq_ptr_implIN4bssl19SSL_HANDSHAKE_HINTSENS0_8internal7DeleterEE6_M_ptrEv
0000000000000000 t .text._ZNSt15__uniq_ptr_implIN4bssl19SSL_HANDSHAKE_HINTSENS0_8internal7DeleterEEC2Ev
0000000000000000 t .text._ZNSt15__uniq_ptr_implIN4bssl9ECHConfigENS0_8internal7DeleterEE10_M_deleterEv
0000000000000000 t .text._ZNSt15__uniq_ptr_implIN4bssl9ECHConfigENS0_8internal7DeleterEE6_M_ptrEv
0000000000000000 t .text._ZNSt15__uniq_ptr_implIN4bssl9ECHConfigENS0_8internal7DeleterEEC2Ev
0000000000000000 t .text._ZNSt5tupleIJP11evp_pkey_stN4bssl8internal7DeleterEEEC2IS1_S4_Lb1EEEv
0000000000000000 t .text._ZNSt5tupleIJP14ssl_session_stN4bssl8internal7DeleterEEEC2IS1_S4_Lb1EEEv
0000000000000000 t .text._ZNSt5tupleIJP15ssl_ech_keys_stN4bssl8internal7DeleterEEEC2IS1_S4_Lb1EEEv
0000000000000000 t .text._ZNSt5tupleIJP16crypto_buffer_stN4bssl8internal7DeleterEEEC2IS1_S4_Lb1EEEv
0000000000000000 t .text._ZNSt5tupleIJP17err_save_state_stN4bssl8internal7DeleterEEEC2IS1_S4_Lb1EEEv
0000000000000000 t .text._ZNSt5tupleIJP22stack_st_CRYPTO_BUFFERN4bssl8internal7DeleterEEEC2IS1_S4_Lb1EEEv
0000000000000000 t .text._ZNSt5tupleIJPcN4bssl8internal7DeleterEEEC2IS0_S3_Lb1EEEv
0000000000000000 t .text._ZNSt5tupleIJPN4bssl13SSL_HANDSHAKEENS0_8internal7DeleterEEEC2IRS2_S4_Lb1EEEOT_OT0_
0000000000000000 t .text._ZNSt5tupleIJPN4bssl13SSL_HANDSHAKEENS0_8internal7DeleterEEEC2IS2_S4_Lb1EEEv
0000000000000000 t .text._ZNSt5tupleIJPN4bssl19SSL_HANDSHAKE_HINTSENS0_8internal7DeleterEEEC2IS2_S4_Lb1EEEv
0000000000000000 t .text._ZNSt5tupleIJPN4bssl9ECHConfigENS0_8internal7DeleterEEEC2IS2_S4_Lb1EEEv
0000000000000000 t .text._ZnwmPv
0000000000000000 t .text._ZSt12__get_helperILm0EP10ssl_ctx_stJN4bssl8internal7DeleterEEERKT0_RKSt11_Tuple_implIXT_EJS5_DpT1_EE
0000000000000000 t .text._ZSt12__get_helperILm0EP11evp_pkey_stJN4bssl8internal7DeleterEEERT0_RSt11_Tuple_implIXT_EJS5_DpT1_EE
0000000000000000 t .text._ZSt12__get_helperILm0EP14ssl_session_stJN4bssl8internal7DeleterEEERKT0_RKSt11_Tuple_implIXT_EJS5_DpT1_EE
0000000000000000 t .text._ZSt12__get_helperILm0EP14ssl_session_stJN4bssl8internal7DeleterEEERT0_RSt11_Tuple_implIXT_EJS5_DpT1_EE
0000000000000000 t .text._ZSt12__get_helperILm0EP15ssl_ech_keys_stJN4bssl8internal7DeleterEEERT0_RSt11_Tuple_implIXT_EJS5_DpT1_EE
0000000000000000 t .text._ZSt12__get_helperILm0EP16crypto_buffer_stJN4bssl8internal7DeleterEEERKT0_RKSt11_Tuple_implIXT_EJS5_DpT1_EE
0000000000000000 t .text._ZSt12__get_helperILm0EP16crypto_buffer_stJN4bssl8internal7DeleterEEERT0_RSt11_Tuple_implIXT_EJS5_DpT1_EE
0000000000000000 t .text._ZSt12__get_helperILm0EP17err_save_state_stJN4bssl8internal7DeleterEEERKT0_RKSt11_Tuple_implIXT_EJS5_DpT1_EE
0000000000000000 t .text._ZSt12__get_helperILm0EP17err_save_state_stJN4bssl8internal7DeleterEEERT0_RSt11_Tuple_implIXT_EJS5_DpT1_EE
0000000000000000 t .text._ZSt12__get_helperILm0EP22stack_st_CRYPTO_BUFFERJN4bssl8internal7DeleterEEERKT0_RKSt11_Tuple_implIXT_EJS5_DpT1_EE
0000000000000000 t .text._ZSt12__get_helperILm0EP22stack_st_CRYPTO_BUFFERJN4bssl8internal7DeleterEEERT0_RSt11_Tuple_implIXT_EJS5_DpT1_EE
0000000000000000 t .text._ZSt12__get_helperILm0EPcJN4bssl8internal7DeleterEEERT0_RSt11_Tuple_implIXT_EJS4_DpT1_EE
0000000000000000 t .text._ZSt12__get_helperILm0EPN4bssl10SSL_CONFIGEJNS0_8internal7DeleterEEERKT0_RKSt11_Tuple_implIXT_EJS5_DpT1_EE
0000000000000000 t .text._ZSt12__get_helperILm0EPN4bssl11SSLKeyShareEJNS0_8internal7DeleterEEERT0_RSt11_Tuple_implIXT_EJS5_DpT1_EE
0000000000000000 t .text._ZSt12__get_helperILm0EPN4bssl13SSL_HANDSHAKEEJNS0_8internal7DeleterEEERKT0_RKSt11_Tuple_implIXT_EJS5_DpT1_EE
0000000000000000 t .text._ZSt12__get_helperILm0EPN4bssl13SSL_HANDSHAKEEJNS0_8internal7DeleterEEERT0_RSt11_Tuple_implIXT_EJS5_DpT1_EE
0000000000000000 t .text._ZSt12__get_helperILm0EPN4bssl19SSL_HANDSHAKE_HINTSEJNS0_8internal7DeleterEEERT0_RSt11_Tuple_implIXT_EJS5_DpT1_EE
0000000000000000 t .text._ZSt12__get_helperILm0EPN4bssl9ECHConfigEJNS0_8internal7DeleterEEERT0_RSt11_Tuple_implIXT_EJS5_DpT1_EE
0000000000000000 t .text._ZSt12__get_helperILm1EN4bssl8internal7DeleterEJEERT0_RSt11_Tuple_implIXT_EJS3_DpT1_EE
0000000000000000 t .text._ZSt3getILm0EJP10ssl_ctx_stN4bssl8internal7DeleterEEERKNSt13tuple_elementIXT_ESt5tupleIJDpT0_EEE4typeERKS9_
0000000000000000 t .text._ZSt3getILm0EJP11evp_pkey_stN4bssl8internal7DeleterEEERNSt13tuple_elementIXT_ESt5tupleIJDpT0_EEE4typeERS9_
0000000000000000 t .text._ZSt3getILm0EJP14ssl_session_stN4bssl8internal7DeleterEEERKNSt13tuple_elementIXT_ESt5tupleIJDpT0_EEE4typeERKS9_
0000000000000000 t .text._ZSt3getILm0EJP14ssl_session_stN4bssl8internal7DeleterEEERNSt13tuple_elementIXT_ESt5tupleIJDpT0_EEE4typeERS9_
0000000000000000 t .text._ZSt3getILm0EJP15ssl_ech_keys_stN4bssl8internal7DeleterEEERNSt13tuple_elementIXT_ESt5tupleIJDpT0_EEE4typeERS9_
0000000000000000 t .text._ZSt3getILm0EJP16crypto_buffer_stN4bssl8internal7DeleterEEERKNSt13tuple_elementIXT_ESt5tupleIJDpT0_EEE4typeERKS9_
0000000000000000 t .text._ZSt3getILm0EJP16crypto_buffer_stN4bssl8internal7DeleterEEERNSt13tuple_elementIXT_ESt5tupleIJDpT0_EEE4typeERS9_
0000000000000000 t .text._ZSt3getILm0EJP17err_save_state_stN4bssl8internal7DeleterEEERKNSt13tuple_elementIXT_ESt5tupleIJDpT0_EEE4typeERKS9_
0000000000000000 t .text._ZSt3getILm0EJP17err_save_state_stN4bssl8internal7DeleterEEERNSt13tuple_elementIXT_ESt5tupleIJDpT0_EEE4typeERS9_
0000000000000000 t .text._ZSt3getILm0EJP22stack_st_CRYPTO_BUFFERN4bssl8internal7DeleterEEERKNSt13tuple_elementIXT_ESt5tupleIJDpT0_EEE4typeERKS9_
0000000000000000 t .text._ZSt3getILm0EJP22stack_st_CRYPTO_BUFFERN4bssl8internal7DeleterEEERNSt13tuple_elementIXT_ESt5tupleIJDpT0_EEE4typeERS9_
0000000000000000 t .text._ZSt3getILm0EJPcN4bssl8internal7DeleterEEERNSt13tuple_elementIXT_ESt5tupleIJDpT0_EEE4typeERS8_
0000000000000000 t .text._ZSt3getILm0EJPN4bssl10SSL_CONFIGENS0_8internal7DeleterEEERKNSt13tuple_elementIXT_ESt5tupleIJDpT0_EEE4typeERKS9_
0000000000000000 t .text._ZSt3getILm0EJPN4bssl11SSLKeyShareENS0_8internal7DeleterEEERNSt13tuple_elementIXT_ESt5tupleIJDpT0_EEE4typeERS9_
0000000000000000 t .text._ZSt3getILm0EJPN4bssl13SSL_HANDSHAKEENS0_8internal7DeleterEEERKNSt13tuple_elementIXT_ESt5tupleIJDpT0_EEE4typeERKS9_
0000000000000000 t .text._ZSt3getILm0EJPN4bssl13SSL_HANDSHAKEENS0_8internal7DeleterEEERNSt13tuple_elementIXT_ESt5tupleIJDpT0_EEE4typeERS9_
0000000000000000 t .text._ZSt3getILm0EJPN4bssl19SSL_HANDSHAKE_HINTSENS0_8internal7DeleterEEERNSt13tuple_elementIXT_ESt5tupleIJDpT0_EEE4typeERS9_
0000000000000000 t .text._ZSt3getILm0EJPN4bssl9ECHConfigENS0_8internal7DeleterEEERNSt13tuple_elementIXT_ESt5tupleIJDpT0_EEE4typeERS9_
0000000000000000 t .text._ZSt3getILm1EJP11evp_pkey_stN4bssl8internal7DeleterEEERNSt13tuple_elementIXT_ESt5tupleIJDpT0_EEE4typeERS9_
0000000000000000 t .text._ZSt3getILm1EJP14ssl_session_stN4bssl8internal7DeleterEEERNSt13tuple_elementIXT_ESt5tupleIJDpT0_EEE4typeERS9_
0000000000000000 t .text._ZSt3getILm1EJP15ssl_ech_keys_stN4bssl8internal7DeleterEEERNSt13tuple_elementIXT_ESt5tupleIJDpT0_EEE4typeERS9_
0000000000000000 t .text._ZSt3getILm1EJP16crypto_buffer_stN4bssl8internal7DeleterEEERNSt13tuple_elementIXT_ESt5tupleIJDpT0_EEE4typeERS9_
0000000000000000 t .text._ZSt3getILm1EJP17err_save_state_stN4bssl8internal7DeleterEEERNSt13tuple_elementIXT_ESt5tupleIJDpT0_EEE4typeERS9_
0000000000000000 t .text._ZSt3getILm1EJP22stack_st_CRYPTO_BUFFERN4bssl8internal7DeleterEEERNSt13tuple_elementIXT_ESt5tupleIJDpT0_EEE4typeERS9_
0000000000000000 t .text._ZSt3getILm1EJPcN4bssl8internal7DeleterEEERNSt13tuple_elementIXT_ESt5tupleIJDpT0_EEE4typeERS8_
0000000000000000 t .text._ZSt3getILm1EJPN4bssl11SSLKeyShareENS0_8internal7DeleterEEERNSt13tuple_elementIXT_ESt5tupleIJDpT0_EEE4typeERS9_
0000000000000000 t .text._ZSt3getILm1EJPN4bssl13SSL_HANDSHAKEENS0_8internal7DeleterEEERNSt13tuple_elementIXT_ESt5tupleIJDpT0_EEE4typeERS9_
0000000000000000 t .text._ZSt3getILm1EJPN4bssl19SSL_HANDSHAKE_HINTSENS0_8internal7DeleterEEERNSt13tuple_elementIXT_ESt5tupleIJDpT0_EEE4typeERS9_
0000000000000000 t .text._ZSt3getILm1EJPN4bssl9ECHConfigENS0_8internal7DeleterEEERNSt13tuple_elementIXT_ESt5tupleIJDpT0_EEE4typeERS9_
0000000000000000 t .text._ZSt3minImERKT_S2_S2_
0000000000000000 t .text._ZSt4moveIRN4bssl5ArrayIhEEEONSt16remove_referenceIT_E4typeEOS5_
0000000000000000 t .text._ZSt4moveIRP16crypto_buffer_stEONSt16remove_referenceIT_E4typeEOS4_
0000000000000000 t .text._ZSt4moveIRP17err_save_state_stEONSt16remove_referenceIT_E4typeEOS4_
0000000000000000 t .text._ZSt4swapIP16crypto_buffer_stENSt9enable_ifIXsrSt6__and_IJSt6__not_ISt15__is_tuple_likeIT_EESt21is_move_constructibleIS6_ESt18is_move_assignableIS6_EEE5valueEvE4typeERS6_SG_
0000000000000000 t .text._ZSt4swapIP17err_save_state_stENSt9enable_ifIXsrSt6__and_IJSt6__not_ISt15__is_tuple_likeIT_EESt21is_move_constructibleIS6_ESt18is_move_assignableIS6_EEE5valueEvE4typeERS6_SG_
0000000000000000 t .text._ZSt7forwardIN4bssl8internal7DeleterEEOT_RNSt16remove_referenceIS3_E4typeE
0000000000000000 t .text._ZSt7forwardIRP6ssl_stEOT_RNSt16remove_referenceIS3_E4typeE
0000000000000000 t .text._ZSt7forwardIRPN4bssl13SSL_HANDSHAKEEEOT_RNSt16remove_referenceIS4_E4typeE
0000000000000000 t .text._ZSteqI14ssl_session_stN4bssl8internal7DeleterEEbRKSt10unique_ptrIT_T0_EDn
0000000000000000 t .text._ZZN4bssl8internal11DeleterImplI22stack_st_CRYPTO_BUFFERvE4FreeEPS2_ENKUlPFvPvES5_E_clES7_S5_
0000000000000000 t .text._ZZN4bssl8internal11DeleterImplI22stack_st_CRYPTO_BUFFERvE4FreeEPS2_ENKUlPFvPvES5_E_cvPFvS7_S5_EEv
0000000000000000 t .text._ZZN4bssl8internal11DeleterImplI22stack_st_CRYPTO_BUFFERvE4FreeEPS2_ENUlPFvPvES5_E_4_FUNES7_S5_
0000000000000000 W _ZN4bssl10MakeUniqueINS_13SSL_HANDSHAKEEJRP6ssl_stEEESt10unique_ptrIT_NS_8internal7DeleterEEDpOT0_
0000000000000000 W _ZN4bssl13MakeConstSpanIKhEENS_4SpanIKT_EEPS3_m
0000000000000000 W _ZN4bssl13MakeConstSpanINS_5ArrayIhEEEEDTcl13MakeConstSpancldtfp_4dataEcldtfp_4sizeEEERKT_
0000000000000000 T _ZN4bssl13SSL_HANDSHAKE13ResizeSecretsEm
0000000000000000 T _ZN4bssl13SSL_HANDSHAKE14GetClientHelloEPNS_10SSLMessageEP22ssl_early_callback_ctx
0000000000000000 T _ZN4bssl13SSL_HANDSHAKEC1EP6ssl_st
0000000000000000 T _ZN4bssl13SSL_HANDSHAKEC2EP6ssl_st
0000000000000000 T _ZN4bssl13SSL_HANDSHAKED1Ev
0000000000000000 T _ZN4bssl13SSL_HANDSHAKED2Ev
0000000000000000 W _ZN4bssl13SSL_HANDSHAKEUt_C1Ev
0000000000000000 W _ZN4bssl13SSL_HANDSHAKEUt_C2Ev
0000000000000000 n _ZN4bssl13SSL_HANDSHAKEUt_C5Ev
                 U _ZN4bssl13SSLTranscript4InitEv
                 U _ZN4bssl13SSLTranscript6UpdateENS_4SpanIKhEE
                 U _ZN4bssl13SSLTranscriptC1Ev
                 U _ZN4bssl13SSLTranscriptD1Ev
                 U _ZN4bssl14ssl_log_secretEPK6ssl_stPKcNS_4SpanIKhEE
                 U _ZN4bssl14ssl_send_alertEP6ssl_stii
0000000000000000 T _ZN4bssl16ssl_get_finishedEPNS_13SSL_HANDSHAKEE
0000000000000000 T _ZN4bssl16ssl_hash_messageEPNS_13SSL_HANDSHAKEERKNS_10SSLMessageE
0000000000000000 T _ZN4bssl17ssl_handshake_newEP6ssl_st
0000000000000000 T _ZN4bssl17ssl_run_handshakeEPNS_13SSL_HANDSHAKEEPb
0000000000000000 T _ZN4bssl17ssl_send_finishedEPNS_13SSL_HANDSHAKEE
                 U _ZN4bssl18ssl_add_cert_chainEPNS_13SSL_HANDSHAKEEP6cbb_st
                 U _ZN4bssl18ssl_open_handshakeEP6ssl_stPmPhNS_4SpanIhEE
0000000000000000 T _ZN4bssl19ssl_add_message_cbbEP6ssl_stP6cbb_st
0000000000000000 W _ZN4bssl19SSL_HANDSHAKE_HINTSD1Ev
0000000000000000 W _ZN4bssl19SSL_HANDSHAKE_HINTSD2Ev
0000000000000000 n _ZN4bssl19SSL_HANDSHAKE_HINTSD5Ev
0000000000000000 T _ZN4bssl20ssl_get_grease_valueEPKNS_13SSL_HANDSHAKEENS_18ssl_grease_index_tE
0000000000000000 T _ZN4bssl20ssl_parse_extensionsEPK6cbs_stPhSt16initializer_listIPNS_12SSLExtensionEEb
                 U _ZN4bssl20ssl_protocol_versionEPK6ssl_st
0000000000000000 T _ZN4bssl20ssl_verify_peer_certEPNS_13SSL_HANDSHAKEE
                 U _ZN4bssl21ssl_client_hello_initEPK6ssl_stP22ssl_early_callback_ctxNS_4SpanIKhEE
0000000000000000 T _ZN4bssl21ssl_handshake_sessionEPKNS_13SSL_HANDSHAKEE
0000000000000000 T _ZN4bssl21ssl_output_cert_chainEPNS_13SSL_HANDSHAKEE
0000000000000000 T _ZN4bssl22ssl_check_message_typeEP6ssl_stRKNS_10SSLMessageEi
                 U _ZN4bssl22ssl_handle_open_recordEP6ssl_stPbNS_17ssl_open_record_tEmh
0000000000000000 T _ZN4bssl22ssl_reverify_peer_certEPNS_13SSL_HANDSHAKEEb
                 U _ZN4bssl27ssl_open_change_cipher_specEP6ssl_stPmPhNS_4SpanIhEE
0000000000000000 T _ZN4bssl29ssl_max_handshake_message_lenEPK6ssl_st
0000000000000000 W _ZN4bssl3NewINS_13SSL_HANDSHAKEEJRP6ssl_stEEEPT_DpOT0_
0000000000000000 W _ZN4bssl4SpanIhEC1EPhm
0000000000000000 W _ZN4bssl4SpanIhEC2EPhm
0000000000000000 n _ZN4bssl4SpanIhEC5EPhm
0000000000000000 W _ZN4bssl4SpanIKhEC1EPS1_m
0000000000000000 W _ZN4bssl4SpanIKhEC1INS_5ArrayIhEEvS5_EERKT_
0000000000000000 W _ZN4bssl4SpanIKhEC2EPS1_m
0000000000000000 W _ZN4bssl4SpanIKhEC2INS_5ArrayIhEEvS5_EERKT_
0000000000000000 n _ZN4bssl4SpanIKhEC5EPS1_m
0000000000000000 n _ZN4bssl4SpanIKhEC5INS_5ArrayIhEEvS5_EERKT_
0000000000000000 W _ZN4bssl5ArrayIhE5ResetEPhm
0000000000000000 W _ZN4bssl5ArrayIhE5ResetEv
0000000000000000 W _ZN4bssl5ArrayIhE7ReleaseEPPhPm
0000000000000000 W _ZN4bssl5ArrayIhEaSEOS1_
0000000000000000 W _ZN4bssl5ArrayIhEC1EOS1_
0000000000000000 W _ZN4bssl5ArrayIhEC1Ev
0000000000000000 W _ZN4bssl5ArrayIhEC2EOS1_
0000000000000000 W _ZN4bssl5ArrayIhEC2Ev
0000000000000000 n _ZN4bssl5ArrayIhEC5EOS1_
0000000000000000 n _ZN4bssl5ArrayIhEC5Ev
0000000000000000 W _ZN4bssl5ArrayIhED1Ev
0000000000000000 W _ZN4bssl5ArrayIhED2Ev
0000000000000000 n _ZN4bssl5ArrayIhED5Ev
0000000000000000 W _ZN4bssl5ArrayItE5ResetEPtm
0000000000000000 W _ZN4bssl5ArrayItE5ResetEv
0000000000000000 W _ZN4bssl5ArrayItEC1Ev
0000000000000000 W _ZN4bssl5ArrayItEC2Ev
0000000000000000 n _ZN4bssl5ArrayItEC5Ev
0000000000000000 W _ZN4bssl5ArrayItED1Ev
0000000000000000 W _ZN4bssl5ArrayItED2Ev
0000000000000000 n _ZN4bssl5ArrayItED5Ev
0000000000000000 W _ZN4bssl5UpRefEP16crypto_buffer_st
0000000000000000 W _ZN4bssl5UpRefERKSt10unique_ptrI16crypto_buffer_stNS_8internal7DeleterEE
0000000000000000 W _ZN4bssl6DeleteINS_11SSLKeyShareEEEvPT_
0000000000000000 W _ZN4bssl6DeleteINS_13SSL_HANDSHAKEEEEvPT_
0000000000000000 W _ZN4bssl6DeleteINS_19SSL_HANDSHAKE_HINTSEEEvPT_
0000000000000000 W _ZN4bssl6DeleteINS_9ECHConfigEEEvPT_
0000000000000000 W _ZN4bssl8internal11DeleterImplI11evp_pkey_stvE4FreeEPS2_
0000000000000000 W _ZN4bssl8internal11DeleterImplI14ssl_session_stvE4FreeEPS2_
0000000000000000 W _ZN4bssl8internal11DeleterImplI15ssl_ech_keys_stvE4FreeEPS2_
0000000000000000 W _ZN4bssl8internal11DeleterImplI16crypto_buffer_stvE4FreeEPS2_
0000000000000000 W _ZN4bssl8internal11DeleterImplI17err_save_state_stvE4FreeEPS2_
0000000000000000 W _ZN4bssl8internal11DeleterImplI22stack_st_CRYPTO_BUFFERvE4FreeEPS2_
0000000000000000 W _ZN4bssl8internal11DeleterImplIcvE4FreeEPc
0000000000000000 W _ZN4bssl8internal11DeleterImplINS_11SSLKeyShareEvE4FreeEPS2_
0000000000000000 W _ZN4bssl8internal11DeleterImplINS_13SSL_HANDSHAKEEvE4FreeEPS2_
0000000000000000 W _ZN4bssl8internal11DeleterImplINS_19SSL_HANDSHAKE_HINTSEvE4FreeEPS2_
0000000000000000 W _ZN4bssl8internal11DeleterImplINS_9ECHConfigEvE4FreeEPS2_
0000000000000000 W _ZN4bssl8internal14StackAllocatedI15evp_hpke_ctx_stvXadL_Z17EVP_HPKE_CTX_zeroEEXadL_Z20EVP_HPKE_CTX_cleanupEEEC1Ev
0000000000000000 W _ZN4bssl8internal14StackAllocatedI15evp_hpke_ctx_stvXadL_Z17EVP_HPKE_CTX_zeroEEXadL_Z20EVP_HPKE_CTX_cleanupEEEC2Ev
0000000000000000 n _ZN4bssl8internal14StackAllocatedI15evp_hpke_ctx_stvXadL_Z17EVP_HPKE_CTX_zeroEEXadL_Z20EVP_HPKE_CTX_cleanupEEEC5Ev
0000000000000000 W _ZN4bssl8internal14StackAllocatedI15evp_hpke_ctx_stvXadL_Z17EVP_HPKE_CTX_zeroEEXadL_Z20EVP_HPKE_CTX_cleanupEEED1Ev
0000000000000000 W _ZN4bssl8internal14StackAllocatedI15evp_hpke_ctx_stvXadL_Z17EVP_HPKE_CTX_zeroEEXadL_Z20EVP_HPKE_CTX_cleanupEEED2Ev
0000000000000000 n _ZN4bssl8internal14StackAllocatedI15evp_hpke_ctx_stvXadL_Z17EVP_HPKE_CTX_zeroEEXadL_Z20EVP_HPKE_CTX_cleanupEEED5Ev
0000000000000000 W _ZN4bssl8internal14StackAllocatedI6cbb_stvXadL_Z8CBB_zeroEEXadL_Z11CBB_cleanupEEE3getEv
0000000000000000 W _ZN4bssl8internal14StackAllocatedI6cbb_stvXadL_Z8CBB_zeroEEXadL_Z11CBB_cleanupEEEC1Ev
0000000000000000 W _ZN4bssl8internal14StackAllocatedI6cbb_stvXadL_Z8CBB_zeroEEXadL_Z11CBB_cleanupEEEC2Ev
0000000000000000 n _ZN4bssl8internal14StackAllocatedI6cbb_stvXadL_Z8CBB_zeroEEXadL_Z11CBB_cleanupEEEC5Ev
0000000000000000 W _ZN4bssl8internal14StackAllocatedI6cbb_stvXadL_Z8CBB_zeroEEXadL_Z11CBB_cleanupEEED1Ev
0000000000000000 W _ZN4bssl8internal14StackAllocatedI6cbb_stvXadL_Z8CBB_zeroEEXadL_Z11CBB_cleanupEEED2Ev
0000000000000000 n _ZN4bssl8internal14StackAllocatedI6cbb_stvXadL_Z8CBB_zeroEEXadL_Z11CBB_cleanupEEED5Ev
0000000000000000 W _ZN4bssl8internal7DeleterclI11evp_pkey_stEEvPT_
0000000000000000 W _ZN4bssl8internal7DeleterclI14ssl_session_stEEvPT_
0000000000000000 W _ZN4bssl8internal7DeleterclI15ssl_ech_keys_stEEvPT_
0000000000000000 W _ZN4bssl8internal7DeleterclI16crypto_buffer_stEEvPT_
0000000000000000 W _ZN4bssl8internal7DeleterclI17err_save_state_stEEvPT_
0000000000000000 W _ZN4bssl8internal7DeleterclI22stack_st_CRYPTO_BUFFEREEvPT_
0000000000000000 W _ZN4bssl8internal7DeleterclIcEEvPT_
0000000000000000 W _ZN4bssl8internal7DeleterclINS_11SSLKeyShareEEEvPT_
0000000000000000 W _ZN4bssl8internal7DeleterclINS_13SSL_HANDSHAKEEEEvPT_
0000000000000000 W _ZN4bssl8internal7DeleterclINS_19SSL_HANDSHAKE_HINTSEEEvPT_
0000000000000000 W _ZN4bssl8internal7DeleterclINS_9ECHConfigEEEvPT_
0000000000000000 W _ZN4bssl8MakeSpanIhEENS_4SpanIT_EEPS2_m
0000000000000000 W _ZN4bssl9ECHConfigD1Ev
0000000000000000 W _ZN4bssl9ECHConfigD2Ev
0000000000000000 n _ZN4bssl9ECHConfigD5Ev
                 U _ZN4bssl9SSLBuffer15DiscardConsumedEv
0000000000000000 W _ZN4bssl9SSLBuffer4dataEv
0000000000000000 W _ZN4bssl9SSLBuffer4spanEv
0000000000000000 r _ZN4bsslL11kMaxTicketsE
0000000000000000 t _ZN4bsslL21grease_index_to_valueEPKNS_13SSL_HANDSHAKEENS_18ssl_grease_index_tE
0000000000000000 r _ZN4bsslL21kMaxEarlyDataAcceptedE
0000000000000000 W _ZN6cbs_stC1EN4bssl4SpanIKhEE
0000000000000000 W _ZN6cbs_stC2EN4bssl4SpanIKhEE
0000000000000000 n _ZN6cbs_stC5EN4bssl4SpanIKhEE
0000000000000000 r _ZN9__gnu_cxxL21__default_lock_policyE
                 U _ZNK4bssl13SSLTranscript14GetFinishedMACEPhPmPK14ssl_session_stb
0000000000000000 W _ZNK4bssl4SpanIKhE4dataEv
0000000000000000 W _ZNK4bssl4SpanIKhE4sizeEv
0000000000000000 W _ZNK4bssl4SpanIKhE7subspanEmm
0000000000000000 W _ZNK4bssl5ArrayIhE4dataEv
0000000000000000 W _ZNK4bssl5ArrayIhE4sizeEv
0000000000000000 W _ZNK4bssl5ArrayIhE5emptyEv
0000000000000000 W _ZNK4bssl9SSLBuffer4sizeEv
0000000000000000 W _ZNK6cbs_stcvN4bssl4SpanIKhEEEv
0000000000000000 W _ZNKSt10unique_ptrI10ssl_ctx_stN4bssl8internal7DeleterEE3getEv
0000000000000000 W _ZNKSt10unique_ptrI10ssl_ctx_stN4bssl8internal7DeleterEEptEv
0000000000000000 W _ZNKSt10unique_ptrI14ssl_session_stN4bssl8internal7DeleterEE3getEv
0000000000000000 W _ZNKSt10unique_ptrI14ssl_session_stN4bssl8internal7DeleterEEcvbEv
0000000000000000 W _ZNKSt10unique_ptrI14ssl_session_stN4bssl8internal7DeleterEEptEv
0000000000000000 W _ZNKSt10unique_ptrI16crypto_buffer_stN4bssl8internal7DeleterEE3getEv
0000000000000000 W _ZNKSt10unique_ptrI17err_save_state_stN4bssl8internal7DeleterEE3getEv
0000000000000000 W _ZNKSt10unique_ptrI22stack_st_CRYPTO_BUFFERN4bssl8internal7DeleterEE3getEv
0000000000000000 W _ZNKSt10unique_ptrIN4bssl10SSL_CONFIGENS0_8internal7DeleterEE3getEv
0000000000000000 W _ZNKSt10unique_ptrIN4bssl13SSL_HANDSHAKEENS0_8internal7DeleterEE3getEv
0000000000000000 W _ZNKSt10unique_ptrIN4bssl13SSL_HANDSHAKEENS0_8internal7DeleterEEcvbEv
0000000000000000 W _ZNKSt10unique_ptrIN4bssl13SSL_HANDSHAKEENS0_8internal7DeleterEEptEv
0000000000000000 W _ZNKSt15__uniq_ptr_implI10ssl_ctx_stN4bssl8internal7DeleterEE6_M_ptrEv
0000000000000000 W _ZNKSt15__uniq_ptr_implI14ssl_session_stN4bssl8internal7DeleterEE6_M_ptrEv
0000000000000000 W _ZNKSt15__uniq_ptr_implI16crypto_buffer_stN4bssl8internal7DeleterEE6_M_ptrEv
0000000000000000 W _ZNKSt15__uniq_ptr_implI17err_save_state_stN4bssl8internal7DeleterEE6_M_ptrEv
0000000000000000 W _ZNKSt15__uniq_ptr_implI22stack_st_CRYPTO_BUFFERN4bssl8internal7DeleterEE6_M_ptrEv
0000000000000000 W _ZNKSt15__uniq_ptr_implIN4bssl10SSL_CONFIGENS0_8internal7DeleterEE6_M_ptrEv
0000000000000000 W _ZNKSt15__uniq_ptr_implIN4bssl13SSL_HANDSHAKEENS0_8internal7DeleterEE6_M_ptrEv
0000000000000000 W _ZNKSt16initializer_listIPN4bssl12SSLExtensionEE3endEv
0000000000000000 W _ZNKSt16initializer_listIPN4bssl12SSLExtensionEE4sizeEv
0000000000000000 W _ZNKSt16initializer_listIPN4bssl12SSLExtensionEE5beginEv
0000000000000000 W _ZNSt10_Head_baseILm0EP10ssl_ctx_stLb0EE7_M_headERKS2_
0000000000000000 W _ZNSt10_Head_baseILm0EP11evp_pkey_stLb0EE7_M_headERS2_
0000000000000000 W _ZNSt10_Head_baseILm0EP11evp_pkey_stLb0EEC1Ev
0000000000000000 W _ZNSt10_Head_baseILm0EP11evp_pkey_stLb0EEC2Ev
0000000000000000 n _ZNSt10_Head_baseILm0EP11evp_pkey_stLb0EEC5Ev
0000000000000000 W _ZNSt10_Head_baseILm0EP14ssl_session_stLb0EE7_M_headERKS2_
0000000000000000 W _ZNSt10_Head_baseILm0EP14ssl_session_stLb0EE7_M_headERS2_
0000000000000000 W _ZNSt10_Head_baseILm0EP14ssl_session_stLb0EEC1Ev
0000000000000000 W _ZNSt10_Head_baseILm0EP14ssl_session_stLb0EEC2Ev
0000000000000000 n _ZNSt10_Head_baseILm0EP14ssl_session_stLb0EEC5Ev
0000000000000000 W _ZNSt10_Head_baseILm0EP15ssl_ech_keys_stLb0EE7_M_headERS2_
0000000000000000 W _ZNSt10_Head_baseILm0EP15ssl_ech_keys_stLb0EEC1Ev
0000000000000000 W _ZNSt10_Head_baseILm0EP15ssl_ech_keys_stLb0EEC2Ev
0000000000000000 n _ZNSt10_Head_baseILm0EP15ssl_ech_keys_stLb0EEC5Ev
0000000000000000 W _ZNSt10_Head_baseILm0EP16crypto_buffer_stLb0EE7_M_headERKS2_
0000000000000000 W _ZNSt10_Head_baseILm0EP16crypto_buffer_stLb0EE7_M_headERS2_
0000000000000000 W _ZNSt10_Head_baseILm0EP16crypto_buffer_stLb0EEC1Ev
0000000000000000 W _ZNSt10_Head_baseILm0EP16crypto_buffer_stLb0EEC2Ev
0000000000000000 n _ZNSt10_Head_baseILm0EP16crypto_buffer_stLb0EEC5Ev
0000000000000000 W _ZNSt10_Head_baseILm0EP17err_save_state_stLb0EE7_M_headERKS2_
0000000000000000 W _ZNSt10_Head_baseILm0EP17err_save_state_stLb0EE7_M_headERS2_
0000000000000000 W _ZNSt10_Head_baseILm0EP17err_save_state_stLb0EEC1Ev
0000000000000000 W _ZNSt10_Head_baseILm0EP17err_save_state_stLb0EEC2Ev
0000000000000000 n _ZNSt10_Head_baseILm0EP17err_save_state_stLb0EEC5Ev
0000000000000000 W _ZNSt10_Head_baseILm0EP22stack_st_CRYPTO_BUFFERLb0EE7_M_headERKS2_
0000000000000000 W _ZNSt10_Head_baseILm0EP22stack_st_CRYPTO_BUFFERLb0EE7_M_headERS2_
0000000000000000 W _ZNSt10_Head_baseILm0EP22stack_st_CRYPTO_BUFFERLb0EEC1Ev
0000000000000000 W _ZNSt10_Head_baseILm0EP22stack_st_CRYPTO_BUFFERLb0EEC2Ev
0000000000000000 n _ZNSt10_Head_baseILm0EP22stack_st_CRYPTO_BUFFERLb0EEC5Ev
0000000000000000 W _ZNSt10_Head_baseILm0EPcLb0EE7_M_headERS1_
0000000000000000 W _ZNSt10_Head_baseILm0EPcLb0EEC1Ev
0000000000000000 W _ZNSt10_Head_baseILm0EPcLb0EEC2Ev
0000000000000000 n _ZNSt10_Head_baseILm0EPcLb0EEC5Ev
0000000000000000 W _ZNSt10_Head_baseILm0EPN4bssl10SSL_CONFIGELb0EE7_M_headERKS3_
0000000000000000 W _ZNSt10_Head_baseILm0EPN4bssl11SSLKeyShareELb0EE7_M_headERS3_
0000000000000000 W _ZNSt10_Head_baseILm0EPN4bssl13SSL_HANDSHAKEELb0EE7_M_headERKS3_
0000000000000000 W _ZNSt10_Head_baseILm0EPN4bssl13SSL_HANDSHAKEELb0EE7_M_headERS3_
0000000000000000 W _ZNSt10_Head_baseILm0EPN4bssl13SSL_HANDSHAKEELb0EEC1Ev
0000000000000000 W _ZNSt10_Head_baseILm0EPN4bssl13SSL_HANDSHAKEELb0EEC1IRS2_EEOT_
0000000000000000 W _ZNSt10_Head_baseILm0EPN4bssl13SSL_HANDSHAKEELb0EEC2Ev
0000000000000000 W _ZNSt10_Head_baseILm0EPN4bssl13SSL_HANDSHAKEELb0EEC2IRS2_EEOT_
0000000000000000 n _ZNSt10_Head_baseILm0EPN4bssl13SSL_HANDSHAKEELb0EEC5Ev
0000000000000000 n _ZNSt10_Head_baseILm0EPN4bssl13SSL_HANDSHAKEELb0EEC5IRS2_EEOT_
0000000000000000 W _ZNSt10_Head_baseILm0EPN4bssl19SSL_HANDSHAKE_HINTSELb0EE7_M_headERS3_
0000000000000000 W _ZNSt10_Head_baseILm0EPN4bssl19SSL_HANDSHAKE_HINTSELb0EEC1Ev
0000000000000000 W _ZNSt10_Head_baseILm0EPN4bssl19SSL_HANDSHAKE_HINTSELb0EEC2Ev
0000000000000000 n _ZNSt10_Head_baseILm0EPN4bssl19SSL_HANDSHAKE_HINTSELb0EEC5Ev
0000000000000000 W _ZNSt10_Head_baseILm0EPN4bssl9ECHConfigELb0EE7_M_headERS3_
0000000000000000 W _ZNSt10_Head_baseILm0EPN4bssl9ECHConfigELb0EEC1Ev
0000000000000000 W _ZNSt10_Head_baseILm0EPN4bssl9ECHConfigELb0EEC2Ev
0000000000000000 n _ZNSt10_Head_baseILm0EPN4bssl9ECHConfigELb0EEC5Ev
0000000000000000 W _ZNSt10_Head_baseILm1EN4bssl8internal7DeleterELb1EE7_M_headERS3_
0000000000000000 W _ZNSt10_Head_baseILm1EN4bssl8internal7DeleterELb1EEC1Ev
0000000000000000 W _ZNSt10_Head_baseILm1EN4bssl8internal7DeleterELb1EEC1IS2_EEOT_
0000000000000000 W _ZNSt10_Head_baseILm1EN4bssl8internal7DeleterELb1EEC2Ev
0000000000000000 W _ZNSt10_Head_baseILm1EN4bssl8internal7DeleterELb1EEC2IS2_EEOT_
0000000000000000 n _ZNSt10_Head_baseILm1EN4bssl8internal7DeleterELb1EEC5Ev
0000000000000000 n _ZNSt10_Head_baseILm1EN4bssl8internal7DeleterELb1EEC5IS2_EEOT_
0000000000000000 W _ZNSt10unique_ptrI11evp_pkey_stN4bssl8internal7DeleterEE11get_deleterEv
0000000000000000 W _ZNSt10unique_ptrI11evp_pkey_stN4bssl8internal7DeleterEEC1IS3_vEEv
0000000000000000 W _ZNSt10unique_ptrI11evp_pkey_stN4bssl8internal7DeleterEEC2IS3_vEEv
0000000000000000 n _ZNSt10unique_ptrI11evp_pkey_stN4bssl8internal7DeleterEEC5IS3_vEEv
0000000000000000 W _ZNSt10unique_ptrI11evp_pkey_stN4bssl8internal7DeleterEED1Ev
0000000000000000 W _ZNSt10unique_ptrI11evp_pkey_stN4bssl8internal7DeleterEED2Ev
0000000000000000 n _ZNSt10unique_ptrI11evp_pkey_stN4bssl8internal7DeleterEED5Ev
0000000000000000 W _ZNSt10unique_ptrI14ssl_session_stN4bssl8internal7DeleterEE11get_deleterEv
0000000000000000 W _ZNSt10unique_ptrI14ssl_session_stN4bssl8internal7DeleterEEC1IS3_vEEv
0000000000000000 W _ZNSt10unique_ptrI14ssl_session_stN4bssl8internal7DeleterEEC2IS3_vEEv
0000000000000000 n _ZNSt10unique_ptrI14ssl_session_stN4bssl8internal7DeleterEEC5IS3_vEEv
0000000000000000 W _ZNSt10unique_ptrI14ssl_session_stN4bssl8internal7DeleterEED1Ev
0000000000000000 W _ZNSt10unique_ptrI14ssl_session_stN4bssl8internal7DeleterEED2Ev
0000000000000000 n _ZNSt10unique_ptrI14ssl_session_stN4bssl8internal7DeleterEED5Ev
0000000000000000 W _ZNSt10unique_ptrI15ssl_ech_keys_stN4bssl8internal7DeleterEE11get_deleterEv
0000000000000000 W _ZNSt10unique_ptrI15ssl_ech_keys_stN4bssl8internal7DeleterEEC1IS3_vEEv
0000000000000000 W _ZNSt10unique_ptrI15ssl_ech_keys_stN4bssl8internal7DeleterEEC2IS3_vEEv
0000000000000000 n _ZNSt10unique_ptrI15ssl_ech_keys_stN4bssl8internal7DeleterEEC5IS3_vEEv
0000000000000000 W _ZNSt10unique_ptrI15ssl_ech_keys_stN4bssl8internal7DeleterEED1Ev
0000000000000000 W _ZNSt10unique_ptrI15ssl_ech_keys_stN4bssl8internal7DeleterEED2Ev
0000000000000000 n _ZNSt10unique_ptrI15ssl_ech_keys_stN4bssl8internal7DeleterEED5Ev
0000000000000000 W _ZNSt10unique_ptrI16crypto_buffer_stN4bssl8internal7DeleterEE11get_deleterEv
0000000000000000 W _ZNSt10unique_ptrI16crypto_buffer_stN4bssl8internal7DeleterEE5resetEPS0_
0000000000000000 W _ZNSt10unique_ptrI16crypto_buffer_stN4bssl8internal7DeleterEE7releaseEv
0000000000000000 W _ZNSt10unique_ptrI16crypto_buffer_stN4bssl8internal7DeleterEEaSEOS4_
0000000000000000 W _ZNSt10unique_ptrI16crypto_buffer_stN4bssl8internal7DeleterEEC1IS3_vEEPS0_
0000000000000000 W _ZNSt10unique_ptrI16crypto_buffer_stN4bssl8internal7DeleterEEC2IS3_vEEPS0_
0000000000000000 n _ZNSt10unique_ptrI16crypto_buffer_stN4bssl8internal7DeleterEEC5IS3_vEEPS0_
0000000000000000 W _ZNSt10unique_ptrI16crypto_buffer_stN4bssl8internal7DeleterEED1Ev
0000000000000000 W _ZNSt10unique_ptrI16crypto_buffer_stN4bssl8internal7DeleterEED2Ev
0000000000000000 n _ZNSt10unique_ptrI16crypto_buffer_stN4bssl8internal7DeleterEED5Ev
0000000000000000 W _ZNSt10unique_ptrI17err_save_state_stN4bssl8internal7DeleterEE11get_deleterEv
0000000000000000 W _ZNSt10unique_ptrI17err_save_state_stN4bssl8internal7DeleterEE5resetEPS0_
0000000000000000 W _ZNSt10unique_ptrI17err_save_state_stN4bssl8internal7DeleterEEC1IS3_vEEv
0000000000000000 W _ZNSt10unique_ptrI17err_save_state_stN4bssl8internal7DeleterEEC2IS3_vEEv
0000000000000000 n _ZNSt10unique_ptrI17err_save_state_stN4bssl8internal7DeleterEEC5IS3_vEEv
0000000000000000 W _ZNSt10unique_ptrI17err_save_state_stN4bssl8internal7DeleterEED1Ev
0000000000000000 W _ZNSt10unique_ptrI17err_save_state_stN4bssl8internal7DeleterEED2Ev
0000000000000000 n _ZNSt10unique_ptrI17err_save_state_stN4bssl8internal7DeleterEED5Ev
0000000000000000 W _ZNSt10unique_ptrI22stack_st_CRYPTO_BUFFERN4bssl8internal7DeleterEE11get_deleterEv
0000000000000000 W _ZNSt10unique_ptrI22stack_st_CRYPTO_BUFFERN4bssl8internal7DeleterEEC1IS3_vEEv
0000000000000000 W _ZNSt10unique_ptrI22stack_st_CRYPTO_BUFFERN4bssl8internal7DeleterEEC2IS3_vEEv
0000000000000000 n _ZNSt10unique_ptrI22stack_st_CRYPTO_BUFFERN4bssl8internal7DeleterEEC5IS3_vEEv
0000000000000000 W _ZNSt10unique_ptrI22stack_st_CRYPTO_BUFFERN4bssl8internal7DeleterEED1Ev
0000000000000000 W _ZNSt10unique_ptrI22stack_st_CRYPTO_BUFFERN4bssl8internal7DeleterEED2Ev
0000000000000000 n _ZNSt10unique_ptrI22stack_st_CRYPTO_BUFFERN4bssl8internal7DeleterEED5Ev
0000000000000000 W _ZNSt10unique_ptrIcN4bssl8internal7DeleterEE11get_deleterEv
0000000000000000 W _ZNSt10unique_ptrIcN4bssl8internal7DeleterEEC1IS2_vEEv
0000000000000000 W _ZNSt10unique_ptrIcN4bssl8internal7DeleterEEC2IS2_vEEv
0000000000000000 n _ZNSt10unique_ptrIcN4bssl8internal7DeleterEEC5IS2_vEEv
0000000000000000 W _ZNSt10unique_ptrIcN4bssl8internal7DeleterEED1Ev
0000000000000000 W _ZNSt10unique_ptrIcN4bssl8internal7DeleterEED2Ev
0000000000000000 n _ZNSt10unique_ptrIcN4bssl8internal7DeleterEED5Ev
0000000000000000 W _ZNSt10unique_ptrIN4bssl11SSLKeyShareENS0_8internal7DeleterEE11get_deleterEv
0000000000000000 W _ZNSt10unique_ptrIN4bssl11SSLKeyShareENS0_8internal7DeleterEED1Ev
0000000000000000 W _ZNSt10unique_ptrIN4bssl11SSLKeyShareENS0_8internal7DeleterEED2Ev
0000000000000000 n _ZNSt10unique_ptrIN4bssl11SSLKeyShareENS0_8internal7DeleterEED5Ev
0000000000000000 W _ZNSt10unique_ptrIN4bssl13SSL_HANDSHAKEENS0_8internal7DeleterEE11get_deleterEv
0000000000000000 W _ZNSt10unique_ptrIN4bssl13SSL_HANDSHAKEENS0_8internal7DeleterEE7releaseEv
0000000000000000 W _ZNSt10unique_ptrIN4bssl13SSL_HANDSHAKEENS0_8internal7DeleterEEC1EOS4_
0000000000000000 W _ZNSt10unique_ptrIN4bssl13SSL_HANDSHAKEENS0_8internal7DeleterEEC1IS3_vEEDn
0000000000000000 W _ZNSt10unique_ptrIN4bssl13SSL_HANDSHAKEENS0_8internal7DeleterEEC1IS3_vEEPS1_
0000000000000000 W _ZNSt10unique_ptrIN4bssl13SSL_HANDSHAKEENS0_8internal7DeleterEEC2EOS4_
0000000000000000 W _ZNSt10unique_ptrIN4bssl13SSL_HANDSHAKEENS0_8internal7DeleterEEC2IS3_vEEDn
0000000000000000 W _ZNSt10unique_ptrIN4bssl13SSL_HANDSHAKEENS0_8internal7DeleterEEC2IS3_vEEPS1_
0000000000000000 n _ZNSt10unique_ptrIN4bssl13SSL_HANDSHAKEENS0_8internal7DeleterEEC5EOS4_
0000000000000000 n _ZNSt10unique_ptrIN4bssl13SSL_HANDSHAKEENS0_8internal7DeleterEEC5IS3_vEEDn
0000000000000000 n _ZNSt10unique_ptrIN4bssl13SSL_HANDSHAKEENS0_8internal7DeleterEEC5IS3_vEEPS1_
0000000000000000 W _ZNSt10unique_ptrIN4bssl13SSL_HANDSHAKEENS0_8internal7DeleterEED1Ev
0000000000000000 W _ZNSt10unique_ptrIN4bssl13SSL_HANDSHAKEENS0_8internal7DeleterEED2Ev
0000000000000000 n _ZNSt10unique_ptrIN4bssl13SSL_HANDSHAKEENS0_8internal7DeleterEED5Ev
0000000000000000 W _ZNSt10unique_ptrIN4bssl19SSL_HANDSHAKE_HINTSENS0_8internal7DeleterEE11get_deleterEv
0000000000000000 W _ZNSt10unique_ptrIN4bssl19SSL_HANDSHAKE_HINTSENS0_8internal7DeleterEEC1IS3_vEEv
0000000000000000 W _ZNSt10unique_ptrIN4bssl19SSL_HANDSHAKE_HINTSENS0_8internal7DeleterEEC2IS3_vEEv
0000000000000000 n _ZNSt10unique_ptrIN4bssl19SSL_HANDSHAKE_HINTSENS0_8internal7DeleterEEC5IS3_vEEv
0000000000000000 W _ZNSt10unique_ptrIN4bssl19SSL_HANDSHAKE_HINTSENS0_8internal7DeleterEED1Ev
0000000000000000 W _ZNSt10unique_ptrIN4bssl19SSL_HANDSHAKE_HINTSENS0_8internal7DeleterEED2Ev
0000000000000000 n _ZNSt10unique_ptrIN4bssl19SSL_HANDSHAKE_HINTSENS0_8internal7DeleterEED5Ev
0000000000000000 W _ZNSt10unique_ptrIN4bssl9ECHConfigENS0_8internal7DeleterEE11get_deleterEv
0000000000000000 W _ZNSt10unique_ptrIN4bssl9ECHConfigENS0_8internal7DeleterEEC1IS3_vEEv
0000000000000000 W _ZNSt10unique_ptrIN4bssl9ECHConfigENS0_8internal7DeleterEEC2IS3_vEEv
0000000000000000 n _ZNSt10unique_ptrIN4bssl9ECHConfigENS0_8internal7DeleterEEC5IS3_vEEv
0000000000000000 W _ZNSt10unique_ptrIN4bssl9ECHConfigENS0_8internal7DeleterEED1Ev
0000000000000000 W _ZNSt10unique_ptrIN4bssl9ECHConfigENS0_8internal7DeleterEED2Ev
0000000000000000 n _ZNSt10unique_ptrIN4bssl9ECHConfigENS0_8internal7DeleterEED5Ev
0000000000000000 W _ZNSt11_Tuple_implILm0EJP10ssl_ctx_stN4bssl8internal7DeleterEEE7_M_headERKS5_
0000000000000000 W _ZNSt11_Tuple_implILm0EJP11evp_pkey_stN4bssl8internal7DeleterEEE7_M_headERS5_
0000000000000000 W _ZNSt11_Tuple_implILm0EJP11evp_pkey_stN4bssl8internal7DeleterEEEC1Ev
0000000000000000 W _ZNSt11_Tuple_implILm0EJP11evp_pkey_stN4bssl8internal7DeleterEEEC2Ev
0000000000000000 n _ZNSt11_Tuple_implILm0EJP11evp_pkey_stN4bssl8internal7DeleterEEEC5Ev
0000000000000000 W _ZNSt11_Tuple_implILm0EJP14ssl_session_stN4bssl8internal7DeleterEEE7_M_headERKS5_
0000000000000000 W _ZNSt11_Tuple_implILm0EJP14ssl_session_stN4bssl8internal7DeleterEEE7_M_headERS5_
0000000000000000 W _ZNSt11_Tuple_implILm0EJP14ssl_session_stN4bssl8internal7DeleterEEEC1Ev
0000000000000000 W _ZNSt11_Tuple_implILm0EJP14ssl_session_stN4bssl8internal7DeleterEEEC2Ev
0000000000000000 n _ZNSt11_Tuple_implILm0EJP14ssl_session_stN4bssl8internal7DeleterEEEC5Ev
0000000000000000 W _ZNSt11_Tuple_implILm0EJP15ssl_ech_keys_stN4bssl8internal7DeleterEEE7_M_headERS5_
0000000000000000 W _ZNSt11_Tuple_implILm0EJP15ssl_ech_keys_stN4bssl8internal7DeleterEEEC1Ev
0000000000000000 W _ZNSt11_Tuple_implILm0EJP15ssl_ech_keys_stN4bssl8internal7DeleterEEEC2Ev
0000000000000000 n _ZNSt11_Tuple_implILm0EJP15ssl_ech_keys_stN4bssl8internal7DeleterEEEC5Ev
0000000000000000 W _ZNSt11_Tuple_implILm0EJP16crypto_buffer_stN4bssl8internal7DeleterEEE7_M_headERKS5_
0000000000000000 W _ZNSt11_Tuple_implILm0EJP16crypto_buffer_stN4bssl8internal7DeleterEEE7_M_headERS5_
0000000000000000 W _ZNSt11_Tuple_implILm0EJP16crypto_buffer_stN4bssl8internal7DeleterEEEC1Ev
0000000000000000 W _ZNSt11_Tuple_implILm0EJP16crypto_buffer_stN4bssl8internal7DeleterEEEC2Ev
0000000000000000 n _ZNSt11_Tuple_implILm0EJP16crypto_buffer_stN4bssl8internal7DeleterEEEC5Ev
0000000000000000 W _ZNSt11_Tuple_implILm0EJP17err_save_state_stN4bssl8internal7DeleterEEE7_M_headERKS5_
0000000000000000 W _ZNSt11_Tuple_implILm0EJP17err_save_state_stN4bssl8internal7DeleterEEE7_M_headERS5_
0000000000000000 W _ZNSt11_Tuple_implILm0EJP17err_save_state_stN4bssl8internal7DeleterEEEC1Ev
0000000000000000 W _ZNSt11_Tuple_implILm0EJP17err_save_state_stN4bssl8internal7DeleterEEEC2Ev
0000000000000000 n _ZNSt11_Tuple_implILm0EJP17err_save_state_stN4bssl8internal7DeleterEEEC5Ev
0000000000000000 W _ZNSt11_Tuple_implILm0EJP22stack_st_CRYPTO_BUFFERN4bssl8internal7DeleterEEE7_M_headERKS5_
0000000000000000 W _ZNSt11_Tuple_implILm0EJP22stack_st_CRYPTO_BUFFERN4bssl8internal7DeleterEEE7_M_headERS5_
0000000000000000 W _ZNSt11_Tuple_implILm0EJP22stack_st_CRYPTO_BUFFERN4bssl8internal7DeleterEEEC1Ev
0000000000000000 W _ZNSt11_Tuple_implILm0EJP22stack_st_CRYPTO_BUFFERN4bssl8internal7DeleterEEEC2Ev
0000000000000000 n _ZNSt11_Tuple_implILm0EJP22stack_st_CRYPTO_BUFFERN4bssl8internal7DeleterEEEC5Ev
0000000000000000 W _ZNSt11_Tuple_implILm0EJPcN4bssl8internal7DeleterEEE7_M_headERS4_
0000000000000000 W _ZNSt11_Tuple_implILm0EJPcN4bssl8internal7DeleterEEEC1Ev
0000000000000000 W _ZNSt11_Tuple_implILm0EJPcN4bssl8internal7DeleterEEEC2Ev
0000000000000000 n _ZNSt11_Tuple_implILm0EJPcN4bssl8internal7DeleterEEEC5Ev
0000000000000000 W _ZNSt11_Tuple_implILm0EJPN4bssl10SSL_CONFIGENS0_8internal7DeleterEEE7_M_headERKS5_
0000000000000000 W _ZNSt11_Tuple_implILm0EJPN4bssl11SSLKeyShareENS0_8internal7DeleterEEE7_M_headERS5_
0000000000000000 W _ZNSt11_Tuple_implILm0EJPN4bssl13SSL_HANDSHAKEENS0_8internal7DeleterEEE7_M_headERKS5_
0000000000000000 W _ZNSt11_Tuple_implILm0EJPN4bssl13SSL_HANDSHAKEENS0_8internal7DeleterEEE7_M_headERS5_
0000000000000000 W _ZNSt11_Tuple_implILm0EJPN4bssl13SSL_HANDSHAKEENS0_8internal7DeleterEEEC1Ev
0000000000000000 W _ZNSt11_Tuple_implILm0EJPN4bssl13SSL_HANDSHAKEENS0_8internal7DeleterEEEC1IRS2_JS4_EvEEOT_DpOT0_
0000000000000000 W _ZNSt11_Tuple_implILm0EJPN4bssl13SSL_HANDSHAKEENS0_8internal7DeleterEEEC2Ev
0000000000000000 W _ZNSt11_Tuple_implILm0EJPN4bssl13SSL_HANDSHAKEENS0_8internal7DeleterEEEC2IRS2_JS4_EvEEOT_DpOT0_
0000000000000000 n _ZNSt11_Tuple_implILm0EJPN4bssl13SSL_HANDSHAKEENS0_8internal7DeleterEEEC5Ev
0000000000000000 n _ZNSt11_Tuple_implILm0EJPN4bssl13SSL_HANDSHAKEENS0_8internal7DeleterEEEC5IRS2_JS4_EvEEOT_DpOT0_
0000000000000000 W _ZNSt11_Tuple_implILm0EJPN4bssl19SSL_HANDSHAKE_HINTSENS0_8internal7DeleterEEE7_M_headERS5_
0000000000000000 W _ZNSt11_Tuple_implILm0EJPN4bssl19SSL_HANDSHAKE_HINTSENS0_8internal7DeleterEEEC1Ev
0000000000000000 W _ZNSt11_Tuple_implILm0EJPN4bssl19SSL_HANDSHAKE_HINTSENS0_8internal7DeleterEEEC2Ev
0000000000000000 n _ZNSt11_Tuple_implILm0EJPN4bssl19SSL_HANDSHAKE_HINTSENS0_8internal7DeleterEEEC5Ev
0000000000000000 W _ZNSt11_Tuple_implILm0EJPN4bssl9ECHConfigENS0_8internal7DeleterEEE7_M_headERS5_
0000000000000000 W _ZNSt11_Tuple_implILm0EJPN4bssl9ECHConfigENS0_8internal7DeleterEEEC1Ev
0000000000000000 W _ZNSt11_Tuple_implILm0EJPN4bssl9ECHConfigENS0_8internal7DeleterEEEC2Ev
0000000000000000 n _ZNSt11_Tuple_implILm0EJPN4bssl9ECHConfigENS0_8internal7DeleterEEEC5Ev
0000000000000000 W _ZNSt11_Tuple_implILm1EJN4bssl8internal7DeleterEEE7_M_headERS3_
0000000000000000 W _ZNSt11_Tuple_implILm1EJN4bssl8internal7DeleterEEEC1Ev
0000000000000000 W _ZNSt11_Tuple_implILm1EJN4bssl8internal7DeleterEEEC1IS2_EEOT_
0000000000000000 W _ZNSt11_Tuple_implILm1EJN4bssl8internal7DeleterEEEC2Ev
0000000000000000 W _ZNSt11_Tuple_implILm1EJN4bssl8internal7DeleterEEEC2IS2_EEOT_
0000000000000000 n _ZNSt11_Tuple_implILm1EJN4bssl8internal7DeleterEEEC5Ev
0000000000000000 n _ZNSt11_Tuple_implILm1EJN4bssl8internal7DeleterEEEC5IS2_EEOT_
0000000000000000 W _ZNSt15__uniq_ptr_implI11evp_pkey_stN4bssl8internal7DeleterEE10_M_deleterEv
0000000000000000 W _ZNSt15__uniq_ptr_implI11evp_pkey_stN4bssl8internal7DeleterEE6_M_ptrEv
0000000000000000 W _ZNSt15__uniq_ptr_implI11evp_pkey_stN4bssl8internal7DeleterEEC1Ev
0000000000000000 W _ZNSt15__uniq_ptr_implI11evp_pkey_stN4bssl8internal7DeleterEEC2Ev
0000000000000000 n _ZNSt15__uniq_ptr_implI11evp_pkey_stN4bssl8internal7DeleterEEC5Ev
0000000000000000 W _ZNSt15__uniq_ptr_implI14ssl_session_stN4bssl8internal7DeleterEE10_M_deleterEv
0000000000000000 W _ZNSt15__uniq_ptr_implI14ssl_session_stN4bssl8internal7DeleterEE6_M_ptrEv
0000000000000000 W _ZNSt15__uniq_ptr_implI14ssl_session_stN4bssl8internal7DeleterEEC1Ev
0000000000000000 W _ZNSt15__uniq_ptr_implI14ssl_session_stN4bssl8internal7DeleterEEC2Ev
0000000000000000 n _ZNSt15__uniq_ptr_implI14ssl_session_stN4bssl8internal7DeleterEEC5Ev
0000000000000000 W _ZNSt15__uniq_ptr_implI15ssl_ech_keys_stN4bssl8internal7DeleterEE10_M_deleterEv
0000000000000000 W _ZNSt15__uniq_ptr_implI15ssl_ech_keys_stN4bssl8internal7DeleterEE6_M_ptrEv
0000000000000000 W _ZNSt15__uniq_ptr_implI15ssl_ech_keys_stN4bssl8internal7DeleterEEC1Ev
0000000000000000 W _ZNSt15__uniq_ptr_implI15ssl_ech_keys_stN4bssl8internal7DeleterEEC2Ev
0000000000000000 n _ZNSt15__uniq_ptr_implI15ssl_ech_keys_stN4bssl8internal7DeleterEEC5Ev
0000000000000000 W _ZNSt15__uniq_ptr_implI16crypto_buffer_stN4bssl8internal7DeleterEE10_M_deleterEv
0000000000000000 W _ZNSt15__uniq_ptr_implI16crypto_buffer_stN4bssl8internal7DeleterEE6_M_ptrEv
0000000000000000 W _ZNSt15__uniq_ptr_implI16crypto_buffer_stN4bssl8internal7DeleterEEC1EPS0_
0000000000000000 W _ZNSt15__uniq_ptr_implI16crypto_buffer_stN4bssl8internal7DeleterEEC2EPS0_
0000000000000000 n _ZNSt15__uniq_ptr_implI16crypto_buffer_stN4bssl8internal7DeleterEEC5EPS0_
0000000000000000 W _ZNSt15__uniq_ptr_implI17err_save_state_stN4bssl8internal7DeleterEE10_M_deleterEv
0000000000000000 W _ZNSt15__uniq_ptr_implI17err_save_state_stN4bssl8internal7DeleterEE6_M_ptrEv
0000000000000000 W _ZNSt15__uniq_ptr_implI17err_save_state_stN4bssl8internal7DeleterEEC1Ev
0000000000000000 W _ZNSt15__uniq_ptr_implI17err_save_state_stN4bssl8internal7DeleterEEC2Ev
0000000000000000 n _ZNSt15__uniq_ptr_implI17err_save_state_stN4bssl8internal7DeleterEEC5Ev
0000000000000000 W _ZNSt15__uniq_ptr_implI22stack_st_CRYPTO_BUFFERN4bssl8internal7DeleterEE10_M_deleterEv
0000000000000000 W _ZNSt15__uniq_ptr_implI22stack_st_CRYPTO_BUFFERN4bssl8internal7DeleterEE6_M_ptrEv
0000000000000000 W _ZNSt15__uniq_ptr_implI22stack_st_CRYPTO_BUFFERN4bssl8internal7DeleterEEC1Ev
0000000000000000 W _ZNSt15__uniq_ptr_implI22stack_st_CRYPTO_BUFFERN4bssl8internal7DeleterEEC2Ev
0000000000000000 n _ZNSt15__uniq_ptr_implI22stack_st_CRYPTO_BUFFERN4bssl8internal7DeleterEEC5Ev
0000000000000000 W _ZNSt15__uniq_ptr_implIcN4bssl8internal7DeleterEE10_M_deleterEv
0000000000000000 W _ZNSt15__uniq_ptr_implIcN4bssl8internal7DeleterEE6_M_ptrEv
0000000000000000 W _ZNSt15__uniq_ptr_implIcN4bssl8internal7DeleterEEC1Ev
0000000000000000 W _ZNSt15__uniq_ptr_implIcN4bssl8internal7DeleterEEC2Ev
0000000000000000 n _ZNSt15__uniq_ptr_implIcN4bssl8internal7DeleterEEC5Ev
0000000000000000 W _ZNSt15__uniq_ptr_implIN4bssl11SSLKeyShareENS0_8internal7DeleterEE10_M_deleterEv
0000000000000000 W _ZNSt15__uniq_ptr_implIN4bssl11SSLKeyShareENS0_8internal7DeleterEE6_M_ptrEv
0000000000000000 W _ZNSt15__uniq_ptr_implIN4bssl13SSL_HANDSHAKEENS0_8internal7DeleterEE10_M_deleterEv
0000000000000000 W _ZNSt15__uniq_ptr_implIN4bssl13SSL_HANDSHAKEENS0_8internal7DeleterEE6_M_ptrEv
0000000000000000 W _ZNSt15__uniq_ptr_implIN4bssl13SSL_HANDSHAKEENS0_8internal7DeleterEEC1EPS1_
0000000000000000 W _ZNSt15__uniq_ptr_implIN4bssl13SSL_HANDSHAKEENS0_8internal7DeleterEEC1Ev
0000000000000000 W _ZNSt15__uniq_ptr_implIN4bssl13SSL_HANDSHAKEENS0_8internal7DeleterEEC1IS3_EEPS1_OT_
0000000000000000 W _ZNSt15__uniq_ptr_implIN4bssl13SSL_HANDSHAKEENS0_8internal7DeleterEEC2EPS1_
0000000000000000 W _ZNSt15__uniq_ptr_implIN4bssl13SSL_HANDSHAKEENS0_8internal7DeleterEEC2Ev
0000000000000000 W _ZNSt15__uniq_ptr_implIN4bssl13SSL_HANDSHAKEENS0_8internal7DeleterEEC2IS3_EEPS1_OT_
0000000000000000 n _ZNSt15__uniq_ptr_implIN4bssl13SSL_HANDSHAKEENS0_8internal7DeleterEEC5EPS1_
0000000000000000 n _ZNSt15__uniq_ptr_implIN4bssl13SSL_HANDSHAKEENS0_8internal7DeleterEEC5Ev
0000000000000000 n _ZNSt15__uniq_ptr_implIN4bssl13SSL_HANDSHAKEENS0_8internal7DeleterEEC5IS3_EEPS1_OT_
0000000000000000 W _ZNSt15__uniq_ptr_implIN4bssl19SSL_HANDSHAKE_HINTSENS0_8internal7DeleterEE10_M_deleterEv
0000000000000000 W _ZNSt15__uniq_ptr_implIN4bssl19SSL_HANDSHAKE_HINTSENS0_8internal7DeleterEE6_M_ptrEv
0000000000000000 W _ZNSt15__uniq_ptr_implIN4bssl19SSL_HANDSHAKE_HINTSENS0_8internal7DeleterEEC1Ev
0000000000000000 W _ZNSt15__uniq_ptr_implIN4bssl19SSL_HANDSHAKE_HINTSENS0_8internal7DeleterEEC2Ev
0000000000000000 n _ZNSt15__uniq_ptr_implIN4bssl19SSL_HANDSHAKE_HINTSENS0_8internal7DeleterEEC5Ev
0000000000000000 W _ZNSt15__uniq_ptr_implIN4bssl9ECHConfigENS0_8internal7DeleterEE10_M_deleterEv
0000000000000000 W _ZNSt15__uniq_ptr_implIN4bssl9ECHConfigENS0_8internal7DeleterEE6_M_ptrEv
0000000000000000 W _ZNSt15__uniq_ptr_implIN4bssl9ECHConfigENS0_8internal7DeleterEEC1Ev
0000000000000000 W _ZNSt15__uniq_ptr_implIN4bssl9ECHConfigENS0_8internal7DeleterEEC2Ev
0000000000000000 n _ZNSt15__uniq_ptr_implIN4bssl9ECHConfigENS0_8internal7DeleterEEC5Ev
0000000000000000 W _ZNSt5tupleIJP11evp_pkey_stN4bssl8internal7DeleterEEEC1IS1_S4_Lb1EEEv
0000000000000000 W _ZNSt5tupleIJP11evp_pkey_stN4bssl8internal7DeleterEEEC2IS1_S4_Lb1EEEv
0000000000000000 n _ZNSt5tupleIJP11evp_pkey_stN4bssl8internal7DeleterEEEC5IS1_S4_Lb1EEEv
0000000000000000 W _ZNSt5tupleIJP14ssl_session_stN4bssl8internal7DeleterEEEC1IS1_S4_Lb1EEEv
0000000000000000 W _ZNSt5tupleIJP14ssl_session_stN4bssl8internal7DeleterEEEC2IS1_S4_Lb1EEEv
0000000000000000 n _ZNSt5tupleIJP14ssl_session_stN4bssl8internal7DeleterEEEC5IS1_S4_Lb1EEEv
0000000000000000 W _ZNSt5tupleIJP15ssl_ech_keys_stN4bssl8internal7DeleterEEEC1IS1_S4_Lb1EEEv
0000000000000000 W _ZNSt5tupleIJP15ssl_ech_keys_stN4bssl8internal7DeleterEEEC2IS1_S4_Lb1EEEv
0000000000000000 n _ZNSt5tupleIJP15ssl_ech_keys_stN4bssl8internal7DeleterEEEC5IS1_S4_Lb1EEEv
0000000000000000 W _ZNSt5tupleIJP16crypto_buffer_stN4bssl8internal7DeleterEEEC1IS1_S4_Lb1EEEv
0000000000000000 W _ZNSt5tupleIJP16crypto_buffer_stN4bssl8internal7DeleterEEEC2IS1_S4_Lb1EEEv
0000000000000000 n _ZNSt5tupleIJP16crypto_buffer_stN4bssl8internal7DeleterEEEC5IS1_S4_Lb1EEEv
0000000000000000 W _ZNSt5tupleIJP17err_save_state_stN4bssl8internal7DeleterEEEC1IS1_S4_Lb1EEEv
0000000000000000 W _ZNSt5tupleIJP17err_save_state_stN4bssl8internal7DeleterEEEC2IS1_S4_Lb1EEEv
0000000000000000 n _ZNSt5tupleIJP17err_save_state_stN4bssl8internal7DeleterEEEC5IS1_S4_Lb1EEEv
0000000000000000 W _ZNSt5tupleIJP22stack_st_CRYPTO_BUFFERN4bssl8internal7DeleterEEEC1IS1_S4_Lb1EEEv
0000000000000000 W _ZNSt5tupleIJP22stack_st_CRYPTO_BUFFERN4bssl8internal7DeleterEEEC2IS1_S4_Lb1EEEv
0000000000000000 n _ZNSt5tupleIJP22stack_st_CRYPTO_BUFFERN4bssl8internal7DeleterEEEC5IS1_S4_Lb1EEEv
0000000000000000 W _ZNSt5tupleIJPcN4bssl8internal7DeleterEEEC1IS0_S3_Lb1EEEv
0000000000000000 W _ZNSt5tupleIJPcN4bssl8internal7DeleterEEEC2IS0_S3_Lb1EEEv
0000000000000000 n _ZNSt5tupleIJPcN4bssl8internal7DeleterEEEC5IS0_S3_Lb1EEEv
0000000000000000 W _ZNSt5tupleIJPN4bssl13SSL_HANDSHAKEENS0_8internal7DeleterEEEC1IRS2_S4_Lb1EEEOT_OT0_
0000000000000000 W _ZNSt5tupleIJPN4bssl13SSL_HANDSHAKEENS0_8internal7DeleterEEEC1IS2_S4_Lb1EEEv
0000000000000000 W _ZNSt5tupleIJPN4bssl13SSL_HANDSHAKEENS0_8internal7DeleterEEEC2IRS2_S4_Lb1EEEOT_OT0_
0000000000000000 W _ZNSt5tupleIJPN4bssl13SSL_HANDSHAKEENS0_8internal7DeleterEEEC2IS2_S4_Lb1EEEv
0000000000000000 n _ZNSt5tupleIJPN4bssl13SSL_HANDSHAKEENS0_8internal7DeleterEEEC5IRS2_S4_Lb1EEEOT_OT0_
0000000000000000 n _ZNSt5tupleIJPN4bssl13SSL_HANDSHAKEENS0_8internal7DeleterEEEC5IS2_S4_Lb1EEEv
0000000000000000 W _ZNSt5tupleIJPN4bssl19SSL_HANDSHAKE_HINTSENS0_8internal7DeleterEEEC1IS2_S4_Lb1EEEv
0000000000000000 W _ZNSt5tupleIJPN4bssl19SSL_HANDSHAKE_HINTSENS0_8internal7DeleterEEEC2IS2_S4_Lb1EEEv
0000000000000000 n _ZNSt5tupleIJPN4bssl19SSL_HANDSHAKE_HINTSENS0_8internal7DeleterEEEC5IS2_S4_Lb1EEEv
0000000000000000 W _ZNSt5tupleIJPN4bssl9ECHConfigENS0_8internal7DeleterEEEC1IS2_S4_Lb1EEEv
0000000000000000 W _ZNSt5tupleIJPN4bssl9ECHConfigENS0_8internal7DeleterEEEC2IS2_S4_Lb1EEEv
0000000000000000 n _ZNSt5tupleIJPN4bssl9ECHConfigENS0_8internal7DeleterEEEC5IS2_S4_Lb1EEEv
0000000000000000 W _ZnwmPv
0000000000000000 W _ZSt12__get_helperILm0EP10ssl_ctx_stJN4bssl8internal7DeleterEEERKT0_RKSt11_Tuple_implIXT_EJS5_DpT1_EE
0000000000000000 W _ZSt12__get_helperILm0EP11evp_pkey_stJN4bssl8internal7DeleterEEERT0_RSt11_Tuple_implIXT_EJS5_DpT1_EE
0000000000000000 W _ZSt12__get_helperILm0EP14ssl_session_stJN4bssl8internal7DeleterEEERKT0_RKSt11_Tuple_implIXT_EJS5_DpT1_EE
0000000000000000 W _ZSt12__get_helperILm0EP14ssl_session_stJN4bssl8internal7DeleterEEERT0_RSt11_Tuple_implIXT_EJS5_DpT1_EE
0000000000000000 W _ZSt12__get_helperILm0EP15ssl_ech_keys_stJN4bssl8internal7DeleterEEERT0_RSt11_Tuple_implIXT_EJS5_DpT1_EE
0000000000000000 W _ZSt12__get_helperILm0EP16crypto_buffer_stJN4bssl8internal7DeleterEEERKT0_RKSt11_Tuple_implIXT_EJS5_DpT1_EE
0000000000000000 W _ZSt12__get_helperILm0EP16crypto_buffer_stJN4bssl8internal7DeleterEEERT0_RSt11_Tuple_implIXT_EJS5_DpT1_EE
0000000000000000 W _ZSt12__get_helperILm0EP17err_save_state_stJN4bssl8internal7DeleterEEERKT0_RKSt11_Tuple_implIXT_EJS5_DpT1_EE
0000000000000000 W _ZSt12__get_helperILm0EP17err_save_state_stJN4bssl8internal7DeleterEEERT0_RSt11_Tuple_implIXT_EJS5_DpT1_EE
0000000000000000 W _ZSt12__get_helperILm0EP22stack_st_CRYPTO_BUFFERJN4bssl8internal7DeleterEEERKT0_RKSt11_Tuple_implIXT_EJS5_DpT1_EE
0000000000000000 W _ZSt12__get_helperILm0EP22stack_st_CRYPTO_BUFFERJN4bssl8internal7DeleterEEERT0_RSt11_Tuple_implIXT_EJS5_DpT1_EE
0000000000000000 W _ZSt12__get_helperILm0EPcJN4bssl8internal7DeleterEEERT0_RSt11_Tuple_implIXT_EJS4_DpT1_EE
0000000000000000 W _ZSt12__get_helperILm0EPN4bssl10SSL_CONFIGEJNS0_8internal7DeleterEEERKT0_RKSt11_Tuple_implIXT_EJS5_DpT1_EE
0000000000000000 W _ZSt12__get_helperILm0EPN4bssl11SSLKeyShareEJNS0_8internal7DeleterEEERT0_RSt11_Tuple_implIXT_EJS5_DpT1_EE
0000000000000000 W _ZSt12__get_helperILm0EPN4bssl13SSL_HANDSHAKEEJNS0_8internal7DeleterEEERKT0_RKSt11_Tuple_implIXT_EJS5_DpT1_EE
0000000000000000 W _ZSt12__get_helperILm0EPN4bssl13SSL_HANDSHAKEEJNS0_8internal7DeleterEEERT0_RSt11_Tuple_implIXT_EJS5_DpT1_EE
0000000000000000 W _ZSt12__get_helperILm0EPN4bssl19SSL_HANDSHAKE_HINTSEJNS0_8internal7DeleterEEERT0_RSt11_Tuple_implIXT_EJS5_DpT1_EE
0000000000000000 W _ZSt12__get_helperILm0EPN4bssl9ECHConfigEJNS0_8internal7DeleterEEERT0_RSt11_Tuple_implIXT_EJS5_DpT1_EE
0000000000000000 W _ZSt12__get_helperILm1EN4bssl8internal7DeleterEJEERT0_RSt11_Tuple_implIXT_EJS3_DpT1_EE
0000000000000000 W _ZSt3getILm0EJP10ssl_ctx_stN4bssl8internal7DeleterEEERKNSt13tuple_elementIXT_ESt5tupleIJDpT0_EEE4typeERKS9_
0000000000000000 W _ZSt3getILm0EJP11evp_pkey_stN4bssl8internal7DeleterEEERNSt13tuple_elementIXT_ESt5tupleIJDpT0_EEE4typeERS9_
0000000000000000 W _ZSt3getILm0EJP14ssl_session_stN4bssl8internal7DeleterEEERKNSt13tuple_elementIXT_ESt5tupleIJDpT0_EEE4typeERKS9_
0000000000000000 W _ZSt3getILm0EJP14ssl_session_stN4bssl8internal7DeleterEEERNSt13tuple_elementIXT_ESt5tupleIJDpT0_EEE4typeERS9_
0000000000000000 W _ZSt3getILm0EJP15ssl_ech_keys_stN4bssl8internal7DeleterEEERNSt13tuple_elementIXT_ESt5tupleIJDpT0_EEE4typeERS9_
0000000000000000 W _ZSt3getILm0EJP16crypto_buffer_stN4bssl8internal7DeleterEEERKNSt13tuple_elementIXT_ESt5tupleIJDpT0_EEE4typeERKS9_
0000000000000000 W _ZSt3getILm0EJP16crypto_buffer_stN4bssl8internal7DeleterEEERNSt13tuple_elementIXT_ESt5tupleIJDpT0_EEE4typeERS9_
0000000000000000 W _ZSt3getILm0EJP17err_save_state_stN4bssl8internal7DeleterEEERKNSt13tuple_elementIXT_ESt5tupleIJDpT0_EEE4typeERKS9_
0000000000000000 W _ZSt3getILm0EJP17err_save_state_stN4bssl8internal7DeleterEEERNSt13tuple_elementIXT_ESt5tupleIJDpT0_EEE4typeERS9_
0000000000000000 W _ZSt3getILm0EJP22stack_st_CRYPTO_BUFFERN4bssl8internal7DeleterEEERKNSt13tuple_elementIXT_ESt5tupleIJDpT0_EEE4typeERKS9_
0000000000000000 W _ZSt3getILm0EJP22stack_st_CRYPTO_BUFFERN4bssl8internal7DeleterEEERNSt13tuple_elementIXT_ESt5tupleIJDpT0_EEE4typeERS9_
0000000000000000 W _ZSt3getILm0EJPcN4bssl8internal7DeleterEEERNSt13tuple_elementIXT_ESt5tupleIJDpT0_EEE4typeERS8_
0000000000000000 W _ZSt3getILm0EJPN4bssl10SSL_CONFIGENS0_8internal7DeleterEEERKNSt13tuple_elementIXT_ESt5tupleIJDpT0_EEE4typeERKS9_
0000000000000000 W _ZSt3getILm0EJPN4bssl11SSLKeyShareENS0_8internal7DeleterEEERNSt13tuple_elementIXT_ESt5tupleIJDpT0_EEE4typeERS9_
0000000000000000 W _ZSt3getILm0EJPN4bssl13SSL_HANDSHAKEENS0_8internal7DeleterEEERKNSt13tuple_elementIXT_ESt5tupleIJDpT0_EEE4typeERKS9_
0000000000000000 W _ZSt3getILm0EJPN4bssl13SSL_HANDSHAKEENS0_8internal7DeleterEEERNSt13tuple_elementIXT_ESt5tupleIJDpT0_EEE4typeERS9_
0000000000000000 W _ZSt3getILm0EJPN4bssl19SSL_HANDSHAKE_HINTSENS0_8internal7DeleterEEERNSt13tuple_elementIXT_ESt5tupleIJDpT0_EEE4typeERS9_
0000000000000000 W _ZSt3getILm0EJPN4bssl9ECHConfigENS0_8internal7DeleterEEERNSt13tuple_elementIXT_ESt5tupleIJDpT0_EEE4typeERS9_
0000000000000000 W _ZSt3getILm1EJP11evp_pkey_stN4bssl8internal7DeleterEEERNSt13tuple_elementIXT_ESt5tupleIJDpT0_EEE4typeERS9_
0000000000000000 W _ZSt3getILm1EJP14ssl_session_stN4bssl8internal7DeleterEEERNSt13tuple_elementIXT_ESt5tupleIJDpT0_EEE4typeERS9_
0000000000000000 W _ZSt3getILm1EJP15ssl_ech_keys_stN4bssl8internal7DeleterEEERNSt13tuple_elementIXT_ESt5tupleIJDpT0_EEE4typeERS9_
0000000000000000 W _ZSt3getILm1EJP16crypto_buffer_stN4bssl8internal7DeleterEEERNSt13tuple_elementIXT_ESt5tupleIJDpT0_EEE4typeERS9_
0000000000000000 W _ZSt3getILm1EJP17err_save_state_stN4bssl8internal7DeleterEEERNSt13tuple_elementIXT_ESt5tupleIJDpT0_EEE4typeERS9_
0000000000000000 W _ZSt3getILm1EJP22stack_st_CRYPTO_BUFFERN4bssl8internal7DeleterEEERNSt13tuple_elementIXT_ESt5tupleIJDpT0_EEE4typeERS9_
0000000000000000 W _ZSt3getILm1EJPcN4bssl8internal7DeleterEEERNSt13tuple_elementIXT_ESt5tupleIJDpT0_EEE4typeERS8_
0000000000000000 W _ZSt3getILm1EJPN4bssl11SSLKeyShareENS0_8internal7DeleterEEERNSt13tuple_elementIXT_ESt5tupleIJDpT0_EEE4typeERS9_
0000000000000000 W _ZSt3getILm1EJPN4bssl13SSL_HANDSHAKEENS0_8internal7DeleterEEERNSt13tuple_elementIXT_ESt5tupleIJDpT0_EEE4typeERS9_
0000000000000000 W _ZSt3getILm1EJPN4bssl19SSL_HANDSHAKE_HINTSENS0_8internal7DeleterEEERNSt13tuple_elementIXT_ESt5tupleIJDpT0_EEE4typeERS9_
0000000000000000 W _ZSt3getILm1EJPN4bssl9ECHConfigENS0_8internal7DeleterEEERNSt13tuple_elementIXT_ESt5tupleIJDpT0_EEE4typeERS9_
0000000000000000 W _ZSt3minImERKT_S2_S2_
0000000000000000 W _ZSt4moveIRN4bssl5ArrayIhEEEONSt16remove_referenceIT_E4typeEOS5_
0000000000000000 W _ZSt4moveIRP16crypto_buffer_stEONSt16remove_referenceIT_E4typeEOS4_
0000000000000000 W _ZSt4moveIRP17err_save_state_stEONSt16remove_referenceIT_E4typeEOS4_
0000000000000000 W _ZSt4swapIP16crypto_buffer_stENSt9enable_ifIXsrSt6__and_IJSt6__not_ISt15__is_tuple_likeIT_EESt21is_move_constructibleIS6_ESt18is_move_assignableIS6_EEE5valueEvE4typeERS6_SG_
0000000000000000 W _ZSt4swapIP17err_save_state_stENSt9enable_ifIXsrSt6__and_IJSt6__not_ISt15__is_tuple_likeIT_EESt21is_move_constructibleIS6_ESt18is_move_assignableIS6_EEE5valueEvE4typeERS6_SG_
0000000000000000 W _ZSt7forwardIN4bssl8internal7DeleterEEOT_RNSt16remove_referenceIS3_E4typeE
0000000000000000 W _ZSt7forwardIRP6ssl_stEOT_RNSt16remove_referenceIS3_E4typeE
0000000000000000 W _ZSt7forwardIRPN4bssl13SSL_HANDSHAKEEEOT_RNSt16remove_referenceIS4_E4typeE
0000000000000000 W _ZSteqI14ssl_session_stN4bssl8internal7DeleterEEbRKSt10unique_ptrIT_T0_EDn
0000000000000000 r _ZStL13allocator_arg
0000000000000000 r _ZStL19piecewise_construct
0000000000000000 r _ZStL6ignore
0000000000000000 r _ZZN4bssl13SSL_HANDSHAKEC4EP6ssl_stE19__PRETTY_FUNCTION__
0000000000000000 r _ZZN4bssl17ssl_handshake_newEP6ssl_stE19__PRETTY_FUNCTION__
0000000000000000 r _ZZN4bssl17ssl_run_handshakeEPNS_13SSL_HANDSHAKEEPbE19__PRETTY_FUNCTION__
0000000000000000 r _ZZN4bssl20ssl_parse_extensionsEPK6cbs_stPhSt16initializer_listIPNS_12SSLExtensionEEbE19__PRETTY_FUNCTION__
0000000000000000 r _ZZN4bssl20ssl_verify_peer_certEPNS_13SSL_HANDSHAKEEE19__PRETTY_FUNCTION__
0000000000000000 r _ZZN4bssl22ssl_reverify_peer_certEPNS_13SSL_HANDSHAKEEbE19__PRETTY_FUNCTION__
0000000000000000 r _ZZN4bssl29ssl_max_handshake_message_lenEPK6ssl_stE14kMaxMessageLen
0000000000000000 W _ZZN4bssl8internal11DeleterImplI22stack_st_CRYPTO_BUFFERvE4FreeEPS2_ENKUlPFvPvES5_E_clES7_S5_
0000000000000000 W _ZZN4bssl8internal11DeleterImplI22stack_st_CRYPTO_BUFFERvE4FreeEPS2_ENKUlPFvPvES5_E_cvPFvS7_S5_EEv
0000000000000000 W _ZZN4bssl8internal11DeleterImplI22stack_st_CRYPTO_BUFFERvE4FreeEPS2_ENUlPFvPvES5_E_4_FUNES7_S5_

handshake_client.cc.o:
                 U abort
                 U __assert_fail
0000000000000000 b .bss
                 U CBB_add_bytes
                 U CBB_add_u16
                 U CBB_add_u16_length_prefixed
                 U CBB_add_u8
                 U CBB_add_u8_length_prefixed
                 U CBB_cleanup
                 U CBB_did_write
                 U CBB_flush
                 U CBB_init
                 U CBB_len
                 U CBB_reserve
                 U CBB_zero
                 U CBS_contains_zero_byte
                 U CBS_data
                 U CBS_get_bytes
                 U CBS_get_u16
                 U CBS_get_u16_length_prefixed
                 U CBS_get_u24_length_prefixed
                 U CBS_get_u32
                 U CBS_get_u8
                 U CBS_get_u8_length_prefixed
                 U CBS_init
                 U CBS_len
                 U CBS_mem_equal
                 U CBS_strdup
0000000000000000 n .comment
                 U CRYPTO_BUFFER_free
                 U CRYPTO_BUFFER_init_CBS
                 U CRYPTO_BUFFER_new_from_CBS
0000000000000000 d .data
0000000000000000 N .debug_abbrev
0000000000000000 N .debug_aranges
0000000000000000 N .debug_info
0000000000000000 N .debug_line
0000000000000000 N .debug_ranges
0000000000000000 N .debug_str
0000000000000000 r .eh_frame
                 U ERR_clear_error
                 U ERR_put_error
                 U EVP_has_aes_hardware
                 U EVP_PKEY_get0_RSA
                 U EVP_PKEY_id
                 U EVP_PKEY_size
0000000000000000 n .group
0000000000000000 n .group
0000000000000000 n .group
0000000000000000 n .group
0000000000000000 n .group
0000000000000000 n .group
0000000000000000 n .group
0000000000000000 n .group
0000000000000000 n .group
0000000000000000 n .group
0000000000000000 n .group
0000000000000000 n .group
0000000000000000 n .group
0000000000000000 n .group
0000000000000000 n .group
0000000000000000 n .group
0000000000000000 n .group
0000000000000000 n .group
0000000000000000 n .group
0000000000000000 n .group
0000000000000000 n .group
0000000000000000 n .group
0000000000000000 n .group
0000000000000000 n .group
0000000000000000 n .group
0000000000000000 n .group
0000000000000000 n .group
0000000000000000 n .group
0000000000000000 n .group
0000000000000000 n .group
0000000000000000 n .group
0000000000000000 n .group
0000000000000000 n .group
0000000000000000 n .group
0000000000000000 n .group
0000000000000000 n .group
0000000000000000 n .group
0000000000000000 n .group
0000000000000000 n .group
0000000000000000 n .group
0000000000000000 n .group
0000000000000000 n .group
0000000000000000 n .group
0000000000000000 n .group
0000000000000000 n .group
0000000000000000 n .group
0000000000000000 n .group
0000000000000000 n .group
0000000000000000 n .group
0000000000000000 n .group
0000000000000000 n .group
0000000000000000 n .group
0000000000000000 n .group
0000000000000000 n .group
0000000000000000 n .group
0000000000000000 n .group
0000000000000000 n .group
0000000000000000 n .group
0000000000000000 n .group
0000000000000000 n .group
0000000000000000 n .group
0000000000000000 n .group
0000000000000000 n .group
0000000000000000 n .group
0000000000000000 n .group
0000000000000000 n .group
0000000000000000 n .group
0000000000000000 n .group
0000000000000000 n .group
0000000000000000 n .group
0000000000000000 n .group
0000000000000000 n .group
0000000000000000 n .group
0000000000000000 n .group
0000000000000000 n .group
0000000000000000 n .group
0000000000000000 n .group
0000000000000000 n .group
0000000000000000 n .group
0000000000000000 n .group
0000000000000000 n .group
0000000000000000 n .group
0000000000000000 n .group
0000000000000000 n .group
0000000000000000 n .group
0000000000000000 n .group
0000000000000000 n .group
0000000000000000 n .group
0000000000000000 n .group
0000000000000000 n .group
0000000000000000 n .group
0000000000000000 n .group
0000000000000000 n .group
0000000000000000 n .group
0000000000000000 n .group
0000000000000000 n .group
0000000000000000 n .group
0000000000000000 n .group
0000000000000000 n .group
0000000000000000 n .group
0000000000000000 n .group
0000000000000000 n .group
0000000000000000 n .group
0000000000000000 n .group
0000000000000000 n .group
0000000000000000 n .group
0000000000000000 n .group
0000000000000000 n .group
0000000000000000 n .group
0000000000000000 n .group
0000000000000000 n .group
0000000000000000 n .group
0000000000000000 n .group
0000000000000000 n .group
0000000000000000 n .group
0000000000000000 n .group
0000000000000000 n .group
0000000000000000 n .group
0000000000000000 n .group
0000000000000000 n .group
0000000000000000 n .group
0000000000000000 n .group
0000000000000000 n .group
0000000000000000 n .group
0000000000000000 n .group
0000000000000000 n .group
0000000000000000 n .group
0000000000000000 n .group
0000000000000000 n .group
0000000000000000 n .group
0000000000000000 n .group
0000000000000000 n .group
0000000000000000 n .group
0000000000000000 n .group
0000000000000000 n .group
0000000000000000 n .group
0000000000000000 n .group
0000000000000000 n .group
0000000000000000 n .group
0000000000000000 n .group
0000000000000000 n .group
0000000000000000 n .group
0000000000000000 n .group
0000000000000000 n .group
0000000000000000 n .group
0000000000000000 n .group
0000000000000000 n .group
0000000000000000 n .group
0000000000000000 n .group
0000000000000000 n .group
0000000000000000 n .group
0000000000000000 n .group
0000000000000000 n .group
0000000000000000 n .group
0000000000000000 n .group
0000000000000000 n .group
0000000000000000 n .group
0000000000000000 n .group
0000000000000000 n .group
0000000000000000 n .group
0000000000000000 n .group
0000000000000000 n .group
0000000000000000 n .group
0000000000000000 n .group
0000000000000000 n .group
0000000000000000 n .group
0000000000000000 n .group
0000000000000000 n .group
0000000000000000 n .group
0000000000000000 n .group
0000000000000000 n .group
0000000000000000 n .group
0000000000000000 n .group
0000000000000000 n .group
0000000000000000 n .group
0000000000000000 n .group
0000000000000000 n .group
0000000000000000 n .group
0000000000000000 n .group
0000000000000000 n .group
0000000000000000 n .group
0000000000000000 n .group
0000000000000000 n .group
0000000000000000 n .group
0000000000000000 n .group
0000000000000000 n .group
0000000000000000 n .group
0000000000000000 n .group
0000000000000000 n .group
0000000000000000 n .group
0000000000000000 n .group
0000000000000000 n .group
0000000000000000 n .group
0000000000000000 n .group
0000000000000000 n .group
0000000000000000 n .group
0000000000000000 n .group
0000000000000000 n .group
0000000000000000 n .group
0000000000000000 n .group
0000000000000000 n .group
0000000000000000 n .group
0000000000000000 n .group
0000000000000000 n .group
0000000000000000 n .group
0000000000000000 n .group
0000000000000000 n .group
0000000000000000 n .group
0000000000000000 n .group
0000000000000000 n .group
0000000000000000 n .group
0000000000000000 n .group
0000000000000000 n .group
0000000000000000 n .group
0000000000000000 n .group
0000000000000000 n .group
0000000000000000 n .group
0000000000000000 n .group
0000000000000000 n .group
0000000000000000 n .group
0000000000000000 n .group
0000000000000000 n .group
0000000000000000 n .group
0000000000000000 n .group
0000000000000000 n .group
0000000000000000 n .group
0000000000000000 n .group
0000000000000000 n .group
0000000000000000 n .group
0000000000000000 n .group
0000000000000000 n .group
0000000000000000 n .group
0000000000000000 n .group
0000000000000000 n .group
0000000000000000 a handshake_client.cc
                 U memcpy
                 U memset
0000000000000000 n .note.GNU-stack
                 U OPENSSL_free
                 U OPENSSL_malloc
0000000000000000 t OPENSSL_memcpy
0000000000000000 t OPENSSL_memset
                 U OPENSSL_strdup
                 U OPENSSL_strnlen
                 U RAND_bytes
0000000000000000 r .rodata
0000000000000000 r .rodata._ZN4bssl20ssl_client_handshakeEPNS_13SSL_HANDSHAKEE
0000000000000000 r .rodata._ZN4bssl26ssl_client_handshake_stateEPNS_13SSL_HANDSHAKEE
0000000000000000 r .rodata._ZN4bsslL11kMaxTicketsE
0000000000000000 r .rodata._ZN4bsslL21kMaxEarlyDataAcceptedE
0000000000000000 r .rodata._ZN9__gnu_cxxL21__default_lock_policyE
0000000000000000 r .rodata._ZStL13allocator_arg
0000000000000000 r .rodata._ZStL19piecewise_construct
0000000000000000 r .rodata._ZStL6ignore
0000000000000000 r .rodata._ZZN4bssl20ssl_add_client_helloEPNS_13SSL_HANDSHAKEEE19__PRETTY_FUNCTION__
0000000000000000 r .rodata._ZZN4bsslL20do_read_server_helloEPNS_13SSL_HANDSHAKEEE19__PRETTY_FUNCTION__
0000000000000000 r .rodata._ZZN4bsslL22do_read_session_ticketEPNS_13SSL_HANDSHAKEEE19__PRETTY_FUNCTION__
0000000000000000 r .rodata._ZZN4bsslL23do_send_client_finishedEPNS_13SSL_HANDSHAKEEE5kZero
0000000000000000 r .rodata._ZZN4bsslL23should_offer_early_dataEPKNS_13SSL_HANDSHAKEEE19__PRETTY_FUNCTION__
0000000000000000 r .rodata._ZZN4bsslL26do_finish_client_handshakeEPNS_13SSL_HANDSHAKEEE19__PRETTY_FUNCTION__
0000000000000000 r .rodata._ZZN4bsslL27do_read_server_key_exchangeEPNS_13SSL_HANDSHAKEEE19__PRETTY_FUNCTION__
0000000000000000 r .rodata._ZZN4bsslL27do_send_client_key_exchangeEPNS_13SSL_HANDSHAKEEE19__PRETTY_FUNCTION__
0000000000000000 r .rodata._ZZN4bsslL28do_read_hello_verify_requestEPNS_13SSL_HANDSHAKEEE19__PRETTY_FUNCTION__
0000000000000000 r .rodata._ZZN4bsslL30do_reverify_server_certificateEPNS_13SSL_HANDSHAKEEE19__PRETTY_FUNCTION__
0000000000000000 r .rodata._ZZN4bsslL33do_send_client_certificate_verifyEPNS_13SSL_HANDSHAKEEE19__PRETTY_FUNCTION__
                 U RSA_encrypt
                 U RSA_size
                 U SHA256
0000000000000000 W sk_CRYPTO_BUFFER_num
0000000000000000 W sk_CRYPTO_BUFFER_value
                 U sk_find
                 U sk_num
                 U sk_pop_free_ex
0000000000000000 W sk_SSL_CIPHER_call_cmp_func
0000000000000000 W sk_SSL_CIPHER_find
                 U sk_value
                 U SSL_certs_clear
                 U SSL_CIPHER_get_max_version
                 U SSL_CIPHER_get_min_version
                 U SSL_CIPHER_get_protocol_id
                 U SSL_get_cipher_by_value
                 U SSL_get_ciphers
                 U SSL_get_mode
                 U SSL_is_dtls
                 U SSL_SESSION_free
                 U SSL_SESSION_is_resumable
                 U SSL_SESSION_up_ref
                 U SSL_version
0000000000000000 t .text
0000000000000000 t .text.OPENSSL_memcpy
0000000000000000 t .text.OPENSSL_memset
0000000000000000 t .text.sk_CRYPTO_BUFFER_num
0000000000000000 t .text.sk_CRYPTO_BUFFER_value
0000000000000000 t .text.sk_SSL_CIPHER_call_cmp_func
0000000000000000 t .text.sk_SSL_CIPHER_find
0000000000000000 t .text._Z3endI19stack_st_SSL_CIPHERENSt9enable_ifIXsrN4bssl8internal11StackTraitsIT_EE8kIsStackENS3_17StackIteratorImplIS5_EEE4typeEPKS5_
0000000000000000 t .text._Z5beginI19stack_st_SSL_CIPHERENSt9enable_ifIXsrN4bssl8internal11StackTraitsIT_EE8kIsStackENS3_17StackIteratorImplIS5_EEE4typeEPKS5_
0000000000000000 t .text._ZN4bssl12SSLExtensionC2Etb
0000000000000000 t .text._ZN4bssl13MakeConstSpanIhEENS_4SpanIKT_EEPS2_m
0000000000000000 t .text._ZN4bssl13MakeConstSpanIKhEENS_4SpanIKT_EEPS3_m
0000000000000000 t .text._ZN4bssl13SSL_HANDSHAKE20early_traffic_secretEv
0000000000000000 t .text._ZN4bssl17ParsedServerHelloC2Ev
0000000000000000 t .text._ZN4bssl20ssl_add_client_helloEPNS_13SSL_HANDSHAKEE
0000000000000000 t .text._ZN4bssl20ssl_client_handshakeEPNS_13SSL_HANDSHAKEE
0000000000000000 t .text._ZN4bssl22ssl_parse_server_helloEPNS_17ParsedServerHelloEPhRKNS_10SSLMessageE
0000000000000000 t .text._ZN4bssl26ssl_client_handshake_stateEPNS_13SSL_HANDSHAKEE
0000000000000000 t .text._ZN4bssl29ssl_done_writing_client_helloEPNS_13SSL_HANDSHAKEE
0000000000000000 t .text._ZN4bssl41ssl_write_client_hello_without_extensionsEPKNS_13SSL_HANDSHAKEEP6cbb_stNS_23ssl_client_hello_type_tEb
0000000000000000 t .text._ZN4bssl4SpanIhEC2EPhm
0000000000000000 t .text._ZN4bssl4SpanIhEC2ILm32EEERAT__h
0000000000000000 t .text._ZN4bssl4SpanIKhEC1EPS1_m
0000000000000000 t .text._ZN4bssl4SpanIKhEC2ILm8EEERAT__S1_
0000000000000000 t .text._ZN4bssl4SpanIKhEC2INS0_IhEEvS4_EERKT_
0000000000000000 t .text._ZN4bssl4SpanIKhEC2INS_5ArrayIhEEvS5_EERKT_
0000000000000000 t .text._ZN4bssl5ArrayIhE4dataEv
0000000000000000 t .text._ZN4bssl5ArrayIhE4InitEm
0000000000000000 t .text._ZN4bssl5ArrayIhE5ResetEPhm
0000000000000000 t .text._ZN4bssl5ArrayIhE5ResetEv
0000000000000000 t .text._ZN4bssl5ArrayIhE7ReleaseEPPhPm
0000000000000000 t .text._ZN4bssl5ArrayIhE8CopyFromENS_4SpanIKhEE
0000000000000000 t .text._ZN4bssl5ArrayIhEaSEOS1_
0000000000000000 t .text._ZN4bssl5ArrayIhEC2EOS1_
0000000000000000 t .text._ZN4bssl5ArrayIhEC2Ev
0000000000000000 t .text._ZN4bssl5ArrayIhED2Ev
0000000000000000 t .text._ZN4bssl5ArrayIhEixEm
0000000000000000 t .text._ZN4bssl5UpRefEP14ssl_session_st
0000000000000000 t .text._ZN4bssl5UpRefERKSt10unique_ptrI14ssl_session_stNS_8internal7DeleterEE
0000000000000000 t .text._ZN4bssl6DeleteINS_11SSLKeyShareEEEvPT_
0000000000000000 t .text._ZN4bssl8internal11DeleterImplI14ssl_session_stvE4FreeEPS2_
0000000000000000 t .text._ZN4bssl8internal11DeleterImplI16crypto_buffer_stvE4FreeEPS2_
0000000000000000 t .text._ZN4bssl8internal11DeleterImplI22stack_st_CRYPTO_BUFFERvE4FreeEPS2_
0000000000000000 t .text._ZN4bssl8internal11DeleterImplIcvE4FreeEPc
0000000000000000 t .text._ZN4bssl8internal11DeleterImplINS_11SSLKeyShareEvE4FreeEPS2_
0000000000000000 t .text._ZN4bssl8internal14StackAllocatedI6cbb_stvXadL_Z8CBB_zeroEEXadL_Z11CBB_cleanupEEE3getEv
0000000000000000 t .text._ZN4bssl8internal14StackAllocatedI6cbb_stvXadL_Z8CBB_zeroEEXadL_Z11CBB_cleanupEEEC2Ev
0000000000000000 t .text._ZN4bssl8internal14StackAllocatedI6cbb_stvXadL_Z8CBB_zeroEEXadL_Z11CBB_cleanupEEED2Ev
0000000000000000 t .text._ZN4bssl8internal17StackIteratorImplI19stack_st_SSL_CIPHEREC2EPKS2_m
0000000000000000 t .text._ZN4bssl8internal17StackIteratorImplI19stack_st_SSL_CIPHEREppEv
0000000000000000 t .text._ZN4bssl8internal7DeleterclI14ssl_session_stEEvPT_
0000000000000000 t .text._ZN4bssl8internal7DeleterclI16crypto_buffer_stEEvPT_
0000000000000000 t .text._ZN4bssl8internal7DeleterclI22stack_st_CRYPTO_BUFFEREEvPT_
0000000000000000 t .text._ZN4bssl8internal7DeleterclIcEEvPT_
0000000000000000 t .text._ZN4bssl8internal7DeleterclINS_11SSLKeyShareEEEvPT_
0000000000000000 t .text._ZN4bssl8internaleqENS_4SpanIKhEES3_
0000000000000000 t .text._ZN4bssl8internalneENS_4SpanIKhEES3_
0000000000000000 t .text._ZN4bssl8MakeSpanIhEENS_4SpanIT_EEPS2_m
0000000000000000 t .text._ZN4bssl8MakeSpanINS_5ArrayIhEEEEDTcl8MakeSpancldtfp_4dataEcldtfp_4sizeEEERT_
0000000000000000 t .text._ZN4bsslL15can_false_startEPKNS_13SSL_HANDSHAKEE
0000000000000000 t .text._ZN4bsslL16do_finish_flightEPNS_13SSL_HANDSHAKEE
0000000000000000 t .text._ZN4bsslL16do_start_connectEPNS_13SSL_HANDSHAKEE
0000000000000000 t .text._ZN4bsslL19do_enter_early_dataEPNS_13SSL_HANDSHAKEE
0000000000000000 t .text._ZN4bsslL20do_read_server_helloEPNS_13SSL_HANDSHAKEE
0000000000000000 t .text._ZN4bsslL20parse_server_versionEPKNS_13SSL_HANDSHAKEEPtPhRKNS_17ParsedServerHelloE
0000000000000000 t .text._ZN4bsslL20ssl_add_tls13_cipherEP6cbb_stt23ssl_compliance_policy_t
0000000000000000 t .text._ZN4bsslL22do_read_session_ticketEPNS_13SSL_HANDSHAKEE
0000000000000000 t .text._ZN4bsslL23do_read_server_finishedEPNS_13SSL_HANDSHAKEE
0000000000000000 t .text._ZN4bsslL23do_send_client_finishedEPNS_13SSL_HANDSHAKEE
0000000000000000 t .text._ZN4bsslL23should_offer_early_dataEPKNS_13SSL_HANDSHAKEE
0000000000000000 t .text._ZN4bsslL23ssl_get_client_disabledEPKNS_13SSL_HANDSHAKEEPjS3_
0000000000000000 t .text._ZN4bsslL25do_read_server_hello_doneEPNS_13SSL_HANDSHAKEE
0000000000000000 t .text._ZN4bsslL26do_finish_client_handshakeEPNS_13SSL_HANDSHAKEE
0000000000000000 t .text._ZN4bsslL26do_read_certificate_statusEPNS_13SSL_HANDSHAKEE
0000000000000000 t .text._ZN4bsslL26do_read_server_certificateEPNS_13SSL_HANDSHAKEE
0000000000000000 t .text._ZN4bsslL26do_send_client_certificateEPNS_13SSL_HANDSHAKEE
0000000000000000 t .text._ZN4bsslL27do_read_certificate_requestEPNS_13SSL_HANDSHAKEE
0000000000000000 t .text._ZN4bsslL27do_read_server_key_exchangeEPNS_13SSL_HANDSHAKEE
0000000000000000 t .text._ZN4bsslL27do_send_client_key_exchangeEPNS_13SSL_HANDSHAKEE
0000000000000000 t .text._ZN4bsslL28do_read_hello_verify_requestEPNS_13SSL_HANDSHAKEE
0000000000000000 t .text._ZN4bsslL28do_verify_server_certificateEPNS_13SSL_HANDSHAKEE
0000000000000000 t .text._ZN4bsslL28ssl_write_client_cipher_listEPKNS_13SSL_HANDSHAKEEP6cbb_stNS_23ssl_client_hello_type_tE
0000000000000000 t .text._ZN4bsslL29do_process_change_cipher_specEPNS_13SSL_HANDSHAKEE
0000000000000000 t .text._ZN4bsslL30do_reverify_server_certificateEPNS_13SSL_HANDSHAKEE
0000000000000000 t .text._ZN4bsslL33do_send_client_certificate_verifyEPNS_13SSL_HANDSHAKEE
0000000000000000 t .text._ZN4bsslL36do_early_reverify_server_certificateEPNS_13SSL_HANDSHAKEE
0000000000000000 t .text._ZN4bsslL8do_tls13EPNS_13SSL_HANDSHAKEE
0000000000000000 t .text._ZNK4bssl13SSLTranscript6bufferEv
0000000000000000 t .text._ZNK4bssl4SpanIhE4dataEv
0000000000000000 t .text._ZNK4bssl4SpanIhE4sizeEv
0000000000000000 t .text._ZNK4bssl4SpanIKhE3endEv
0000000000000000 t .text._ZNK4bssl4SpanIKhE4dataEv
0000000000000000 t .text._ZNK4bssl4SpanIKhE4sizeEv
0000000000000000 t .text._ZNK4bssl4SpanIKhE5beginEv
0000000000000000 t .text._ZNK4bssl4SpanIKhE7subspanEmm
0000000000000000 t .text._ZNK4bssl5ArrayIhE4dataEv
0000000000000000 t .text._ZNK4bssl5ArrayIhE4sizeEv
0000000000000000 t .text._ZNK4bssl5ArrayIhE5emptyEv
0000000000000000 t .text._ZNK4bssl8internal17StackIteratorImplI19stack_st_SSL_CIPHEREdeEv
0000000000000000 t .text._ZNK4bssl8internal17StackIteratorImplI19stack_st_SSL_CIPHEREeqES3_
0000000000000000 t .text._ZNK4bssl8internal17StackIteratorImplI19stack_st_SSL_CIPHEREneES3_
0000000000000000 t .text._ZNK6cbs_stcvN4bssl4SpanIKhEEEv
0000000000000000 t .text._ZNKSt10unique_ptrI10buf_mem_stN4bssl8internal7DeleterEE3getEv
0000000000000000 t .text._ZNKSt10unique_ptrI10buf_mem_stN4bssl8internal7DeleterEEptEv
0000000000000000 t .text._ZNKSt10unique_ptrI10ssl_ctx_stN4bssl8internal7DeleterEE3getEv
0000000000000000 t .text._ZNKSt10unique_ptrI10ssl_ctx_stN4bssl8internal7DeleterEEptEv
0000000000000000 t .text._ZNKSt10unique_ptrI11evp_pkey_stN4bssl8internal7DeleterEE3getEv
0000000000000000 t .text._ZNKSt10unique_ptrI14ssl_session_stN4bssl8internal7DeleterEE3getEv
0000000000000000 t .text._ZNKSt10unique_ptrI14ssl_session_stN4bssl8internal7DeleterEEcvbEv
0000000000000000 t .text._ZNKSt10unique_ptrI14ssl_session_stN4bssl8internal7DeleterEEptEv
0000000000000000 t .text._ZNKSt10unique_ptrI16crypto_buffer_stN4bssl8internal7DeleterEE3getEv
0000000000000000 t .text._ZNKSt10unique_ptrI16crypto_buffer_stN4bssl8internal7DeleterEEcvbEv
0000000000000000 t .text._ZNKSt10unique_ptrI22stack_st_CRYPTO_BUFFERN4bssl8internal7DeleterEE3getEv
0000000000000000 t .text._ZNKSt10unique_ptrI22stack_st_CRYPTO_BUFFERN4bssl8internal7DeleterEEcvbEv
0000000000000000 t .text._ZNKSt10unique_ptrIcN4bssl8internal7DeleterEE3getEv
0000000000000000 t .text._ZNKSt10unique_ptrIcN4bssl8internal7DeleterEEcvbEv
0000000000000000 t .text._ZNKSt10unique_ptrIN4bssl10SSL_CONFIGENS0_8internal7DeleterEE3getEv
0000000000000000 t .text._ZNKSt10unique_ptrIN4bssl10SSL_CONFIGENS0_8internal7DeleterEEptEv
0000000000000000 t .text._ZNKSt10unique_ptrIN4bssl11SSLKeyShareENS0_8internal7DeleterEE3getEv
0000000000000000 t .text._ZNKSt10unique_ptrIN4bssl11SSLKeyShareENS0_8internal7DeleterEEcvbEv
0000000000000000 t .text._ZNKSt10unique_ptrIN4bssl11SSLKeyShareENS0_8internal7DeleterEEptEv
0000000000000000 t .text._ZNKSt10unique_ptrIN4bssl14SSLAEADContextENS0_8internal7DeleterEE3getEv
0000000000000000 t .text._ZNKSt10unique_ptrIN4bssl14SSLAEADContextENS0_8internal7DeleterEEptEv
0000000000000000 t .text._ZNKSt10unique_ptrIN4bssl4CERTENS0_8internal7DeleterEE3getEv
0000000000000000 t .text._ZNKSt10unique_ptrIN4bssl4CERTENS0_8internal7DeleterEEptEv
0000000000000000 t .text._ZNKSt10unique_ptrIN4bssl9ECHConfigENS0_8internal7DeleterEE3getEv
0000000000000000 t .text._ZNKSt10unique_ptrIN4bssl9ECHConfigENS0_8internal7DeleterEEcvbEv
0000000000000000 t .text._ZNKSt15__uniq_ptr_implI10buf_mem_stN4bssl8internal7DeleterEE6_M_ptrEv
0000000000000000 t .text._ZNKSt15__uniq_ptr_implI10ssl_ctx_stN4bssl8internal7DeleterEE6_M_ptrEv
0000000000000000 t .text._ZNKSt15__uniq_ptr_implI11evp_pkey_stN4bssl8internal7DeleterEE6_M_ptrEv
0000000000000000 t .text._ZNKSt15__uniq_ptr_implI14ssl_session_stN4bssl8internal7DeleterEE6_M_ptrEv
0000000000000000 t .text._ZNKSt15__uniq_ptr_implI16crypto_buffer_stN4bssl8internal7DeleterEE6_M_ptrEv
0000000000000000 t .text._ZNKSt15__uniq_ptr_implI22stack_st_CRYPTO_BUFFERN4bssl8internal7DeleterEE6_M_ptrEv
0000000000000000 t .text._ZNKSt15__uniq_ptr_implIcN4bssl8internal7DeleterEE6_M_ptrEv
0000000000000000 t .text._ZNKSt15__uniq_ptr_implIN4bssl10SSL_CONFIGENS0_8internal7DeleterEE6_M_ptrEv
0000000000000000 t .text._ZNKSt15__uniq_ptr_implIN4bssl11SSLKeyShareENS0_8internal7DeleterEE6_M_ptrEv
0000000000000000 t .text._ZNKSt15__uniq_ptr_implIN4bssl14SSLAEADContextENS0_8internal7DeleterEE6_M_ptrEv
0000000000000000 t .text._ZNKSt15__uniq_ptr_implIN4bssl4CERTENS0_8internal7DeleterEE6_M_ptrEv
0000000000000000 t .text._ZNKSt15__uniq_ptr_implIN4bssl9ECHConfigENS0_8internal7DeleterEE6_M_ptrEv
0000000000000000 t .text._ZNSt10_Head_baseILm0EP10buf_mem_stLb0EE7_M_headERKS2_
0000000000000000 t .text._ZNSt10_Head_baseILm0EP10ssl_ctx_stLb0EE7_M_headERKS2_
0000000000000000 t .text._ZNSt10_Head_baseILm0EP11evp_pkey_stLb0EE7_M_headERKS2_
0000000000000000 t .text._ZNSt10_Head_baseILm0EP14ssl_session_stLb0EE7_M_headERKS2_
0000000000000000 t .text._ZNSt10_Head_baseILm0EP14ssl_session_stLb0EE7_M_headERS2_
0000000000000000 t .text._ZNSt10_Head_baseILm0EP14ssl_session_stLb0EEC2Ev
0000000000000000 t .text._ZNSt10_Head_baseILm0EP16crypto_buffer_stLb0EE7_M_headERKS2_
0000000000000000 t .text._ZNSt10_Head_baseILm0EP16crypto_buffer_stLb0EE7_M_headERS2_
0000000000000000 t .text._ZNSt10_Head_baseILm0EP22stack_st_CRYPTO_BUFFERLb0EE7_M_headERKS2_
0000000000000000 t .text._ZNSt10_Head_baseILm0EP22stack_st_CRYPTO_BUFFERLb0EE7_M_headERS2_
0000000000000000 t .text._ZNSt10_Head_baseILm0EPcLb0EE7_M_headERKS1_
0000000000000000 t .text._ZNSt10_Head_baseILm0EPcLb0EE7_M_headERS1_
0000000000000000 t .text._ZNSt10_Head_baseILm0EPN4bssl10SSL_CONFIGELb0EE7_M_headERKS3_
0000000000000000 t .text._ZNSt10_Head_baseILm0EPN4bssl11SSLKeyShareELb0EE7_M_headERKS3_
0000000000000000 t .text._ZNSt10_Head_baseILm0EPN4bssl11SSLKeyShareELb0EE7_M_headERS3_
0000000000000000 t .text._ZNSt10_Head_baseILm0EPN4bssl14SSLAEADContextELb0EE7_M_headERKS3_
0000000000000000 t .text._ZNSt10_Head_baseILm0EPN4bssl4CERTELb0EE7_M_headERKS3_
0000000000000000 t .text._ZNSt10_Head_baseILm0EPN4bssl9ECHConfigELb0EE7_M_headERKS3_
0000000000000000 t .text._ZNSt10_Head_baseILm1EN4bssl8internal7DeleterELb1EE7_M_headERS3_
0000000000000000 t .text._ZNSt10_Head_baseILm1EN4bssl8internal7DeleterELb1EEC2Ev
0000000000000000 t .text._ZNSt10unique_ptrI14ssl_session_stN4bssl8internal7DeleterEE11get_deleterEv
0000000000000000 t .text._ZNSt10unique_ptrI14ssl_session_stN4bssl8internal7DeleterEE5resetEPS0_
0000000000000000 t .text._ZNSt10unique_ptrI14ssl_session_stN4bssl8internal7DeleterEE7releaseEv
0000000000000000 t .text._ZNSt10unique_ptrI14ssl_session_stN4bssl8internal7DeleterEEaSEOS4_
0000000000000000 t .text._ZNSt10unique_ptrI14ssl_session_stN4bssl8internal7DeleterEEC2IS3_vEEPS0_
0000000000000000 t .text._ZNSt10unique_ptrI14ssl_session_stN4bssl8internal7DeleterEED2Ev
0000000000000000 t .text._ZNSt10unique_ptrI16crypto_buffer_stN4bssl8internal7DeleterEE11get_deleterEv
0000000000000000 t .text._ZNSt10unique_ptrI16crypto_buffer_stN4bssl8internal7DeleterEE5resetEPS0_
0000000000000000 t .text._ZNSt10unique_ptrI22stack_st_CRYPTO_BUFFERN4bssl8internal7DeleterEE11get_deleterEv
0000000000000000 t .text._ZNSt10unique_ptrI22stack_st_CRYPTO_BUFFERN4bssl8internal7DeleterEE5resetEPS0_
0000000000000000 t .text._ZNSt10unique_ptrI22stack_st_CRYPTO_BUFFERN4bssl8internal7DeleterEE7releaseEv
0000000000000000 t .text._ZNSt10unique_ptrI22stack_st_CRYPTO_BUFFERN4bssl8internal7DeleterEEaSEOS4_
0000000000000000 t .text._ZNSt10unique_ptrI22stack_st_CRYPTO_BUFFERN4bssl8internal7DeleterEED2Ev
0000000000000000 t .text._ZNSt10unique_ptrIcN4bssl8internal7DeleterEE11get_deleterEv
0000000000000000 t .text._ZNSt10unique_ptrIcN4bssl8internal7DeleterEE5resetEPc
0000000000000000 t .text._ZNSt10unique_ptrIN4bssl11SSLKeyShareENS0_8internal7DeleterEE11get_deleterEv
0000000000000000 t .text._ZNSt10unique_ptrIN4bssl11SSLKeyShareENS0_8internal7DeleterEE5resetEPS1_
0000000000000000 t .text._ZNSt10unique_ptrIN4bssl11SSLKeyShareENS0_8internal7DeleterEED2Ev
0000000000000000 t .text._ZNSt11_Tuple_implILm0EJP10buf_mem_stN4bssl8internal7DeleterEEE7_M_headERKS5_
0000000000000000 t .text._ZNSt11_Tuple_implILm0EJP10ssl_ctx_stN4bssl8internal7DeleterEEE7_M_headERKS5_
0000000000000000 t .text._ZNSt11_Tuple_implILm0EJP11evp_pkey_stN4bssl8internal7DeleterEEE7_M_headERKS5_
0000000000000000 t .text._ZNSt11_Tuple_implILm0EJP14ssl_session_stN4bssl8internal7DeleterEEE7_M_headERKS5_
0000000000000000 t .text._ZNSt11_Tuple_implILm0EJP14ssl_session_stN4bssl8internal7DeleterEEE7_M_headERS5_
0000000000000000 t .text._ZNSt11_Tuple_implILm0EJP14ssl_session_stN4bssl8internal7DeleterEEEC2Ev
0000000000000000 t .text._ZNSt11_Tuple_implILm0EJP16crypto_buffer_stN4bssl8internal7DeleterEEE7_M_headERKS5_
0000000000000000 t .text._ZNSt11_Tuple_implILm0EJP16crypto_buffer_stN4bssl8internal7DeleterEEE7_M_headERS5_
0000000000000000 t .text._ZNSt11_Tuple_implILm0EJP22stack_st_CRYPTO_BUFFERN4bssl8internal7DeleterEEE7_M_headERKS5_
0000000000000000 t .text._ZNSt11_Tuple_implILm0EJP22stack_st_CRYPTO_BUFFERN4bssl8internal7DeleterEEE7_M_headERS5_
0000000000000000 t .text._ZNSt11_Tuple_implILm0EJPcN4bssl8internal7DeleterEEE7_M_headERKS4_
0000000000000000 t .text._ZNSt11_Tuple_implILm0EJPcN4bssl8internal7DeleterEEE7_M_headERS4_
0000000000000000 t .text._ZNSt11_Tuple_implILm0EJPN4bssl10SSL_CONFIGENS0_8internal7DeleterEEE7_M_headERKS5_
0000000000000000 t .text._ZNSt11_Tuple_implILm0EJPN4bssl11SSLKeyShareENS0_8internal7DeleterEEE7_M_headERKS5_
0000000000000000 t .text._ZNSt11_Tuple_implILm0EJPN4bssl11SSLKeyShareENS0_8internal7DeleterEEE7_M_headERS5_
0000000000000000 t .text._ZNSt11_Tuple_implILm0EJPN4bssl14SSLAEADContextENS0_8internal7DeleterEEE7_M_headERKS5_
0000000000000000 t .text._ZNSt11_Tuple_implILm0EJPN4bssl4CERTENS0_8internal7DeleterEEE7_M_headERKS5_
0000000000000000 t .text._ZNSt11_Tuple_implILm0EJPN4bssl9ECHConfigENS0_8internal7DeleterEEE7_M_headERKS5_
0000000000000000 t .text._ZNSt11_Tuple_implILm1EJN4bssl8internal7DeleterEEE7_M_headERS3_
0000000000000000 t .text._ZNSt11_Tuple_implILm1EJN4bssl8internal7DeleterEEEC2Ev
0000000000000000 t .text._ZNSt14numeric_limitsImE3maxEv
0000000000000000 t .text._ZNSt15__uniq_ptr_implI14ssl_session_stN4bssl8internal7DeleterEE10_M_deleterEv
0000000000000000 t .text._ZNSt15__uniq_ptr_implI14ssl_session_stN4bssl8internal7DeleterEE6_M_ptrEv
0000000000000000 t .text._ZNSt15__uniq_ptr_implI14ssl_session_stN4bssl8internal7DeleterEEC2EPS0_
0000000000000000 t .text._ZNSt15__uniq_ptr_implI16crypto_buffer_stN4bssl8internal7DeleterEE10_M_deleterEv
0000000000000000 t .text._ZNSt15__uniq_ptr_implI16crypto_buffer_stN4bssl8internal7DeleterEE6_M_ptrEv
0000000000000000 t .text._ZNSt15__uniq_ptr_implI22stack_st_CRYPTO_BUFFERN4bssl8internal7DeleterEE10_M_deleterEv
0000000000000000 t .text._ZNSt15__uniq_ptr_implI22stack_st_CRYPTO_BUFFERN4bssl8internal7DeleterEE6_M_ptrEv
0000000000000000 t .text._ZNSt15__uniq_ptr_implIcN4bssl8internal7DeleterEE10_M_deleterEv
0000000000000000 t .text._ZNSt15__uniq_ptr_implIcN4bssl8internal7DeleterEE6_M_ptrEv
0000000000000000 t .text._ZNSt15__uniq_ptr_implIN4bssl11SSLKeyShareENS0_8internal7DeleterEE10_M_deleterEv
0000000000000000 t .text._ZNSt15__uniq_ptr_implIN4bssl11SSLKeyShareENS0_8internal7DeleterEE6_M_ptrEv
0000000000000000 t .text._ZNSt5tupleIJP14ssl_session_stN4bssl8internal7DeleterEEEC2IS1_S4_Lb1EEEv
0000000000000000 t .text._ZnwmPv
0000000000000000 t .text._ZSt12__get_helperILm0EP10buf_mem_stJN4bssl8internal7DeleterEEERKT0_RKSt11_Tuple_implIXT_EJS5_DpT1_EE
0000000000000000 t .text._ZSt12__get_helperILm0EP10ssl_ctx_stJN4bssl8internal7DeleterEEERKT0_RKSt11_Tuple_implIXT_EJS5_DpT1_EE
0000000000000000 t .text._ZSt12__get_helperILm0EP11evp_pkey_stJN4bssl8internal7DeleterEEERKT0_RKSt11_Tuple_implIXT_EJS5_DpT1_EE
0000000000000000 t .text._ZSt12__get_helperILm0EP14ssl_session_stJN4bssl8internal7DeleterEEERKT0_RKSt11_Tuple_implIXT_EJS5_DpT1_EE
0000000000000000 t .text._ZSt12__get_helperILm0EP14ssl_session_stJN4bssl8internal7DeleterEEERT0_RSt11_Tuple_implIXT_EJS5_DpT1_EE
0000000000000000 t .text._ZSt12__get_helperILm0EP16crypto_buffer_stJN4bssl8internal7DeleterEEERKT0_RKSt11_Tuple_implIXT_EJS5_DpT1_EE
0000000000000000 t .text._ZSt12__get_helperILm0EP16crypto_buffer_stJN4bssl8internal7DeleterEEERT0_RSt11_Tuple_implIXT_EJS5_DpT1_EE
0000000000000000 t .text._ZSt12__get_helperILm0EP22stack_st_CRYPTO_BUFFERJN4bssl8internal7DeleterEEERKT0_RKSt11_Tuple_implIXT_EJS5_DpT1_EE
0000000000000000 t .text._ZSt12__get_helperILm0EP22stack_st_CRYPTO_BUFFERJN4bssl8internal7DeleterEEERT0_RSt11_Tuple_implIXT_EJS5_DpT1_EE
0000000000000000 t .text._ZSt12__get_helperILm0EPcJN4bssl8internal7DeleterEEERKT0_RKSt11_Tuple_implIXT_EJS4_DpT1_EE
0000000000000000 t .text._ZSt12__get_helperILm0EPcJN4bssl8internal7DeleterEEERT0_RSt11_Tuple_implIXT_EJS4_DpT1_EE
0000000000000000 t .text._ZSt12__get_helperILm0EPN4bssl10SSL_CONFIGEJNS0_8internal7DeleterEEERKT0_RKSt11_Tuple_implIXT_EJS5_DpT1_EE
0000000000000000 t .text._ZSt12__get_helperILm0EPN4bssl11SSLKeyShareEJNS0_8internal7DeleterEEERKT0_RKSt11_Tuple_implIXT_EJS5_DpT1_EE
0000000000000000 t .text._ZSt12__get_helperILm0EPN4bssl11SSLKeyShareEJNS0_8internal7DeleterEEERT0_RSt11_Tuple_implIXT_EJS5_DpT1_EE
0000000000000000 t .text._ZSt12__get_helperILm0EPN4bssl14SSLAEADContextEJNS0_8internal7DeleterEEERKT0_RKSt11_Tuple_implIXT_EJS5_DpT1_EE
